
Smart_Speedometr.elf:     file format elf32-littlearm

Sections:
Idx Name          Size      VMA       LMA       File off  Algn
  0 .isr_vector   000000b8  08000000  08000000  00001000  2**0
                  CONTENTS, ALLOC, LOAD, READONLY, DATA
  1 .text         00005b58  080000b8  080000b8  000010b8  2**2
                  CONTENTS, ALLOC, LOAD, READONLY, CODE
  2 .rodata       00001650  08005c10  08005c10  00006c10  2**2
                  CONTENTS, ALLOC, LOAD, READONLY, DATA
  3 .ARM.extab    00000000  08007260  08007260  00009074  2**0
                  CONTENTS, READONLY
  4 .ARM          00000000  08007260  08007260  00009074  2**0
                  CONTENTS, READONLY
  5 .preinit_array 00000000  08007260  08007260  00009074  2**0
                  CONTENTS, ALLOC, LOAD, DATA
  6 .init_array   00000004  08007260  08007260  00008260  2**2
                  CONTENTS, ALLOC, LOAD, READONLY, DATA
  7 .fini_array   00000004  08007264  08007264  00008264  2**2
                  CONTENTS, ALLOC, LOAD, READONLY, DATA
  8 .data         00000074  20000000  08007268  00009000  2**2
                  CONTENTS, ALLOC, LOAD, DATA
  9 .bss          000007e4  20000074  080072dc  00009074  2**2
                  ALLOC
 10 ._user_heap_stack 00000600  20000858  080072dc  00009858  2**0
                  ALLOC
 11 .ARM.attributes 00000028  00000000  00000000  00009074  2**0
                  CONTENTS, READONLY
 12 .debug_info   0001af52  00000000  00000000  0000909c  2**0
                  CONTENTS, READONLY, DEBUGGING, OCTETS
 13 .debug_abbrev 000036b8  00000000  00000000  00023fee  2**0
                  CONTENTS, READONLY, DEBUGGING, OCTETS
 14 .debug_aranges 000011a8  00000000  00000000  000276a8  2**3
                  CONTENTS, READONLY, DEBUGGING, OCTETS
 15 .debug_macro  000181be  00000000  00000000  00028850  2**0
                  CONTENTS, READONLY, DEBUGGING, OCTETS
 16 .debug_line   0001d6c6  00000000  00000000  00040a0e  2**0
                  CONTENTS, READONLY, DEBUGGING, OCTETS
 17 .debug_str    000987a4  00000000  00000000  0005e0d4  2**0
                  CONTENTS, READONLY, DEBUGGING, OCTETS
 18 .comment      00000043  00000000  00000000  000f6878  2**0
                  CONTENTS, READONLY
 19 .debug_loclists 0000e707  00000000  00000000  000f68bb  2**0
                  CONTENTS, READONLY, DEBUGGING, OCTETS
 20 .debug_rnglists 00000fce  00000000  00000000  00104fc2  2**0
                  CONTENTS, READONLY, DEBUGGING, OCTETS
 21 .debug_frame  00003688  00000000  00000000  00105f90  2**2
                  CONTENTS, READONLY, DEBUGGING, OCTETS
 22 .debug_line_str 00000064  00000000  00000000  00109618  2**0
                  CONTENTS, READONLY, DEBUGGING, OCTETS

Disassembly of section .text:

080000b8 <__do_global_dtors_aux>:
 80000b8:	b510      	push	{r4, lr}
 80000ba:	4c06      	ldr	r4, [pc, #24]	@ (80000d4 <__do_global_dtors_aux+0x1c>)
 80000bc:	7823      	ldrb	r3, [r4, #0]
 80000be:	2b00      	cmp	r3, #0
 80000c0:	d107      	bne.n	80000d2 <__do_global_dtors_aux+0x1a>
 80000c2:	4b05      	ldr	r3, [pc, #20]	@ (80000d8 <__do_global_dtors_aux+0x20>)
 80000c4:	2b00      	cmp	r3, #0
 80000c6:	d002      	beq.n	80000ce <__do_global_dtors_aux+0x16>
 80000c8:	4804      	ldr	r0, [pc, #16]	@ (80000dc <__do_global_dtors_aux+0x24>)
 80000ca:	e000      	b.n	80000ce <__do_global_dtors_aux+0x16>
 80000cc:	bf00      	nop
 80000ce:	2301      	movs	r3, #1
 80000d0:	7023      	strb	r3, [r4, #0]
 80000d2:	bd10      	pop	{r4, pc}
 80000d4:	20000074 	.word	0x20000074
 80000d8:	00000000 	.word	0x00000000
 80000dc:	08005bf8 	.word	0x08005bf8

080000e0 <frame_dummy>:
 80000e0:	4b04      	ldr	r3, [pc, #16]	@ (80000f4 <frame_dummy+0x14>)
 80000e2:	b510      	push	{r4, lr}
 80000e4:	2b00      	cmp	r3, #0
 80000e6:	d003      	beq.n	80000f0 <frame_dummy+0x10>
 80000e8:	4903      	ldr	r1, [pc, #12]	@ (80000f8 <frame_dummy+0x18>)
 80000ea:	4804      	ldr	r0, [pc, #16]	@ (80000fc <frame_dummy+0x1c>)
 80000ec:	e000      	b.n	80000f0 <frame_dummy+0x10>
 80000ee:	bf00      	nop
 80000f0:	bd10      	pop	{r4, pc}
 80000f2:	46c0      	nop			@ (mov r8, r8)
 80000f4:	00000000 	.word	0x00000000
 80000f8:	20000078 	.word	0x20000078
 80000fc:	08005bf8 	.word	0x08005bf8

08000100 <__gnu_thumb1_case_shi>:
 8000100:	b403      	push	{r0, r1}
 8000102:	4671      	mov	r1, lr
 8000104:	0849      	lsrs	r1, r1, #1
 8000106:	0040      	lsls	r0, r0, #1
 8000108:	0049      	lsls	r1, r1, #1
 800010a:	5e09      	ldrsh	r1, [r1, r0]
 800010c:	0049      	lsls	r1, r1, #1
 800010e:	448e      	add	lr, r1
 8000110:	bc03      	pop	{r0, r1}
 8000112:	4770      	bx	lr

08000114 <__udivsi3>:
 8000114:	2200      	movs	r2, #0
 8000116:	0843      	lsrs	r3, r0, #1
 8000118:	428b      	cmp	r3, r1
 800011a:	d374      	bcc.n	8000206 <__udivsi3+0xf2>
 800011c:	0903      	lsrs	r3, r0, #4
 800011e:	428b      	cmp	r3, r1
 8000120:	d35f      	bcc.n	80001e2 <__udivsi3+0xce>
 8000122:	0a03      	lsrs	r3, r0, #8
 8000124:	428b      	cmp	r3, r1
 8000126:	d344      	bcc.n	80001b2 <__udivsi3+0x9e>
 8000128:	0b03      	lsrs	r3, r0, #12
 800012a:	428b      	cmp	r3, r1
 800012c:	d328      	bcc.n	8000180 <__udivsi3+0x6c>
 800012e:	0c03      	lsrs	r3, r0, #16
 8000130:	428b      	cmp	r3, r1
 8000132:	d30d      	bcc.n	8000150 <__udivsi3+0x3c>
 8000134:	22ff      	movs	r2, #255	@ 0xff
 8000136:	0209      	lsls	r1, r1, #8
 8000138:	ba12      	rev	r2, r2
 800013a:	0c03      	lsrs	r3, r0, #16
 800013c:	428b      	cmp	r3, r1
 800013e:	d302      	bcc.n	8000146 <__udivsi3+0x32>
 8000140:	1212      	asrs	r2, r2, #8
 8000142:	0209      	lsls	r1, r1, #8
 8000144:	d065      	beq.n	8000212 <__udivsi3+0xfe>
 8000146:	0b03      	lsrs	r3, r0, #12
 8000148:	428b      	cmp	r3, r1
 800014a:	d319      	bcc.n	8000180 <__udivsi3+0x6c>
 800014c:	e000      	b.n	8000150 <__udivsi3+0x3c>
 800014e:	0a09      	lsrs	r1, r1, #8
 8000150:	0bc3      	lsrs	r3, r0, #15
 8000152:	428b      	cmp	r3, r1
 8000154:	d301      	bcc.n	800015a <__udivsi3+0x46>
 8000156:	03cb      	lsls	r3, r1, #15
 8000158:	1ac0      	subs	r0, r0, r3
 800015a:	4152      	adcs	r2, r2
 800015c:	0b83      	lsrs	r3, r0, #14
 800015e:	428b      	cmp	r3, r1
 8000160:	d301      	bcc.n	8000166 <__udivsi3+0x52>
 8000162:	038b      	lsls	r3, r1, #14
 8000164:	1ac0      	subs	r0, r0, r3
 8000166:	4152      	adcs	r2, r2
 8000168:	0b43      	lsrs	r3, r0, #13
 800016a:	428b      	cmp	r3, r1
 800016c:	d301      	bcc.n	8000172 <__udivsi3+0x5e>
 800016e:	034b      	lsls	r3, r1, #13
 8000170:	1ac0      	subs	r0, r0, r3
 8000172:	4152      	adcs	r2, r2
 8000174:	0b03      	lsrs	r3, r0, #12
 8000176:	428b      	cmp	r3, r1
 8000178:	d301      	bcc.n	800017e <__udivsi3+0x6a>
 800017a:	030b      	lsls	r3, r1, #12
 800017c:	1ac0      	subs	r0, r0, r3
 800017e:	4152      	adcs	r2, r2
 8000180:	0ac3      	lsrs	r3, r0, #11
 8000182:	428b      	cmp	r3, r1
 8000184:	d301      	bcc.n	800018a <__udivsi3+0x76>
 8000186:	02cb      	lsls	r3, r1, #11
 8000188:	1ac0      	subs	r0, r0, r3
 800018a:	4152      	adcs	r2, r2
 800018c:	0a83      	lsrs	r3, r0, #10
 800018e:	428b      	cmp	r3, r1
 8000190:	d301      	bcc.n	8000196 <__udivsi3+0x82>
 8000192:	028b      	lsls	r3, r1, #10
 8000194:	1ac0      	subs	r0, r0, r3
 8000196:	4152      	adcs	r2, r2
 8000198:	0a43      	lsrs	r3, r0, #9
 800019a:	428b      	cmp	r3, r1
 800019c:	d301      	bcc.n	80001a2 <__udivsi3+0x8e>
 800019e:	024b      	lsls	r3, r1, #9
 80001a0:	1ac0      	subs	r0, r0, r3
 80001a2:	4152      	adcs	r2, r2
 80001a4:	0a03      	lsrs	r3, r0, #8
 80001a6:	428b      	cmp	r3, r1
 80001a8:	d301      	bcc.n	80001ae <__udivsi3+0x9a>
 80001aa:	020b      	lsls	r3, r1, #8
 80001ac:	1ac0      	subs	r0, r0, r3
 80001ae:	4152      	adcs	r2, r2
 80001b0:	d2cd      	bcs.n	800014e <__udivsi3+0x3a>
 80001b2:	09c3      	lsrs	r3, r0, #7
 80001b4:	428b      	cmp	r3, r1
 80001b6:	d301      	bcc.n	80001bc <__udivsi3+0xa8>
 80001b8:	01cb      	lsls	r3, r1, #7
 80001ba:	1ac0      	subs	r0, r0, r3
 80001bc:	4152      	adcs	r2, r2
 80001be:	0983      	lsrs	r3, r0, #6
 80001c0:	428b      	cmp	r3, r1
 80001c2:	d301      	bcc.n	80001c8 <__udivsi3+0xb4>
 80001c4:	018b      	lsls	r3, r1, #6
 80001c6:	1ac0      	subs	r0, r0, r3
 80001c8:	4152      	adcs	r2, r2
 80001ca:	0943      	lsrs	r3, r0, #5
 80001cc:	428b      	cmp	r3, r1
 80001ce:	d301      	bcc.n	80001d4 <__udivsi3+0xc0>
 80001d0:	014b      	lsls	r3, r1, #5
 80001d2:	1ac0      	subs	r0, r0, r3
 80001d4:	4152      	adcs	r2, r2
 80001d6:	0903      	lsrs	r3, r0, #4
 80001d8:	428b      	cmp	r3, r1
 80001da:	d301      	bcc.n	80001e0 <__udivsi3+0xcc>
 80001dc:	010b      	lsls	r3, r1, #4
 80001de:	1ac0      	subs	r0, r0, r3
 80001e0:	4152      	adcs	r2, r2
 80001e2:	08c3      	lsrs	r3, r0, #3
 80001e4:	428b      	cmp	r3, r1
 80001e6:	d301      	bcc.n	80001ec <__udivsi3+0xd8>
 80001e8:	00cb      	lsls	r3, r1, #3
 80001ea:	1ac0      	subs	r0, r0, r3
 80001ec:	4152      	adcs	r2, r2
 80001ee:	0883      	lsrs	r3, r0, #2
 80001f0:	428b      	cmp	r3, r1
 80001f2:	d301      	bcc.n	80001f8 <__udivsi3+0xe4>
 80001f4:	008b      	lsls	r3, r1, #2
 80001f6:	1ac0      	subs	r0, r0, r3
 80001f8:	4152      	adcs	r2, r2
 80001fa:	0843      	lsrs	r3, r0, #1
 80001fc:	428b      	cmp	r3, r1
 80001fe:	d301      	bcc.n	8000204 <__udivsi3+0xf0>
 8000200:	004b      	lsls	r3, r1, #1
 8000202:	1ac0      	subs	r0, r0, r3
 8000204:	4152      	adcs	r2, r2
 8000206:	1a41      	subs	r1, r0, r1
 8000208:	d200      	bcs.n	800020c <__udivsi3+0xf8>
 800020a:	4601      	mov	r1, r0
 800020c:	4152      	adcs	r2, r2
 800020e:	4610      	mov	r0, r2
 8000210:	4770      	bx	lr
 8000212:	e7ff      	b.n	8000214 <__udivsi3+0x100>
 8000214:	b501      	push	{r0, lr}
 8000216:	2000      	movs	r0, #0
 8000218:	f000 f8f0 	bl	80003fc <__aeabi_idiv0>
 800021c:	bd02      	pop	{r1, pc}
 800021e:	46c0      	nop			@ (mov r8, r8)

08000220 <__aeabi_uidivmod>:
 8000220:	2900      	cmp	r1, #0
 8000222:	d0f7      	beq.n	8000214 <__udivsi3+0x100>
 8000224:	e776      	b.n	8000114 <__udivsi3>
 8000226:	4770      	bx	lr

08000228 <__divsi3>:
 8000228:	4603      	mov	r3, r0
 800022a:	430b      	orrs	r3, r1
 800022c:	d47f      	bmi.n	800032e <__divsi3+0x106>
 800022e:	2200      	movs	r2, #0
 8000230:	0843      	lsrs	r3, r0, #1
 8000232:	428b      	cmp	r3, r1
 8000234:	d374      	bcc.n	8000320 <__divsi3+0xf8>
 8000236:	0903      	lsrs	r3, r0, #4
 8000238:	428b      	cmp	r3, r1
 800023a:	d35f      	bcc.n	80002fc <__divsi3+0xd4>
 800023c:	0a03      	lsrs	r3, r0, #8
 800023e:	428b      	cmp	r3, r1
 8000240:	d344      	bcc.n	80002cc <__divsi3+0xa4>
 8000242:	0b03      	lsrs	r3, r0, #12
 8000244:	428b      	cmp	r3, r1
 8000246:	d328      	bcc.n	800029a <__divsi3+0x72>
 8000248:	0c03      	lsrs	r3, r0, #16
 800024a:	428b      	cmp	r3, r1
 800024c:	d30d      	bcc.n	800026a <__divsi3+0x42>
 800024e:	22ff      	movs	r2, #255	@ 0xff
 8000250:	0209      	lsls	r1, r1, #8
 8000252:	ba12      	rev	r2, r2
 8000254:	0c03      	lsrs	r3, r0, #16
 8000256:	428b      	cmp	r3, r1
 8000258:	d302      	bcc.n	8000260 <__divsi3+0x38>
 800025a:	1212      	asrs	r2, r2, #8
 800025c:	0209      	lsls	r1, r1, #8
 800025e:	d065      	beq.n	800032c <__divsi3+0x104>
 8000260:	0b03      	lsrs	r3, r0, #12
 8000262:	428b      	cmp	r3, r1
 8000264:	d319      	bcc.n	800029a <__divsi3+0x72>
 8000266:	e000      	b.n	800026a <__divsi3+0x42>
 8000268:	0a09      	lsrs	r1, r1, #8
 800026a:	0bc3      	lsrs	r3, r0, #15
 800026c:	428b      	cmp	r3, r1
 800026e:	d301      	bcc.n	8000274 <__divsi3+0x4c>
 8000270:	03cb      	lsls	r3, r1, #15
 8000272:	1ac0      	subs	r0, r0, r3
 8000274:	4152      	adcs	r2, r2
 8000276:	0b83      	lsrs	r3, r0, #14
 8000278:	428b      	cmp	r3, r1
 800027a:	d301      	bcc.n	8000280 <__divsi3+0x58>
 800027c:	038b      	lsls	r3, r1, #14
 800027e:	1ac0      	subs	r0, r0, r3
 8000280:	4152      	adcs	r2, r2
 8000282:	0b43      	lsrs	r3, r0, #13
 8000284:	428b      	cmp	r3, r1
 8000286:	d301      	bcc.n	800028c <__divsi3+0x64>
 8000288:	034b      	lsls	r3, r1, #13
 800028a:	1ac0      	subs	r0, r0, r3
 800028c:	4152      	adcs	r2, r2
 800028e:	0b03      	lsrs	r3, r0, #12
 8000290:	428b      	cmp	r3, r1
 8000292:	d301      	bcc.n	8000298 <__divsi3+0x70>
 8000294:	030b      	lsls	r3, r1, #12
 8000296:	1ac0      	subs	r0, r0, r3
 8000298:	4152      	adcs	r2, r2
 800029a:	0ac3      	lsrs	r3, r0, #11
 800029c:	428b      	cmp	r3, r1
 800029e:	d301      	bcc.n	80002a4 <__divsi3+0x7c>
 80002a0:	02cb      	lsls	r3, r1, #11
 80002a2:	1ac0      	subs	r0, r0, r3
 80002a4:	4152      	adcs	r2, r2
 80002a6:	0a83      	lsrs	r3, r0, #10
 80002a8:	428b      	cmp	r3, r1
 80002aa:	d301      	bcc.n	80002b0 <__divsi3+0x88>
 80002ac:	028b      	lsls	r3, r1, #10
 80002ae:	1ac0      	subs	r0, r0, r3
 80002b0:	4152      	adcs	r2, r2
 80002b2:	0a43      	lsrs	r3, r0, #9
 80002b4:	428b      	cmp	r3, r1
 80002b6:	d301      	bcc.n	80002bc <__divsi3+0x94>
 80002b8:	024b      	lsls	r3, r1, #9
 80002ba:	1ac0      	subs	r0, r0, r3
 80002bc:	4152      	adcs	r2, r2
 80002be:	0a03      	lsrs	r3, r0, #8
 80002c0:	428b      	cmp	r3, r1
 80002c2:	d301      	bcc.n	80002c8 <__divsi3+0xa0>
 80002c4:	020b      	lsls	r3, r1, #8
 80002c6:	1ac0      	subs	r0, r0, r3
 80002c8:	4152      	adcs	r2, r2
 80002ca:	d2cd      	bcs.n	8000268 <__divsi3+0x40>
 80002cc:	09c3      	lsrs	r3, r0, #7
 80002ce:	428b      	cmp	r3, r1
 80002d0:	d301      	bcc.n	80002d6 <__divsi3+0xae>
 80002d2:	01cb      	lsls	r3, r1, #7
 80002d4:	1ac0      	subs	r0, r0, r3
 80002d6:	4152      	adcs	r2, r2
 80002d8:	0983      	lsrs	r3, r0, #6
 80002da:	428b      	cmp	r3, r1
 80002dc:	d301      	bcc.n	80002e2 <__divsi3+0xba>
 80002de:	018b      	lsls	r3, r1, #6
 80002e0:	1ac0      	subs	r0, r0, r3
 80002e2:	4152      	adcs	r2, r2
 80002e4:	0943      	lsrs	r3, r0, #5
 80002e6:	428b      	cmp	r3, r1
 80002e8:	d301      	bcc.n	80002ee <__divsi3+0xc6>
 80002ea:	014b      	lsls	r3, r1, #5
 80002ec:	1ac0      	subs	r0, r0, r3
 80002ee:	4152      	adcs	r2, r2
 80002f0:	0903      	lsrs	r3, r0, #4
 80002f2:	428b      	cmp	r3, r1
 80002f4:	d301      	bcc.n	80002fa <__divsi3+0xd2>
 80002f6:	010b      	lsls	r3, r1, #4
 80002f8:	1ac0      	subs	r0, r0, r3
 80002fa:	4152      	adcs	r2, r2
 80002fc:	08c3      	lsrs	r3, r0, #3
 80002fe:	428b      	cmp	r3, r1
 8000300:	d301      	bcc.n	8000306 <__divsi3+0xde>
 8000302:	00cb      	lsls	r3, r1, #3
 8000304:	1ac0      	subs	r0, r0, r3
 8000306:	4152      	adcs	r2, r2
 8000308:	0883      	lsrs	r3, r0, #2
 800030a:	428b      	cmp	r3, r1
 800030c:	d301      	bcc.n	8000312 <__divsi3+0xea>
 800030e:	008b      	lsls	r3, r1, #2
 8000310:	1ac0      	subs	r0, r0, r3
 8000312:	4152      	adcs	r2, r2
 8000314:	0843      	lsrs	r3, r0, #1
 8000316:	428b      	cmp	r3, r1
 8000318:	d301      	bcc.n	800031e <__divsi3+0xf6>
 800031a:	004b      	lsls	r3, r1, #1
 800031c:	1ac0      	subs	r0, r0, r3
 800031e:	4152      	adcs	r2, r2
 8000320:	1a41      	subs	r1, r0, r1
 8000322:	d200      	bcs.n	8000326 <__divsi3+0xfe>
 8000324:	4601      	mov	r1, r0
 8000326:	4152      	adcs	r2, r2
 8000328:	4610      	mov	r0, r2
 800032a:	4770      	bx	lr
 800032c:	e05d      	b.n	80003ea <__divsi3+0x1c2>
 800032e:	0fca      	lsrs	r2, r1, #31
 8000330:	d000      	beq.n	8000334 <__divsi3+0x10c>
 8000332:	4249      	negs	r1, r1
 8000334:	1003      	asrs	r3, r0, #32
 8000336:	d300      	bcc.n	800033a <__divsi3+0x112>
 8000338:	4240      	negs	r0, r0
 800033a:	4053      	eors	r3, r2
 800033c:	2200      	movs	r2, #0
 800033e:	469c      	mov	ip, r3
 8000340:	0903      	lsrs	r3, r0, #4
 8000342:	428b      	cmp	r3, r1
 8000344:	d32d      	bcc.n	80003a2 <__divsi3+0x17a>
 8000346:	0a03      	lsrs	r3, r0, #8
 8000348:	428b      	cmp	r3, r1
 800034a:	d312      	bcc.n	8000372 <__divsi3+0x14a>
 800034c:	22fc      	movs	r2, #252	@ 0xfc
 800034e:	0189      	lsls	r1, r1, #6
 8000350:	ba12      	rev	r2, r2
 8000352:	0a03      	lsrs	r3, r0, #8
 8000354:	428b      	cmp	r3, r1
 8000356:	d30c      	bcc.n	8000372 <__divsi3+0x14a>
 8000358:	0189      	lsls	r1, r1, #6
 800035a:	1192      	asrs	r2, r2, #6
 800035c:	428b      	cmp	r3, r1
 800035e:	d308      	bcc.n	8000372 <__divsi3+0x14a>
 8000360:	0189      	lsls	r1, r1, #6
 8000362:	1192      	asrs	r2, r2, #6
 8000364:	428b      	cmp	r3, r1
 8000366:	d304      	bcc.n	8000372 <__divsi3+0x14a>
 8000368:	0189      	lsls	r1, r1, #6
 800036a:	d03a      	beq.n	80003e2 <__divsi3+0x1ba>
 800036c:	1192      	asrs	r2, r2, #6
 800036e:	e000      	b.n	8000372 <__divsi3+0x14a>
 8000370:	0989      	lsrs	r1, r1, #6
 8000372:	09c3      	lsrs	r3, r0, #7
 8000374:	428b      	cmp	r3, r1
 8000376:	d301      	bcc.n	800037c <__divsi3+0x154>
 8000378:	01cb      	lsls	r3, r1, #7
 800037a:	1ac0      	subs	r0, r0, r3
 800037c:	4152      	adcs	r2, r2
 800037e:	0983      	lsrs	r3, r0, #6
 8000380:	428b      	cmp	r3, r1
 8000382:	d301      	bcc.n	8000388 <__divsi3+0x160>
 8000384:	018b      	lsls	r3, r1, #6
 8000386:	1ac0      	subs	r0, r0, r3
 8000388:	4152      	adcs	r2, r2
 800038a:	0943      	lsrs	r3, r0, #5
 800038c:	428b      	cmp	r3, r1
 800038e:	d301      	bcc.n	8000394 <__divsi3+0x16c>
 8000390:	014b      	lsls	r3, r1, #5
 8000392:	1ac0      	subs	r0, r0, r3
 8000394:	4152      	adcs	r2, r2
 8000396:	0903      	lsrs	r3, r0, #4
 8000398:	428b      	cmp	r3, r1
 800039a:	d301      	bcc.n	80003a0 <__divsi3+0x178>
 800039c:	010b      	lsls	r3, r1, #4
 800039e:	1ac0      	subs	r0, r0, r3
 80003a0:	4152      	adcs	r2, r2
 80003a2:	08c3      	lsrs	r3, r0, #3
 80003a4:	428b      	cmp	r3, r1
 80003a6:	d301      	bcc.n	80003ac <__divsi3+0x184>
 80003a8:	00cb      	lsls	r3, r1, #3
 80003aa:	1ac0      	subs	r0, r0, r3
 80003ac:	4152      	adcs	r2, r2
 80003ae:	0883      	lsrs	r3, r0, #2
 80003b0:	428b      	cmp	r3, r1
 80003b2:	d301      	bcc.n	80003b8 <__divsi3+0x190>
 80003b4:	008b      	lsls	r3, r1, #2
 80003b6:	1ac0      	subs	r0, r0, r3
 80003b8:	4152      	adcs	r2, r2
 80003ba:	d2d9      	bcs.n	8000370 <__divsi3+0x148>
 80003bc:	0843      	lsrs	r3, r0, #1
 80003be:	428b      	cmp	r3, r1
 80003c0:	d301      	bcc.n	80003c6 <__divsi3+0x19e>
 80003c2:	004b      	lsls	r3, r1, #1
 80003c4:	1ac0      	subs	r0, r0, r3
 80003c6:	4152      	adcs	r2, r2
 80003c8:	1a41      	subs	r1, r0, r1
 80003ca:	d200      	bcs.n	80003ce <__divsi3+0x1a6>
 80003cc:	4601      	mov	r1, r0
 80003ce:	4663      	mov	r3, ip
 80003d0:	4152      	adcs	r2, r2
 80003d2:	105b      	asrs	r3, r3, #1
 80003d4:	4610      	mov	r0, r2
 80003d6:	d301      	bcc.n	80003dc <__divsi3+0x1b4>
 80003d8:	4240      	negs	r0, r0
 80003da:	2b00      	cmp	r3, #0
 80003dc:	d500      	bpl.n	80003e0 <__divsi3+0x1b8>
 80003de:	4249      	negs	r1, r1
 80003e0:	4770      	bx	lr
 80003e2:	4663      	mov	r3, ip
 80003e4:	105b      	asrs	r3, r3, #1
 80003e6:	d300      	bcc.n	80003ea <__divsi3+0x1c2>
 80003e8:	4240      	negs	r0, r0
 80003ea:	b501      	push	{r0, lr}
 80003ec:	2000      	movs	r0, #0
 80003ee:	f000 f805 	bl	80003fc <__aeabi_idiv0>
 80003f2:	bd02      	pop	{r1, pc}

080003f4 <__aeabi_idivmod>:
 80003f4:	2900      	cmp	r1, #0
 80003f6:	d0f8      	beq.n	80003ea <__divsi3+0x1c2>
 80003f8:	e716      	b.n	8000228 <__divsi3>
 80003fa:	4770      	bx	lr

080003fc <__aeabi_idiv0>:
 80003fc:	4770      	bx	lr
 80003fe:	46c0      	nop			@ (mov r8, r8)

08000400 <__aeabi_f2uiz>:
 8000400:	219e      	movs	r1, #158	@ 0x9e
 8000402:	b510      	push	{r4, lr}
 8000404:	05c9      	lsls	r1, r1, #23
 8000406:	1c04      	adds	r4, r0, #0
 8000408:	f000 fc70 	bl	8000cec <__aeabi_fcmpge>
 800040c:	2800      	cmp	r0, #0
 800040e:	d103      	bne.n	8000418 <__aeabi_f2uiz+0x18>
 8000410:	1c20      	adds	r0, r4, #0
 8000412:	f000 fbcb 	bl	8000bac <__aeabi_f2iz>
 8000416:	bd10      	pop	{r4, pc}
 8000418:	219e      	movs	r1, #158	@ 0x9e
 800041a:	1c20      	adds	r0, r4, #0
 800041c:	05c9      	lsls	r1, r1, #23
 800041e:	f000 f961 	bl	80006e4 <__aeabi_fsub>
 8000422:	f000 fbc3 	bl	8000bac <__aeabi_f2iz>
 8000426:	2380      	movs	r3, #128	@ 0x80
 8000428:	061b      	lsls	r3, r3, #24
 800042a:	469c      	mov	ip, r3
 800042c:	4460      	add	r0, ip
 800042e:	e7f2      	b.n	8000416 <__aeabi_f2uiz+0x16>

08000430 <__aeabi_fmul>:
 8000430:	b5f0      	push	{r4, r5, r6, r7, lr}
 8000432:	464f      	mov	r7, r9
 8000434:	4646      	mov	r6, r8
 8000436:	46d6      	mov	lr, sl
 8000438:	0044      	lsls	r4, r0, #1
 800043a:	b5c0      	push	{r6, r7, lr}
 800043c:	0246      	lsls	r6, r0, #9
 800043e:	1c0f      	adds	r7, r1, #0
 8000440:	0a76      	lsrs	r6, r6, #9
 8000442:	0e24      	lsrs	r4, r4, #24
 8000444:	0fc5      	lsrs	r5, r0, #31
 8000446:	2c00      	cmp	r4, #0
 8000448:	d100      	bne.n	800044c <__aeabi_fmul+0x1c>
 800044a:	e0da      	b.n	8000602 <__aeabi_fmul+0x1d2>
 800044c:	2cff      	cmp	r4, #255	@ 0xff
 800044e:	d074      	beq.n	800053a <__aeabi_fmul+0x10a>
 8000450:	2380      	movs	r3, #128	@ 0x80
 8000452:	00f6      	lsls	r6, r6, #3
 8000454:	04db      	lsls	r3, r3, #19
 8000456:	431e      	orrs	r6, r3
 8000458:	2300      	movs	r3, #0
 800045a:	4699      	mov	r9, r3
 800045c:	469a      	mov	sl, r3
 800045e:	3c7f      	subs	r4, #127	@ 0x7f
 8000460:	027b      	lsls	r3, r7, #9
 8000462:	0a5b      	lsrs	r3, r3, #9
 8000464:	4698      	mov	r8, r3
 8000466:	007b      	lsls	r3, r7, #1
 8000468:	0e1b      	lsrs	r3, r3, #24
 800046a:	0fff      	lsrs	r7, r7, #31
 800046c:	2b00      	cmp	r3, #0
 800046e:	d074      	beq.n	800055a <__aeabi_fmul+0x12a>
 8000470:	2bff      	cmp	r3, #255	@ 0xff
 8000472:	d100      	bne.n	8000476 <__aeabi_fmul+0x46>
 8000474:	e08e      	b.n	8000594 <__aeabi_fmul+0x164>
 8000476:	4642      	mov	r2, r8
 8000478:	2180      	movs	r1, #128	@ 0x80
 800047a:	00d2      	lsls	r2, r2, #3
 800047c:	04c9      	lsls	r1, r1, #19
 800047e:	4311      	orrs	r1, r2
 8000480:	3b7f      	subs	r3, #127	@ 0x7f
 8000482:	002a      	movs	r2, r5
 8000484:	18e4      	adds	r4, r4, r3
 8000486:	464b      	mov	r3, r9
 8000488:	407a      	eors	r2, r7
 800048a:	4688      	mov	r8, r1
 800048c:	b2d2      	uxtb	r2, r2
 800048e:	2b0a      	cmp	r3, #10
 8000490:	dc75      	bgt.n	800057e <__aeabi_fmul+0x14e>
 8000492:	464b      	mov	r3, r9
 8000494:	2000      	movs	r0, #0
 8000496:	2b02      	cmp	r3, #2
 8000498:	dd0f      	ble.n	80004ba <__aeabi_fmul+0x8a>
 800049a:	4649      	mov	r1, r9
 800049c:	2301      	movs	r3, #1
 800049e:	408b      	lsls	r3, r1
 80004a0:	21a6      	movs	r1, #166	@ 0xa6
 80004a2:	00c9      	lsls	r1, r1, #3
 80004a4:	420b      	tst	r3, r1
 80004a6:	d169      	bne.n	800057c <__aeabi_fmul+0x14c>
 80004a8:	2190      	movs	r1, #144	@ 0x90
 80004aa:	0089      	lsls	r1, r1, #2
 80004ac:	420b      	tst	r3, r1
 80004ae:	d000      	beq.n	80004b2 <__aeabi_fmul+0x82>
 80004b0:	e100      	b.n	80006b4 <__aeabi_fmul+0x284>
 80004b2:	2188      	movs	r1, #136	@ 0x88
 80004b4:	4219      	tst	r1, r3
 80004b6:	d000      	beq.n	80004ba <__aeabi_fmul+0x8a>
 80004b8:	e0f5      	b.n	80006a6 <__aeabi_fmul+0x276>
 80004ba:	4641      	mov	r1, r8
 80004bc:	0409      	lsls	r1, r1, #16
 80004be:	0c09      	lsrs	r1, r1, #16
 80004c0:	4643      	mov	r3, r8
 80004c2:	0008      	movs	r0, r1
 80004c4:	0c35      	lsrs	r5, r6, #16
 80004c6:	0436      	lsls	r6, r6, #16
 80004c8:	0c1b      	lsrs	r3, r3, #16
 80004ca:	0c36      	lsrs	r6, r6, #16
 80004cc:	4370      	muls	r0, r6
 80004ce:	4369      	muls	r1, r5
 80004d0:	435e      	muls	r6, r3
 80004d2:	435d      	muls	r5, r3
 80004d4:	1876      	adds	r6, r6, r1
 80004d6:	0c03      	lsrs	r3, r0, #16
 80004d8:	199b      	adds	r3, r3, r6
 80004da:	4299      	cmp	r1, r3
 80004dc:	d903      	bls.n	80004e6 <__aeabi_fmul+0xb6>
 80004de:	2180      	movs	r1, #128	@ 0x80
 80004e0:	0249      	lsls	r1, r1, #9
 80004e2:	468c      	mov	ip, r1
 80004e4:	4465      	add	r5, ip
 80004e6:	0400      	lsls	r0, r0, #16
 80004e8:	0419      	lsls	r1, r3, #16
 80004ea:	0c00      	lsrs	r0, r0, #16
 80004ec:	1809      	adds	r1, r1, r0
 80004ee:	018e      	lsls	r6, r1, #6
 80004f0:	1e70      	subs	r0, r6, #1
 80004f2:	4186      	sbcs	r6, r0
 80004f4:	0c1b      	lsrs	r3, r3, #16
 80004f6:	0e89      	lsrs	r1, r1, #26
 80004f8:	195b      	adds	r3, r3, r5
 80004fa:	430e      	orrs	r6, r1
 80004fc:	019b      	lsls	r3, r3, #6
 80004fe:	431e      	orrs	r6, r3
 8000500:	011b      	lsls	r3, r3, #4
 8000502:	d46c      	bmi.n	80005de <__aeabi_fmul+0x1ae>
 8000504:	0023      	movs	r3, r4
 8000506:	337f      	adds	r3, #127	@ 0x7f
 8000508:	2b00      	cmp	r3, #0
 800050a:	dc00      	bgt.n	800050e <__aeabi_fmul+0xde>
 800050c:	e0b1      	b.n	8000672 <__aeabi_fmul+0x242>
 800050e:	0015      	movs	r5, r2
 8000510:	0771      	lsls	r1, r6, #29
 8000512:	d00b      	beq.n	800052c <__aeabi_fmul+0xfc>
 8000514:	200f      	movs	r0, #15
 8000516:	0021      	movs	r1, r4
 8000518:	4030      	ands	r0, r6
 800051a:	2804      	cmp	r0, #4
 800051c:	d006      	beq.n	800052c <__aeabi_fmul+0xfc>
 800051e:	3604      	adds	r6, #4
 8000520:	0132      	lsls	r2, r6, #4
 8000522:	d503      	bpl.n	800052c <__aeabi_fmul+0xfc>
 8000524:	4b6e      	ldr	r3, [pc, #440]	@ (80006e0 <__aeabi_fmul+0x2b0>)
 8000526:	401e      	ands	r6, r3
 8000528:	000b      	movs	r3, r1
 800052a:	3380      	adds	r3, #128	@ 0x80
 800052c:	2bfe      	cmp	r3, #254	@ 0xfe
 800052e:	dd00      	ble.n	8000532 <__aeabi_fmul+0x102>
 8000530:	e0bd      	b.n	80006ae <__aeabi_fmul+0x27e>
 8000532:	01b2      	lsls	r2, r6, #6
 8000534:	0a52      	lsrs	r2, r2, #9
 8000536:	b2db      	uxtb	r3, r3
 8000538:	e048      	b.n	80005cc <__aeabi_fmul+0x19c>
 800053a:	2e00      	cmp	r6, #0
 800053c:	d000      	beq.n	8000540 <__aeabi_fmul+0x110>
 800053e:	e092      	b.n	8000666 <__aeabi_fmul+0x236>
 8000540:	2308      	movs	r3, #8
 8000542:	4699      	mov	r9, r3
 8000544:	3b06      	subs	r3, #6
 8000546:	469a      	mov	sl, r3
 8000548:	027b      	lsls	r3, r7, #9
 800054a:	0a5b      	lsrs	r3, r3, #9
 800054c:	4698      	mov	r8, r3
 800054e:	007b      	lsls	r3, r7, #1
 8000550:	24ff      	movs	r4, #255	@ 0xff
 8000552:	0e1b      	lsrs	r3, r3, #24
 8000554:	0fff      	lsrs	r7, r7, #31
 8000556:	2b00      	cmp	r3, #0
 8000558:	d18a      	bne.n	8000470 <__aeabi_fmul+0x40>
 800055a:	4642      	mov	r2, r8
 800055c:	2a00      	cmp	r2, #0
 800055e:	d164      	bne.n	800062a <__aeabi_fmul+0x1fa>
 8000560:	4649      	mov	r1, r9
 8000562:	3201      	adds	r2, #1
 8000564:	4311      	orrs	r1, r2
 8000566:	4689      	mov	r9, r1
 8000568:	290a      	cmp	r1, #10
 800056a:	dc08      	bgt.n	800057e <__aeabi_fmul+0x14e>
 800056c:	407d      	eors	r5, r7
 800056e:	2001      	movs	r0, #1
 8000570:	b2ea      	uxtb	r2, r5
 8000572:	2902      	cmp	r1, #2
 8000574:	dc91      	bgt.n	800049a <__aeabi_fmul+0x6a>
 8000576:	0015      	movs	r5, r2
 8000578:	2200      	movs	r2, #0
 800057a:	e027      	b.n	80005cc <__aeabi_fmul+0x19c>
 800057c:	0015      	movs	r5, r2
 800057e:	4653      	mov	r3, sl
 8000580:	2b02      	cmp	r3, #2
 8000582:	d100      	bne.n	8000586 <__aeabi_fmul+0x156>
 8000584:	e093      	b.n	80006ae <__aeabi_fmul+0x27e>
 8000586:	2b03      	cmp	r3, #3
 8000588:	d01a      	beq.n	80005c0 <__aeabi_fmul+0x190>
 800058a:	2b01      	cmp	r3, #1
 800058c:	d12c      	bne.n	80005e8 <__aeabi_fmul+0x1b8>
 800058e:	2300      	movs	r3, #0
 8000590:	2200      	movs	r2, #0
 8000592:	e01b      	b.n	80005cc <__aeabi_fmul+0x19c>
 8000594:	4643      	mov	r3, r8
 8000596:	34ff      	adds	r4, #255	@ 0xff
 8000598:	2b00      	cmp	r3, #0
 800059a:	d055      	beq.n	8000648 <__aeabi_fmul+0x218>
 800059c:	2103      	movs	r1, #3
 800059e:	464b      	mov	r3, r9
 80005a0:	430b      	orrs	r3, r1
 80005a2:	0019      	movs	r1, r3
 80005a4:	2b0a      	cmp	r3, #10
 80005a6:	dc00      	bgt.n	80005aa <__aeabi_fmul+0x17a>
 80005a8:	e092      	b.n	80006d0 <__aeabi_fmul+0x2a0>
 80005aa:	2b0f      	cmp	r3, #15
 80005ac:	d000      	beq.n	80005b0 <__aeabi_fmul+0x180>
 80005ae:	e08c      	b.n	80006ca <__aeabi_fmul+0x29a>
 80005b0:	2280      	movs	r2, #128	@ 0x80
 80005b2:	03d2      	lsls	r2, r2, #15
 80005b4:	4216      	tst	r6, r2
 80005b6:	d003      	beq.n	80005c0 <__aeabi_fmul+0x190>
 80005b8:	4643      	mov	r3, r8
 80005ba:	4213      	tst	r3, r2
 80005bc:	d100      	bne.n	80005c0 <__aeabi_fmul+0x190>
 80005be:	e07d      	b.n	80006bc <__aeabi_fmul+0x28c>
 80005c0:	2280      	movs	r2, #128	@ 0x80
 80005c2:	03d2      	lsls	r2, r2, #15
 80005c4:	4332      	orrs	r2, r6
 80005c6:	0252      	lsls	r2, r2, #9
 80005c8:	0a52      	lsrs	r2, r2, #9
 80005ca:	23ff      	movs	r3, #255	@ 0xff
 80005cc:	05d8      	lsls	r0, r3, #23
 80005ce:	07ed      	lsls	r5, r5, #31
 80005d0:	4310      	orrs	r0, r2
 80005d2:	4328      	orrs	r0, r5
 80005d4:	bce0      	pop	{r5, r6, r7}
 80005d6:	46ba      	mov	sl, r7
 80005d8:	46b1      	mov	r9, r6
 80005da:	46a8      	mov	r8, r5
 80005dc:	bdf0      	pop	{r4, r5, r6, r7, pc}
 80005de:	2301      	movs	r3, #1
 80005e0:	0015      	movs	r5, r2
 80005e2:	0871      	lsrs	r1, r6, #1
 80005e4:	401e      	ands	r6, r3
 80005e6:	430e      	orrs	r6, r1
 80005e8:	0023      	movs	r3, r4
 80005ea:	3380      	adds	r3, #128	@ 0x80
 80005ec:	1c61      	adds	r1, r4, #1
 80005ee:	2b00      	cmp	r3, #0
 80005f0:	dd41      	ble.n	8000676 <__aeabi_fmul+0x246>
 80005f2:	0772      	lsls	r2, r6, #29
 80005f4:	d094      	beq.n	8000520 <__aeabi_fmul+0xf0>
 80005f6:	220f      	movs	r2, #15
 80005f8:	4032      	ands	r2, r6
 80005fa:	2a04      	cmp	r2, #4
 80005fc:	d000      	beq.n	8000600 <__aeabi_fmul+0x1d0>
 80005fe:	e78e      	b.n	800051e <__aeabi_fmul+0xee>
 8000600:	e78e      	b.n	8000520 <__aeabi_fmul+0xf0>
 8000602:	2e00      	cmp	r6, #0
 8000604:	d105      	bne.n	8000612 <__aeabi_fmul+0x1e2>
 8000606:	2304      	movs	r3, #4
 8000608:	4699      	mov	r9, r3
 800060a:	3b03      	subs	r3, #3
 800060c:	2400      	movs	r4, #0
 800060e:	469a      	mov	sl, r3
 8000610:	e726      	b.n	8000460 <__aeabi_fmul+0x30>
 8000612:	0030      	movs	r0, r6
 8000614:	f000 fb74 	bl	8000d00 <__clzsi2>
 8000618:	2476      	movs	r4, #118	@ 0x76
 800061a:	1f43      	subs	r3, r0, #5
 800061c:	409e      	lsls	r6, r3
 800061e:	2300      	movs	r3, #0
 8000620:	4264      	negs	r4, r4
 8000622:	4699      	mov	r9, r3
 8000624:	469a      	mov	sl, r3
 8000626:	1a24      	subs	r4, r4, r0
 8000628:	e71a      	b.n	8000460 <__aeabi_fmul+0x30>
 800062a:	4640      	mov	r0, r8
 800062c:	f000 fb68 	bl	8000d00 <__clzsi2>
 8000630:	464b      	mov	r3, r9
 8000632:	1a24      	subs	r4, r4, r0
 8000634:	3c76      	subs	r4, #118	@ 0x76
 8000636:	2b0a      	cmp	r3, #10
 8000638:	dca1      	bgt.n	800057e <__aeabi_fmul+0x14e>
 800063a:	4643      	mov	r3, r8
 800063c:	3805      	subs	r0, #5
 800063e:	4083      	lsls	r3, r0
 8000640:	407d      	eors	r5, r7
 8000642:	4698      	mov	r8, r3
 8000644:	b2ea      	uxtb	r2, r5
 8000646:	e724      	b.n	8000492 <__aeabi_fmul+0x62>
 8000648:	464a      	mov	r2, r9
 800064a:	3302      	adds	r3, #2
 800064c:	4313      	orrs	r3, r2
 800064e:	002a      	movs	r2, r5
 8000650:	407a      	eors	r2, r7
 8000652:	b2d2      	uxtb	r2, r2
 8000654:	2b0a      	cmp	r3, #10
 8000656:	dc92      	bgt.n	800057e <__aeabi_fmul+0x14e>
 8000658:	4649      	mov	r1, r9
 800065a:	0015      	movs	r5, r2
 800065c:	2900      	cmp	r1, #0
 800065e:	d026      	beq.n	80006ae <__aeabi_fmul+0x27e>
 8000660:	4699      	mov	r9, r3
 8000662:	2002      	movs	r0, #2
 8000664:	e719      	b.n	800049a <__aeabi_fmul+0x6a>
 8000666:	230c      	movs	r3, #12
 8000668:	4699      	mov	r9, r3
 800066a:	3b09      	subs	r3, #9
 800066c:	24ff      	movs	r4, #255	@ 0xff
 800066e:	469a      	mov	sl, r3
 8000670:	e6f6      	b.n	8000460 <__aeabi_fmul+0x30>
 8000672:	0015      	movs	r5, r2
 8000674:	0021      	movs	r1, r4
 8000676:	2201      	movs	r2, #1
 8000678:	1ad3      	subs	r3, r2, r3
 800067a:	2b1b      	cmp	r3, #27
 800067c:	dd00      	ble.n	8000680 <__aeabi_fmul+0x250>
 800067e:	e786      	b.n	800058e <__aeabi_fmul+0x15e>
 8000680:	319e      	adds	r1, #158	@ 0x9e
 8000682:	0032      	movs	r2, r6
 8000684:	408e      	lsls	r6, r1
 8000686:	40da      	lsrs	r2, r3
 8000688:	1e73      	subs	r3, r6, #1
 800068a:	419e      	sbcs	r6, r3
 800068c:	4332      	orrs	r2, r6
 800068e:	0753      	lsls	r3, r2, #29
 8000690:	d004      	beq.n	800069c <__aeabi_fmul+0x26c>
 8000692:	230f      	movs	r3, #15
 8000694:	4013      	ands	r3, r2
 8000696:	2b04      	cmp	r3, #4
 8000698:	d000      	beq.n	800069c <__aeabi_fmul+0x26c>
 800069a:	3204      	adds	r2, #4
 800069c:	0153      	lsls	r3, r2, #5
 800069e:	d510      	bpl.n	80006c2 <__aeabi_fmul+0x292>
 80006a0:	2301      	movs	r3, #1
 80006a2:	2200      	movs	r2, #0
 80006a4:	e792      	b.n	80005cc <__aeabi_fmul+0x19c>
 80006a6:	003d      	movs	r5, r7
 80006a8:	4646      	mov	r6, r8
 80006aa:	4682      	mov	sl, r0
 80006ac:	e767      	b.n	800057e <__aeabi_fmul+0x14e>
 80006ae:	23ff      	movs	r3, #255	@ 0xff
 80006b0:	2200      	movs	r2, #0
 80006b2:	e78b      	b.n	80005cc <__aeabi_fmul+0x19c>
 80006b4:	2280      	movs	r2, #128	@ 0x80
 80006b6:	2500      	movs	r5, #0
 80006b8:	03d2      	lsls	r2, r2, #15
 80006ba:	e786      	b.n	80005ca <__aeabi_fmul+0x19a>
 80006bc:	003d      	movs	r5, r7
 80006be:	431a      	orrs	r2, r3
 80006c0:	e783      	b.n	80005ca <__aeabi_fmul+0x19a>
 80006c2:	0192      	lsls	r2, r2, #6
 80006c4:	2300      	movs	r3, #0
 80006c6:	0a52      	lsrs	r2, r2, #9
 80006c8:	e780      	b.n	80005cc <__aeabi_fmul+0x19c>
 80006ca:	003d      	movs	r5, r7
 80006cc:	4646      	mov	r6, r8
 80006ce:	e777      	b.n	80005c0 <__aeabi_fmul+0x190>
 80006d0:	002a      	movs	r2, r5
 80006d2:	2301      	movs	r3, #1
 80006d4:	407a      	eors	r2, r7
 80006d6:	408b      	lsls	r3, r1
 80006d8:	2003      	movs	r0, #3
 80006da:	b2d2      	uxtb	r2, r2
 80006dc:	e6e9      	b.n	80004b2 <__aeabi_fmul+0x82>
 80006de:	46c0      	nop			@ (mov r8, r8)
 80006e0:	f7ffffff 	.word	0xf7ffffff

080006e4 <__aeabi_fsub>:
 80006e4:	b5f8      	push	{r3, r4, r5, r6, r7, lr}
 80006e6:	4647      	mov	r7, r8
 80006e8:	46ce      	mov	lr, r9
 80006ea:	0243      	lsls	r3, r0, #9
 80006ec:	b580      	push	{r7, lr}
 80006ee:	0a5f      	lsrs	r7, r3, #9
 80006f0:	099b      	lsrs	r3, r3, #6
 80006f2:	0045      	lsls	r5, r0, #1
 80006f4:	004a      	lsls	r2, r1, #1
 80006f6:	469c      	mov	ip, r3
 80006f8:	024b      	lsls	r3, r1, #9
 80006fa:	0fc4      	lsrs	r4, r0, #31
 80006fc:	0fce      	lsrs	r6, r1, #31
 80006fe:	0e2d      	lsrs	r5, r5, #24
 8000700:	0a58      	lsrs	r0, r3, #9
 8000702:	0e12      	lsrs	r2, r2, #24
 8000704:	0999      	lsrs	r1, r3, #6
 8000706:	2aff      	cmp	r2, #255	@ 0xff
 8000708:	d06b      	beq.n	80007e2 <__aeabi_fsub+0xfe>
 800070a:	2301      	movs	r3, #1
 800070c:	405e      	eors	r6, r3
 800070e:	1aab      	subs	r3, r5, r2
 8000710:	42b4      	cmp	r4, r6
 8000712:	d04b      	beq.n	80007ac <__aeabi_fsub+0xc8>
 8000714:	2b00      	cmp	r3, #0
 8000716:	dc00      	bgt.n	800071a <__aeabi_fsub+0x36>
 8000718:	e0ff      	b.n	800091a <__aeabi_fsub+0x236>
 800071a:	2a00      	cmp	r2, #0
 800071c:	d100      	bne.n	8000720 <__aeabi_fsub+0x3c>
 800071e:	e088      	b.n	8000832 <__aeabi_fsub+0x14e>
 8000720:	2dff      	cmp	r5, #255	@ 0xff
 8000722:	d100      	bne.n	8000726 <__aeabi_fsub+0x42>
 8000724:	e0ef      	b.n	8000906 <__aeabi_fsub+0x222>
 8000726:	2280      	movs	r2, #128	@ 0x80
 8000728:	04d2      	lsls	r2, r2, #19
 800072a:	4311      	orrs	r1, r2
 800072c:	2001      	movs	r0, #1
 800072e:	2b1b      	cmp	r3, #27
 8000730:	dc08      	bgt.n	8000744 <__aeabi_fsub+0x60>
 8000732:	0008      	movs	r0, r1
 8000734:	2220      	movs	r2, #32
 8000736:	40d8      	lsrs	r0, r3
 8000738:	1ad3      	subs	r3, r2, r3
 800073a:	4099      	lsls	r1, r3
 800073c:	000b      	movs	r3, r1
 800073e:	1e5a      	subs	r2, r3, #1
 8000740:	4193      	sbcs	r3, r2
 8000742:	4318      	orrs	r0, r3
 8000744:	4663      	mov	r3, ip
 8000746:	1a1b      	subs	r3, r3, r0
 8000748:	469c      	mov	ip, r3
 800074a:	4663      	mov	r3, ip
 800074c:	015b      	lsls	r3, r3, #5
 800074e:	d400      	bmi.n	8000752 <__aeabi_fsub+0x6e>
 8000750:	e0cd      	b.n	80008ee <__aeabi_fsub+0x20a>
 8000752:	4663      	mov	r3, ip
 8000754:	019f      	lsls	r7, r3, #6
 8000756:	09bf      	lsrs	r7, r7, #6
 8000758:	0038      	movs	r0, r7
 800075a:	f000 fad1 	bl	8000d00 <__clzsi2>
 800075e:	003b      	movs	r3, r7
 8000760:	3805      	subs	r0, #5
 8000762:	4083      	lsls	r3, r0
 8000764:	4285      	cmp	r5, r0
 8000766:	dc00      	bgt.n	800076a <__aeabi_fsub+0x86>
 8000768:	e0a2      	b.n	80008b0 <__aeabi_fsub+0x1cc>
 800076a:	4ab7      	ldr	r2, [pc, #732]	@ (8000a48 <__aeabi_fsub+0x364>)
 800076c:	1a2d      	subs	r5, r5, r0
 800076e:	401a      	ands	r2, r3
 8000770:	4694      	mov	ip, r2
 8000772:	075a      	lsls	r2, r3, #29
 8000774:	d100      	bne.n	8000778 <__aeabi_fsub+0x94>
 8000776:	e0c3      	b.n	8000900 <__aeabi_fsub+0x21c>
 8000778:	220f      	movs	r2, #15
 800077a:	4013      	ands	r3, r2
 800077c:	2b04      	cmp	r3, #4
 800077e:	d100      	bne.n	8000782 <__aeabi_fsub+0x9e>
 8000780:	e0be      	b.n	8000900 <__aeabi_fsub+0x21c>
 8000782:	2304      	movs	r3, #4
 8000784:	4698      	mov	r8, r3
 8000786:	44c4      	add	ip, r8
 8000788:	4663      	mov	r3, ip
 800078a:	015b      	lsls	r3, r3, #5
 800078c:	d400      	bmi.n	8000790 <__aeabi_fsub+0xac>
 800078e:	e0b7      	b.n	8000900 <__aeabi_fsub+0x21c>
 8000790:	1c68      	adds	r0, r5, #1
 8000792:	2dfe      	cmp	r5, #254	@ 0xfe
 8000794:	d000      	beq.n	8000798 <__aeabi_fsub+0xb4>
 8000796:	e0a5      	b.n	80008e4 <__aeabi_fsub+0x200>
 8000798:	20ff      	movs	r0, #255	@ 0xff
 800079a:	2200      	movs	r2, #0
 800079c:	05c0      	lsls	r0, r0, #23
 800079e:	4310      	orrs	r0, r2
 80007a0:	07e4      	lsls	r4, r4, #31
 80007a2:	4320      	orrs	r0, r4
 80007a4:	bcc0      	pop	{r6, r7}
 80007a6:	46b9      	mov	r9, r7
 80007a8:	46b0      	mov	r8, r6
 80007aa:	bdf8      	pop	{r3, r4, r5, r6, r7, pc}
 80007ac:	2b00      	cmp	r3, #0
 80007ae:	dc00      	bgt.n	80007b2 <__aeabi_fsub+0xce>
 80007b0:	e1eb      	b.n	8000b8a <__aeabi_fsub+0x4a6>
 80007b2:	2a00      	cmp	r2, #0
 80007b4:	d046      	beq.n	8000844 <__aeabi_fsub+0x160>
 80007b6:	2dff      	cmp	r5, #255	@ 0xff
 80007b8:	d100      	bne.n	80007bc <__aeabi_fsub+0xd8>
 80007ba:	e0a4      	b.n	8000906 <__aeabi_fsub+0x222>
 80007bc:	2280      	movs	r2, #128	@ 0x80
 80007be:	04d2      	lsls	r2, r2, #19
 80007c0:	4311      	orrs	r1, r2
 80007c2:	2b1b      	cmp	r3, #27
 80007c4:	dc00      	bgt.n	80007c8 <__aeabi_fsub+0xe4>
 80007c6:	e0fb      	b.n	80009c0 <__aeabi_fsub+0x2dc>
 80007c8:	2305      	movs	r3, #5
 80007ca:	4698      	mov	r8, r3
 80007cc:	002b      	movs	r3, r5
 80007ce:	44c4      	add	ip, r8
 80007d0:	4662      	mov	r2, ip
 80007d2:	08d7      	lsrs	r7, r2, #3
 80007d4:	2bff      	cmp	r3, #255	@ 0xff
 80007d6:	d100      	bne.n	80007da <__aeabi_fsub+0xf6>
 80007d8:	e095      	b.n	8000906 <__aeabi_fsub+0x222>
 80007da:	027a      	lsls	r2, r7, #9
 80007dc:	0a52      	lsrs	r2, r2, #9
 80007de:	b2d8      	uxtb	r0, r3
 80007e0:	e7dc      	b.n	800079c <__aeabi_fsub+0xb8>
 80007e2:	002b      	movs	r3, r5
 80007e4:	3bff      	subs	r3, #255	@ 0xff
 80007e6:	4699      	mov	r9, r3
 80007e8:	2900      	cmp	r1, #0
 80007ea:	d118      	bne.n	800081e <__aeabi_fsub+0x13a>
 80007ec:	2301      	movs	r3, #1
 80007ee:	405e      	eors	r6, r3
 80007f0:	42b4      	cmp	r4, r6
 80007f2:	d100      	bne.n	80007f6 <__aeabi_fsub+0x112>
 80007f4:	e0ca      	b.n	800098c <__aeabi_fsub+0x2a8>
 80007f6:	464b      	mov	r3, r9
 80007f8:	2b00      	cmp	r3, #0
 80007fa:	d02d      	beq.n	8000858 <__aeabi_fsub+0x174>
 80007fc:	2d00      	cmp	r5, #0
 80007fe:	d000      	beq.n	8000802 <__aeabi_fsub+0x11e>
 8000800:	e13c      	b.n	8000a7c <__aeabi_fsub+0x398>
 8000802:	23ff      	movs	r3, #255	@ 0xff
 8000804:	4664      	mov	r4, ip
 8000806:	2c00      	cmp	r4, #0
 8000808:	d100      	bne.n	800080c <__aeabi_fsub+0x128>
 800080a:	e15f      	b.n	8000acc <__aeabi_fsub+0x3e8>
 800080c:	1e5d      	subs	r5, r3, #1
 800080e:	2b01      	cmp	r3, #1
 8000810:	d100      	bne.n	8000814 <__aeabi_fsub+0x130>
 8000812:	e174      	b.n	8000afe <__aeabi_fsub+0x41a>
 8000814:	0034      	movs	r4, r6
 8000816:	2bff      	cmp	r3, #255	@ 0xff
 8000818:	d074      	beq.n	8000904 <__aeabi_fsub+0x220>
 800081a:	002b      	movs	r3, r5
 800081c:	e103      	b.n	8000a26 <__aeabi_fsub+0x342>
 800081e:	42b4      	cmp	r4, r6
 8000820:	d100      	bne.n	8000824 <__aeabi_fsub+0x140>
 8000822:	e09c      	b.n	800095e <__aeabi_fsub+0x27a>
 8000824:	2b00      	cmp	r3, #0
 8000826:	d017      	beq.n	8000858 <__aeabi_fsub+0x174>
 8000828:	2d00      	cmp	r5, #0
 800082a:	d0ea      	beq.n	8000802 <__aeabi_fsub+0x11e>
 800082c:	0007      	movs	r7, r0
 800082e:	0034      	movs	r4, r6
 8000830:	e06c      	b.n	800090c <__aeabi_fsub+0x228>
 8000832:	2900      	cmp	r1, #0
 8000834:	d0cc      	beq.n	80007d0 <__aeabi_fsub+0xec>
 8000836:	1e5a      	subs	r2, r3, #1
 8000838:	2b01      	cmp	r3, #1
 800083a:	d02b      	beq.n	8000894 <__aeabi_fsub+0x1b0>
 800083c:	2bff      	cmp	r3, #255	@ 0xff
 800083e:	d062      	beq.n	8000906 <__aeabi_fsub+0x222>
 8000840:	0013      	movs	r3, r2
 8000842:	e773      	b.n	800072c <__aeabi_fsub+0x48>
 8000844:	2900      	cmp	r1, #0
 8000846:	d0c3      	beq.n	80007d0 <__aeabi_fsub+0xec>
 8000848:	1e5a      	subs	r2, r3, #1
 800084a:	2b01      	cmp	r3, #1
 800084c:	d100      	bne.n	8000850 <__aeabi_fsub+0x16c>
 800084e:	e11e      	b.n	8000a8e <__aeabi_fsub+0x3aa>
 8000850:	2bff      	cmp	r3, #255	@ 0xff
 8000852:	d058      	beq.n	8000906 <__aeabi_fsub+0x222>
 8000854:	0013      	movs	r3, r2
 8000856:	e7b4      	b.n	80007c2 <__aeabi_fsub+0xde>
 8000858:	22fe      	movs	r2, #254	@ 0xfe
 800085a:	1c6b      	adds	r3, r5, #1
 800085c:	421a      	tst	r2, r3
 800085e:	d10d      	bne.n	800087c <__aeabi_fsub+0x198>
 8000860:	2d00      	cmp	r5, #0
 8000862:	d060      	beq.n	8000926 <__aeabi_fsub+0x242>
 8000864:	4663      	mov	r3, ip
 8000866:	2b00      	cmp	r3, #0
 8000868:	d000      	beq.n	800086c <__aeabi_fsub+0x188>
 800086a:	e120      	b.n	8000aae <__aeabi_fsub+0x3ca>
 800086c:	2900      	cmp	r1, #0
 800086e:	d000      	beq.n	8000872 <__aeabi_fsub+0x18e>
 8000870:	e128      	b.n	8000ac4 <__aeabi_fsub+0x3e0>
 8000872:	2280      	movs	r2, #128	@ 0x80
 8000874:	2400      	movs	r4, #0
 8000876:	20ff      	movs	r0, #255	@ 0xff
 8000878:	03d2      	lsls	r2, r2, #15
 800087a:	e78f      	b.n	800079c <__aeabi_fsub+0xb8>
 800087c:	4663      	mov	r3, ip
 800087e:	1a5f      	subs	r7, r3, r1
 8000880:	017b      	lsls	r3, r7, #5
 8000882:	d500      	bpl.n	8000886 <__aeabi_fsub+0x1a2>
 8000884:	e0fe      	b.n	8000a84 <__aeabi_fsub+0x3a0>
 8000886:	2f00      	cmp	r7, #0
 8000888:	d000      	beq.n	800088c <__aeabi_fsub+0x1a8>
 800088a:	e765      	b.n	8000758 <__aeabi_fsub+0x74>
 800088c:	2400      	movs	r4, #0
 800088e:	2000      	movs	r0, #0
 8000890:	2200      	movs	r2, #0
 8000892:	e783      	b.n	800079c <__aeabi_fsub+0xb8>
 8000894:	4663      	mov	r3, ip
 8000896:	1a59      	subs	r1, r3, r1
 8000898:	014b      	lsls	r3, r1, #5
 800089a:	d400      	bmi.n	800089e <__aeabi_fsub+0x1ba>
 800089c:	e119      	b.n	8000ad2 <__aeabi_fsub+0x3ee>
 800089e:	018f      	lsls	r7, r1, #6
 80008a0:	09bf      	lsrs	r7, r7, #6
 80008a2:	0038      	movs	r0, r7
 80008a4:	f000 fa2c 	bl	8000d00 <__clzsi2>
 80008a8:	003b      	movs	r3, r7
 80008aa:	3805      	subs	r0, #5
 80008ac:	4083      	lsls	r3, r0
 80008ae:	2501      	movs	r5, #1
 80008b0:	2220      	movs	r2, #32
 80008b2:	1b40      	subs	r0, r0, r5
 80008b4:	3001      	adds	r0, #1
 80008b6:	1a12      	subs	r2, r2, r0
 80008b8:	0019      	movs	r1, r3
 80008ba:	4093      	lsls	r3, r2
 80008bc:	40c1      	lsrs	r1, r0
 80008be:	1e5a      	subs	r2, r3, #1
 80008c0:	4193      	sbcs	r3, r2
 80008c2:	4319      	orrs	r1, r3
 80008c4:	468c      	mov	ip, r1
 80008c6:	1e0b      	subs	r3, r1, #0
 80008c8:	d0e1      	beq.n	800088e <__aeabi_fsub+0x1aa>
 80008ca:	075b      	lsls	r3, r3, #29
 80008cc:	d100      	bne.n	80008d0 <__aeabi_fsub+0x1ec>
 80008ce:	e152      	b.n	8000b76 <__aeabi_fsub+0x492>
 80008d0:	230f      	movs	r3, #15
 80008d2:	2500      	movs	r5, #0
 80008d4:	400b      	ands	r3, r1
 80008d6:	2b04      	cmp	r3, #4
 80008d8:	d000      	beq.n	80008dc <__aeabi_fsub+0x1f8>
 80008da:	e752      	b.n	8000782 <__aeabi_fsub+0x9e>
 80008dc:	2001      	movs	r0, #1
 80008de:	014a      	lsls	r2, r1, #5
 80008e0:	d400      	bmi.n	80008e4 <__aeabi_fsub+0x200>
 80008e2:	e092      	b.n	8000a0a <__aeabi_fsub+0x326>
 80008e4:	b2c0      	uxtb	r0, r0
 80008e6:	4663      	mov	r3, ip
 80008e8:	019a      	lsls	r2, r3, #6
 80008ea:	0a52      	lsrs	r2, r2, #9
 80008ec:	e756      	b.n	800079c <__aeabi_fsub+0xb8>
 80008ee:	4663      	mov	r3, ip
 80008f0:	075b      	lsls	r3, r3, #29
 80008f2:	d005      	beq.n	8000900 <__aeabi_fsub+0x21c>
 80008f4:	230f      	movs	r3, #15
 80008f6:	4662      	mov	r2, ip
 80008f8:	4013      	ands	r3, r2
 80008fa:	2b04      	cmp	r3, #4
 80008fc:	d000      	beq.n	8000900 <__aeabi_fsub+0x21c>
 80008fe:	e740      	b.n	8000782 <__aeabi_fsub+0x9e>
 8000900:	002b      	movs	r3, r5
 8000902:	e765      	b.n	80007d0 <__aeabi_fsub+0xec>
 8000904:	0007      	movs	r7, r0
 8000906:	2f00      	cmp	r7, #0
 8000908:	d100      	bne.n	800090c <__aeabi_fsub+0x228>
 800090a:	e745      	b.n	8000798 <__aeabi_fsub+0xb4>
 800090c:	2280      	movs	r2, #128	@ 0x80
 800090e:	03d2      	lsls	r2, r2, #15
 8000910:	433a      	orrs	r2, r7
 8000912:	0252      	lsls	r2, r2, #9
 8000914:	20ff      	movs	r0, #255	@ 0xff
 8000916:	0a52      	lsrs	r2, r2, #9
 8000918:	e740      	b.n	800079c <__aeabi_fsub+0xb8>
 800091a:	2b00      	cmp	r3, #0
 800091c:	d179      	bne.n	8000a12 <__aeabi_fsub+0x32e>
 800091e:	22fe      	movs	r2, #254	@ 0xfe
 8000920:	1c6b      	adds	r3, r5, #1
 8000922:	421a      	tst	r2, r3
 8000924:	d1aa      	bne.n	800087c <__aeabi_fsub+0x198>
 8000926:	4663      	mov	r3, ip
 8000928:	2b00      	cmp	r3, #0
 800092a:	d100      	bne.n	800092e <__aeabi_fsub+0x24a>
 800092c:	e0f5      	b.n	8000b1a <__aeabi_fsub+0x436>
 800092e:	2900      	cmp	r1, #0
 8000930:	d100      	bne.n	8000934 <__aeabi_fsub+0x250>
 8000932:	e0d1      	b.n	8000ad8 <__aeabi_fsub+0x3f4>
 8000934:	1a5f      	subs	r7, r3, r1
 8000936:	2380      	movs	r3, #128	@ 0x80
 8000938:	04db      	lsls	r3, r3, #19
 800093a:	421f      	tst	r7, r3
 800093c:	d100      	bne.n	8000940 <__aeabi_fsub+0x25c>
 800093e:	e10e      	b.n	8000b5e <__aeabi_fsub+0x47a>
 8000940:	4662      	mov	r2, ip
 8000942:	2401      	movs	r4, #1
 8000944:	1a8a      	subs	r2, r1, r2
 8000946:	4694      	mov	ip, r2
 8000948:	2000      	movs	r0, #0
 800094a:	4034      	ands	r4, r6
 800094c:	2a00      	cmp	r2, #0
 800094e:	d100      	bne.n	8000952 <__aeabi_fsub+0x26e>
 8000950:	e724      	b.n	800079c <__aeabi_fsub+0xb8>
 8000952:	2001      	movs	r0, #1
 8000954:	421a      	tst	r2, r3
 8000956:	d1c6      	bne.n	80008e6 <__aeabi_fsub+0x202>
 8000958:	2300      	movs	r3, #0
 800095a:	08d7      	lsrs	r7, r2, #3
 800095c:	e73d      	b.n	80007da <__aeabi_fsub+0xf6>
 800095e:	2b00      	cmp	r3, #0
 8000960:	d017      	beq.n	8000992 <__aeabi_fsub+0x2ae>
 8000962:	2d00      	cmp	r5, #0
 8000964:	d000      	beq.n	8000968 <__aeabi_fsub+0x284>
 8000966:	e0af      	b.n	8000ac8 <__aeabi_fsub+0x3e4>
 8000968:	23ff      	movs	r3, #255	@ 0xff
 800096a:	4665      	mov	r5, ip
 800096c:	2d00      	cmp	r5, #0
 800096e:	d100      	bne.n	8000972 <__aeabi_fsub+0x28e>
 8000970:	e0ad      	b.n	8000ace <__aeabi_fsub+0x3ea>
 8000972:	1e5e      	subs	r6, r3, #1
 8000974:	2b01      	cmp	r3, #1
 8000976:	d100      	bne.n	800097a <__aeabi_fsub+0x296>
 8000978:	e089      	b.n	8000a8e <__aeabi_fsub+0x3aa>
 800097a:	2bff      	cmp	r3, #255	@ 0xff
 800097c:	d0c2      	beq.n	8000904 <__aeabi_fsub+0x220>
 800097e:	2e1b      	cmp	r6, #27
 8000980:	dc00      	bgt.n	8000984 <__aeabi_fsub+0x2a0>
 8000982:	e0ab      	b.n	8000adc <__aeabi_fsub+0x3f8>
 8000984:	1d4b      	adds	r3, r1, #5
 8000986:	469c      	mov	ip, r3
 8000988:	0013      	movs	r3, r2
 800098a:	e721      	b.n	80007d0 <__aeabi_fsub+0xec>
 800098c:	464b      	mov	r3, r9
 800098e:	2b00      	cmp	r3, #0
 8000990:	d170      	bne.n	8000a74 <__aeabi_fsub+0x390>
 8000992:	22fe      	movs	r2, #254	@ 0xfe
 8000994:	1c6b      	adds	r3, r5, #1
 8000996:	421a      	tst	r2, r3
 8000998:	d15e      	bne.n	8000a58 <__aeabi_fsub+0x374>
 800099a:	2d00      	cmp	r5, #0
 800099c:	d000      	beq.n	80009a0 <__aeabi_fsub+0x2bc>
 800099e:	e0c3      	b.n	8000b28 <__aeabi_fsub+0x444>
 80009a0:	4663      	mov	r3, ip
 80009a2:	2b00      	cmp	r3, #0
 80009a4:	d100      	bne.n	80009a8 <__aeabi_fsub+0x2c4>
 80009a6:	e0d0      	b.n	8000b4a <__aeabi_fsub+0x466>
 80009a8:	2900      	cmp	r1, #0
 80009aa:	d100      	bne.n	80009ae <__aeabi_fsub+0x2ca>
 80009ac:	e094      	b.n	8000ad8 <__aeabi_fsub+0x3f4>
 80009ae:	000a      	movs	r2, r1
 80009b0:	4462      	add	r2, ip
 80009b2:	0153      	lsls	r3, r2, #5
 80009b4:	d400      	bmi.n	80009b8 <__aeabi_fsub+0x2d4>
 80009b6:	e0d8      	b.n	8000b6a <__aeabi_fsub+0x486>
 80009b8:	0192      	lsls	r2, r2, #6
 80009ba:	2001      	movs	r0, #1
 80009bc:	0a52      	lsrs	r2, r2, #9
 80009be:	e6ed      	b.n	800079c <__aeabi_fsub+0xb8>
 80009c0:	0008      	movs	r0, r1
 80009c2:	2220      	movs	r2, #32
 80009c4:	40d8      	lsrs	r0, r3
 80009c6:	1ad3      	subs	r3, r2, r3
 80009c8:	4099      	lsls	r1, r3
 80009ca:	000b      	movs	r3, r1
 80009cc:	1e5a      	subs	r2, r3, #1
 80009ce:	4193      	sbcs	r3, r2
 80009d0:	4303      	orrs	r3, r0
 80009d2:	449c      	add	ip, r3
 80009d4:	4663      	mov	r3, ip
 80009d6:	015b      	lsls	r3, r3, #5
 80009d8:	d589      	bpl.n	80008ee <__aeabi_fsub+0x20a>
 80009da:	3501      	adds	r5, #1
 80009dc:	2dff      	cmp	r5, #255	@ 0xff
 80009de:	d100      	bne.n	80009e2 <__aeabi_fsub+0x2fe>
 80009e0:	e6da      	b.n	8000798 <__aeabi_fsub+0xb4>
 80009e2:	4662      	mov	r2, ip
 80009e4:	2301      	movs	r3, #1
 80009e6:	4919      	ldr	r1, [pc, #100]	@ (8000a4c <__aeabi_fsub+0x368>)
 80009e8:	4013      	ands	r3, r2
 80009ea:	0852      	lsrs	r2, r2, #1
 80009ec:	400a      	ands	r2, r1
 80009ee:	431a      	orrs	r2, r3
 80009f0:	0013      	movs	r3, r2
 80009f2:	4694      	mov	ip, r2
 80009f4:	075b      	lsls	r3, r3, #29
 80009f6:	d004      	beq.n	8000a02 <__aeabi_fsub+0x31e>
 80009f8:	230f      	movs	r3, #15
 80009fa:	4013      	ands	r3, r2
 80009fc:	2b04      	cmp	r3, #4
 80009fe:	d000      	beq.n	8000a02 <__aeabi_fsub+0x31e>
 8000a00:	e6bf      	b.n	8000782 <__aeabi_fsub+0x9e>
 8000a02:	4663      	mov	r3, ip
 8000a04:	015b      	lsls	r3, r3, #5
 8000a06:	d500      	bpl.n	8000a0a <__aeabi_fsub+0x326>
 8000a08:	e6c2      	b.n	8000790 <__aeabi_fsub+0xac>
 8000a0a:	4663      	mov	r3, ip
 8000a0c:	08df      	lsrs	r7, r3, #3
 8000a0e:	002b      	movs	r3, r5
 8000a10:	e6e3      	b.n	80007da <__aeabi_fsub+0xf6>
 8000a12:	1b53      	subs	r3, r2, r5
 8000a14:	2d00      	cmp	r5, #0
 8000a16:	d100      	bne.n	8000a1a <__aeabi_fsub+0x336>
 8000a18:	e6f4      	b.n	8000804 <__aeabi_fsub+0x120>
 8000a1a:	2080      	movs	r0, #128	@ 0x80
 8000a1c:	4664      	mov	r4, ip
 8000a1e:	04c0      	lsls	r0, r0, #19
 8000a20:	4304      	orrs	r4, r0
 8000a22:	46a4      	mov	ip, r4
 8000a24:	0034      	movs	r4, r6
 8000a26:	2001      	movs	r0, #1
 8000a28:	2b1b      	cmp	r3, #27
 8000a2a:	dc09      	bgt.n	8000a40 <__aeabi_fsub+0x35c>
 8000a2c:	2520      	movs	r5, #32
 8000a2e:	4660      	mov	r0, ip
 8000a30:	40d8      	lsrs	r0, r3
 8000a32:	1aeb      	subs	r3, r5, r3
 8000a34:	4665      	mov	r5, ip
 8000a36:	409d      	lsls	r5, r3
 8000a38:	002b      	movs	r3, r5
 8000a3a:	1e5d      	subs	r5, r3, #1
 8000a3c:	41ab      	sbcs	r3, r5
 8000a3e:	4318      	orrs	r0, r3
 8000a40:	1a0b      	subs	r3, r1, r0
 8000a42:	469c      	mov	ip, r3
 8000a44:	0015      	movs	r5, r2
 8000a46:	e680      	b.n	800074a <__aeabi_fsub+0x66>
 8000a48:	fbffffff 	.word	0xfbffffff
 8000a4c:	7dffffff 	.word	0x7dffffff
 8000a50:	22fe      	movs	r2, #254	@ 0xfe
 8000a52:	1c6b      	adds	r3, r5, #1
 8000a54:	4213      	tst	r3, r2
 8000a56:	d0a3      	beq.n	80009a0 <__aeabi_fsub+0x2bc>
 8000a58:	2bff      	cmp	r3, #255	@ 0xff
 8000a5a:	d100      	bne.n	8000a5e <__aeabi_fsub+0x37a>
 8000a5c:	e69c      	b.n	8000798 <__aeabi_fsub+0xb4>
 8000a5e:	4461      	add	r1, ip
 8000a60:	0849      	lsrs	r1, r1, #1
 8000a62:	074a      	lsls	r2, r1, #29
 8000a64:	d049      	beq.n	8000afa <__aeabi_fsub+0x416>
 8000a66:	220f      	movs	r2, #15
 8000a68:	400a      	ands	r2, r1
 8000a6a:	2a04      	cmp	r2, #4
 8000a6c:	d045      	beq.n	8000afa <__aeabi_fsub+0x416>
 8000a6e:	1d0a      	adds	r2, r1, #4
 8000a70:	4694      	mov	ip, r2
 8000a72:	e6ad      	b.n	80007d0 <__aeabi_fsub+0xec>
 8000a74:	2d00      	cmp	r5, #0
 8000a76:	d100      	bne.n	8000a7a <__aeabi_fsub+0x396>
 8000a78:	e776      	b.n	8000968 <__aeabi_fsub+0x284>
 8000a7a:	e68d      	b.n	8000798 <__aeabi_fsub+0xb4>
 8000a7c:	0034      	movs	r4, r6
 8000a7e:	20ff      	movs	r0, #255	@ 0xff
 8000a80:	2200      	movs	r2, #0
 8000a82:	e68b      	b.n	800079c <__aeabi_fsub+0xb8>
 8000a84:	4663      	mov	r3, ip
 8000a86:	2401      	movs	r4, #1
 8000a88:	1acf      	subs	r7, r1, r3
 8000a8a:	4034      	ands	r4, r6
 8000a8c:	e664      	b.n	8000758 <__aeabi_fsub+0x74>
 8000a8e:	4461      	add	r1, ip
 8000a90:	014b      	lsls	r3, r1, #5
 8000a92:	d56d      	bpl.n	8000b70 <__aeabi_fsub+0x48c>
 8000a94:	0848      	lsrs	r0, r1, #1
 8000a96:	4944      	ldr	r1, [pc, #272]	@ (8000ba8 <__aeabi_fsub+0x4c4>)
 8000a98:	4001      	ands	r1, r0
 8000a9a:	0743      	lsls	r3, r0, #29
 8000a9c:	d02c      	beq.n	8000af8 <__aeabi_fsub+0x414>
 8000a9e:	230f      	movs	r3, #15
 8000aa0:	4003      	ands	r3, r0
 8000aa2:	2b04      	cmp	r3, #4
 8000aa4:	d028      	beq.n	8000af8 <__aeabi_fsub+0x414>
 8000aa6:	1d0b      	adds	r3, r1, #4
 8000aa8:	469c      	mov	ip, r3
 8000aaa:	2302      	movs	r3, #2
 8000aac:	e690      	b.n	80007d0 <__aeabi_fsub+0xec>
 8000aae:	2900      	cmp	r1, #0
 8000ab0:	d100      	bne.n	8000ab4 <__aeabi_fsub+0x3d0>
 8000ab2:	e72b      	b.n	800090c <__aeabi_fsub+0x228>
 8000ab4:	2380      	movs	r3, #128	@ 0x80
 8000ab6:	03db      	lsls	r3, r3, #15
 8000ab8:	429f      	cmp	r7, r3
 8000aba:	d200      	bcs.n	8000abe <__aeabi_fsub+0x3da>
 8000abc:	e726      	b.n	800090c <__aeabi_fsub+0x228>
 8000abe:	4298      	cmp	r0, r3
 8000ac0:	d300      	bcc.n	8000ac4 <__aeabi_fsub+0x3e0>
 8000ac2:	e723      	b.n	800090c <__aeabi_fsub+0x228>
 8000ac4:	2401      	movs	r4, #1
 8000ac6:	4034      	ands	r4, r6
 8000ac8:	0007      	movs	r7, r0
 8000aca:	e71f      	b.n	800090c <__aeabi_fsub+0x228>
 8000acc:	0034      	movs	r4, r6
 8000ace:	468c      	mov	ip, r1
 8000ad0:	e67e      	b.n	80007d0 <__aeabi_fsub+0xec>
 8000ad2:	2301      	movs	r3, #1
 8000ad4:	08cf      	lsrs	r7, r1, #3
 8000ad6:	e680      	b.n	80007da <__aeabi_fsub+0xf6>
 8000ad8:	2300      	movs	r3, #0
 8000ada:	e67e      	b.n	80007da <__aeabi_fsub+0xf6>
 8000adc:	2020      	movs	r0, #32
 8000ade:	4665      	mov	r5, ip
 8000ae0:	1b80      	subs	r0, r0, r6
 8000ae2:	4085      	lsls	r5, r0
 8000ae4:	4663      	mov	r3, ip
 8000ae6:	0028      	movs	r0, r5
 8000ae8:	40f3      	lsrs	r3, r6
 8000aea:	1e45      	subs	r5, r0, #1
 8000aec:	41a8      	sbcs	r0, r5
 8000aee:	4303      	orrs	r3, r0
 8000af0:	469c      	mov	ip, r3
 8000af2:	0015      	movs	r5, r2
 8000af4:	448c      	add	ip, r1
 8000af6:	e76d      	b.n	80009d4 <__aeabi_fsub+0x2f0>
 8000af8:	2302      	movs	r3, #2
 8000afa:	08cf      	lsrs	r7, r1, #3
 8000afc:	e66d      	b.n	80007da <__aeabi_fsub+0xf6>
 8000afe:	1b0f      	subs	r7, r1, r4
 8000b00:	017b      	lsls	r3, r7, #5
 8000b02:	d528      	bpl.n	8000b56 <__aeabi_fsub+0x472>
 8000b04:	01bf      	lsls	r7, r7, #6
 8000b06:	09bf      	lsrs	r7, r7, #6
 8000b08:	0038      	movs	r0, r7
 8000b0a:	f000 f8f9 	bl	8000d00 <__clzsi2>
 8000b0e:	003b      	movs	r3, r7
 8000b10:	3805      	subs	r0, #5
 8000b12:	4083      	lsls	r3, r0
 8000b14:	0034      	movs	r4, r6
 8000b16:	2501      	movs	r5, #1
 8000b18:	e6ca      	b.n	80008b0 <__aeabi_fsub+0x1cc>
 8000b1a:	2900      	cmp	r1, #0
 8000b1c:	d100      	bne.n	8000b20 <__aeabi_fsub+0x43c>
 8000b1e:	e6b5      	b.n	800088c <__aeabi_fsub+0x1a8>
 8000b20:	2401      	movs	r4, #1
 8000b22:	0007      	movs	r7, r0
 8000b24:	4034      	ands	r4, r6
 8000b26:	e658      	b.n	80007da <__aeabi_fsub+0xf6>
 8000b28:	4663      	mov	r3, ip
 8000b2a:	2b00      	cmp	r3, #0
 8000b2c:	d100      	bne.n	8000b30 <__aeabi_fsub+0x44c>
 8000b2e:	e6e9      	b.n	8000904 <__aeabi_fsub+0x220>
 8000b30:	2900      	cmp	r1, #0
 8000b32:	d100      	bne.n	8000b36 <__aeabi_fsub+0x452>
 8000b34:	e6ea      	b.n	800090c <__aeabi_fsub+0x228>
 8000b36:	2380      	movs	r3, #128	@ 0x80
 8000b38:	03db      	lsls	r3, r3, #15
 8000b3a:	429f      	cmp	r7, r3
 8000b3c:	d200      	bcs.n	8000b40 <__aeabi_fsub+0x45c>
 8000b3e:	e6e5      	b.n	800090c <__aeabi_fsub+0x228>
 8000b40:	4298      	cmp	r0, r3
 8000b42:	d300      	bcc.n	8000b46 <__aeabi_fsub+0x462>
 8000b44:	e6e2      	b.n	800090c <__aeabi_fsub+0x228>
 8000b46:	0007      	movs	r7, r0
 8000b48:	e6e0      	b.n	800090c <__aeabi_fsub+0x228>
 8000b4a:	2900      	cmp	r1, #0
 8000b4c:	d100      	bne.n	8000b50 <__aeabi_fsub+0x46c>
 8000b4e:	e69e      	b.n	800088e <__aeabi_fsub+0x1aa>
 8000b50:	2300      	movs	r3, #0
 8000b52:	08cf      	lsrs	r7, r1, #3
 8000b54:	e641      	b.n	80007da <__aeabi_fsub+0xf6>
 8000b56:	0034      	movs	r4, r6
 8000b58:	2301      	movs	r3, #1
 8000b5a:	08ff      	lsrs	r7, r7, #3
 8000b5c:	e63d      	b.n	80007da <__aeabi_fsub+0xf6>
 8000b5e:	2f00      	cmp	r7, #0
 8000b60:	d100      	bne.n	8000b64 <__aeabi_fsub+0x480>
 8000b62:	e693      	b.n	800088c <__aeabi_fsub+0x1a8>
 8000b64:	2300      	movs	r3, #0
 8000b66:	08ff      	lsrs	r7, r7, #3
 8000b68:	e637      	b.n	80007da <__aeabi_fsub+0xf6>
 8000b6a:	2300      	movs	r3, #0
 8000b6c:	08d7      	lsrs	r7, r2, #3
 8000b6e:	e634      	b.n	80007da <__aeabi_fsub+0xf6>
 8000b70:	2301      	movs	r3, #1
 8000b72:	08cf      	lsrs	r7, r1, #3
 8000b74:	e631      	b.n	80007da <__aeabi_fsub+0xf6>
 8000b76:	2280      	movs	r2, #128	@ 0x80
 8000b78:	000b      	movs	r3, r1
 8000b7a:	04d2      	lsls	r2, r2, #19
 8000b7c:	2001      	movs	r0, #1
 8000b7e:	4013      	ands	r3, r2
 8000b80:	4211      	tst	r1, r2
 8000b82:	d000      	beq.n	8000b86 <__aeabi_fsub+0x4a2>
 8000b84:	e6ae      	b.n	80008e4 <__aeabi_fsub+0x200>
 8000b86:	08cf      	lsrs	r7, r1, #3
 8000b88:	e627      	b.n	80007da <__aeabi_fsub+0xf6>
 8000b8a:	2b00      	cmp	r3, #0
 8000b8c:	d100      	bne.n	8000b90 <__aeabi_fsub+0x4ac>
 8000b8e:	e75f      	b.n	8000a50 <__aeabi_fsub+0x36c>
 8000b90:	1b56      	subs	r6, r2, r5
 8000b92:	2d00      	cmp	r5, #0
 8000b94:	d101      	bne.n	8000b9a <__aeabi_fsub+0x4b6>
 8000b96:	0033      	movs	r3, r6
 8000b98:	e6e7      	b.n	800096a <__aeabi_fsub+0x286>
 8000b9a:	2380      	movs	r3, #128	@ 0x80
 8000b9c:	4660      	mov	r0, ip
 8000b9e:	04db      	lsls	r3, r3, #19
 8000ba0:	4318      	orrs	r0, r3
 8000ba2:	4684      	mov	ip, r0
 8000ba4:	e6eb      	b.n	800097e <__aeabi_fsub+0x29a>
 8000ba6:	46c0      	nop			@ (mov r8, r8)
 8000ba8:	7dffffff 	.word	0x7dffffff

08000bac <__aeabi_f2iz>:
 8000bac:	0241      	lsls	r1, r0, #9
 8000bae:	0042      	lsls	r2, r0, #1
 8000bb0:	0fc3      	lsrs	r3, r0, #31
 8000bb2:	0a49      	lsrs	r1, r1, #9
 8000bb4:	2000      	movs	r0, #0
 8000bb6:	0e12      	lsrs	r2, r2, #24
 8000bb8:	2a7e      	cmp	r2, #126	@ 0x7e
 8000bba:	dd03      	ble.n	8000bc4 <__aeabi_f2iz+0x18>
 8000bbc:	2a9d      	cmp	r2, #157	@ 0x9d
 8000bbe:	dd02      	ble.n	8000bc6 <__aeabi_f2iz+0x1a>
 8000bc0:	4a09      	ldr	r2, [pc, #36]	@ (8000be8 <__aeabi_f2iz+0x3c>)
 8000bc2:	1898      	adds	r0, r3, r2
 8000bc4:	4770      	bx	lr
 8000bc6:	2080      	movs	r0, #128	@ 0x80
 8000bc8:	0400      	lsls	r0, r0, #16
 8000bca:	4301      	orrs	r1, r0
 8000bcc:	2a95      	cmp	r2, #149	@ 0x95
 8000bce:	dc07      	bgt.n	8000be0 <__aeabi_f2iz+0x34>
 8000bd0:	2096      	movs	r0, #150	@ 0x96
 8000bd2:	1a82      	subs	r2, r0, r2
 8000bd4:	40d1      	lsrs	r1, r2
 8000bd6:	4248      	negs	r0, r1
 8000bd8:	2b00      	cmp	r3, #0
 8000bda:	d1f3      	bne.n	8000bc4 <__aeabi_f2iz+0x18>
 8000bdc:	0008      	movs	r0, r1
 8000bde:	e7f1      	b.n	8000bc4 <__aeabi_f2iz+0x18>
 8000be0:	3a96      	subs	r2, #150	@ 0x96
 8000be2:	4091      	lsls	r1, r2
 8000be4:	e7f7      	b.n	8000bd6 <__aeabi_f2iz+0x2a>
 8000be6:	46c0      	nop			@ (mov r8, r8)
 8000be8:	7fffffff 	.word	0x7fffffff

08000bec <__aeabi_i2f>:
 8000bec:	b570      	push	{r4, r5, r6, lr}
 8000bee:	2800      	cmp	r0, #0
 8000bf0:	d012      	beq.n	8000c18 <__aeabi_i2f+0x2c>
 8000bf2:	17c3      	asrs	r3, r0, #31
 8000bf4:	18c5      	adds	r5, r0, r3
 8000bf6:	405d      	eors	r5, r3
 8000bf8:	0fc4      	lsrs	r4, r0, #31
 8000bfa:	0028      	movs	r0, r5
 8000bfc:	f000 f880 	bl	8000d00 <__clzsi2>
 8000c00:	239e      	movs	r3, #158	@ 0x9e
 8000c02:	1a1b      	subs	r3, r3, r0
 8000c04:	2b96      	cmp	r3, #150	@ 0x96
 8000c06:	dc0f      	bgt.n	8000c28 <__aeabi_i2f+0x3c>
 8000c08:	2808      	cmp	r0, #8
 8000c0a:	d038      	beq.n	8000c7e <__aeabi_i2f+0x92>
 8000c0c:	3808      	subs	r0, #8
 8000c0e:	4085      	lsls	r5, r0
 8000c10:	026d      	lsls	r5, r5, #9
 8000c12:	0a6d      	lsrs	r5, r5, #9
 8000c14:	b2d8      	uxtb	r0, r3
 8000c16:	e002      	b.n	8000c1e <__aeabi_i2f+0x32>
 8000c18:	2400      	movs	r4, #0
 8000c1a:	2000      	movs	r0, #0
 8000c1c:	2500      	movs	r5, #0
 8000c1e:	05c0      	lsls	r0, r0, #23
 8000c20:	4328      	orrs	r0, r5
 8000c22:	07e4      	lsls	r4, r4, #31
 8000c24:	4320      	orrs	r0, r4
 8000c26:	bd70      	pop	{r4, r5, r6, pc}
 8000c28:	2b99      	cmp	r3, #153	@ 0x99
 8000c2a:	dc14      	bgt.n	8000c56 <__aeabi_i2f+0x6a>
 8000c2c:	1f42      	subs	r2, r0, #5
 8000c2e:	4095      	lsls	r5, r2
 8000c30:	002a      	movs	r2, r5
 8000c32:	4915      	ldr	r1, [pc, #84]	@ (8000c88 <__aeabi_i2f+0x9c>)
 8000c34:	4011      	ands	r1, r2
 8000c36:	0755      	lsls	r5, r2, #29
 8000c38:	d01c      	beq.n	8000c74 <__aeabi_i2f+0x88>
 8000c3a:	250f      	movs	r5, #15
 8000c3c:	402a      	ands	r2, r5
 8000c3e:	2a04      	cmp	r2, #4
 8000c40:	d018      	beq.n	8000c74 <__aeabi_i2f+0x88>
 8000c42:	3104      	adds	r1, #4
 8000c44:	08ca      	lsrs	r2, r1, #3
 8000c46:	0149      	lsls	r1, r1, #5
 8000c48:	d515      	bpl.n	8000c76 <__aeabi_i2f+0x8a>
 8000c4a:	239f      	movs	r3, #159	@ 0x9f
 8000c4c:	0252      	lsls	r2, r2, #9
 8000c4e:	1a18      	subs	r0, r3, r0
 8000c50:	0a55      	lsrs	r5, r2, #9
 8000c52:	b2c0      	uxtb	r0, r0
 8000c54:	e7e3      	b.n	8000c1e <__aeabi_i2f+0x32>
 8000c56:	2205      	movs	r2, #5
 8000c58:	0029      	movs	r1, r5
 8000c5a:	1a12      	subs	r2, r2, r0
 8000c5c:	40d1      	lsrs	r1, r2
 8000c5e:	0002      	movs	r2, r0
 8000c60:	321b      	adds	r2, #27
 8000c62:	4095      	lsls	r5, r2
 8000c64:	002a      	movs	r2, r5
 8000c66:	1e55      	subs	r5, r2, #1
 8000c68:	41aa      	sbcs	r2, r5
 8000c6a:	430a      	orrs	r2, r1
 8000c6c:	4906      	ldr	r1, [pc, #24]	@ (8000c88 <__aeabi_i2f+0x9c>)
 8000c6e:	4011      	ands	r1, r2
 8000c70:	0755      	lsls	r5, r2, #29
 8000c72:	d1e2      	bne.n	8000c3a <__aeabi_i2f+0x4e>
 8000c74:	08ca      	lsrs	r2, r1, #3
 8000c76:	0252      	lsls	r2, r2, #9
 8000c78:	0a55      	lsrs	r5, r2, #9
 8000c7a:	b2d8      	uxtb	r0, r3
 8000c7c:	e7cf      	b.n	8000c1e <__aeabi_i2f+0x32>
 8000c7e:	026d      	lsls	r5, r5, #9
 8000c80:	0a6d      	lsrs	r5, r5, #9
 8000c82:	308e      	adds	r0, #142	@ 0x8e
 8000c84:	e7cb      	b.n	8000c1e <__aeabi_i2f+0x32>
 8000c86:	46c0      	nop			@ (mov r8, r8)
 8000c88:	fbffffff 	.word	0xfbffffff

08000c8c <__aeabi_cfrcmple>:
 8000c8c:	4684      	mov	ip, r0
 8000c8e:	0008      	movs	r0, r1
 8000c90:	4661      	mov	r1, ip
 8000c92:	e7ff      	b.n	8000c94 <__aeabi_cfcmpeq>

08000c94 <__aeabi_cfcmpeq>:
 8000c94:	b51f      	push	{r0, r1, r2, r3, r4, lr}
 8000c96:	f000 f8c1 	bl	8000e1c <__lesf2>
 8000c9a:	2800      	cmp	r0, #0
 8000c9c:	d401      	bmi.n	8000ca2 <__aeabi_cfcmpeq+0xe>
 8000c9e:	2100      	movs	r1, #0
 8000ca0:	42c8      	cmn	r0, r1
 8000ca2:	bd1f      	pop	{r0, r1, r2, r3, r4, pc}

08000ca4 <__aeabi_fcmpeq>:
 8000ca4:	b510      	push	{r4, lr}
 8000ca6:	f000 f849 	bl	8000d3c <__eqsf2>
 8000caa:	4240      	negs	r0, r0
 8000cac:	3001      	adds	r0, #1
 8000cae:	bd10      	pop	{r4, pc}

08000cb0 <__aeabi_fcmplt>:
 8000cb0:	b510      	push	{r4, lr}
 8000cb2:	f000 f8b3 	bl	8000e1c <__lesf2>
 8000cb6:	2800      	cmp	r0, #0
 8000cb8:	db01      	blt.n	8000cbe <__aeabi_fcmplt+0xe>
 8000cba:	2000      	movs	r0, #0
 8000cbc:	bd10      	pop	{r4, pc}
 8000cbe:	2001      	movs	r0, #1
 8000cc0:	bd10      	pop	{r4, pc}
 8000cc2:	46c0      	nop			@ (mov r8, r8)

08000cc4 <__aeabi_fcmple>:
 8000cc4:	b510      	push	{r4, lr}
 8000cc6:	f000 f8a9 	bl	8000e1c <__lesf2>
 8000cca:	2800      	cmp	r0, #0
 8000ccc:	dd01      	ble.n	8000cd2 <__aeabi_fcmple+0xe>
 8000cce:	2000      	movs	r0, #0
 8000cd0:	bd10      	pop	{r4, pc}
 8000cd2:	2001      	movs	r0, #1
 8000cd4:	bd10      	pop	{r4, pc}
 8000cd6:	46c0      	nop			@ (mov r8, r8)

08000cd8 <__aeabi_fcmpgt>:
 8000cd8:	b510      	push	{r4, lr}
 8000cda:	f000 f857 	bl	8000d8c <__gesf2>
 8000cde:	2800      	cmp	r0, #0
 8000ce0:	dc01      	bgt.n	8000ce6 <__aeabi_fcmpgt+0xe>
 8000ce2:	2000      	movs	r0, #0
 8000ce4:	bd10      	pop	{r4, pc}
 8000ce6:	2001      	movs	r0, #1
 8000ce8:	bd10      	pop	{r4, pc}
 8000cea:	46c0      	nop			@ (mov r8, r8)

08000cec <__aeabi_fcmpge>:
 8000cec:	b510      	push	{r4, lr}
 8000cee:	f000 f84d 	bl	8000d8c <__gesf2>
 8000cf2:	2800      	cmp	r0, #0
 8000cf4:	da01      	bge.n	8000cfa <__aeabi_fcmpge+0xe>
 8000cf6:	2000      	movs	r0, #0
 8000cf8:	bd10      	pop	{r4, pc}
 8000cfa:	2001      	movs	r0, #1
 8000cfc:	bd10      	pop	{r4, pc}
 8000cfe:	46c0      	nop			@ (mov r8, r8)

08000d00 <__clzsi2>:
 8000d00:	211c      	movs	r1, #28
 8000d02:	2301      	movs	r3, #1
 8000d04:	041b      	lsls	r3, r3, #16
 8000d06:	4298      	cmp	r0, r3
 8000d08:	d301      	bcc.n	8000d0e <__clzsi2+0xe>
 8000d0a:	0c00      	lsrs	r0, r0, #16
 8000d0c:	3910      	subs	r1, #16
 8000d0e:	0a1b      	lsrs	r3, r3, #8
 8000d10:	4298      	cmp	r0, r3
 8000d12:	d301      	bcc.n	8000d18 <__clzsi2+0x18>
 8000d14:	0a00      	lsrs	r0, r0, #8
 8000d16:	3908      	subs	r1, #8
 8000d18:	091b      	lsrs	r3, r3, #4
 8000d1a:	4298      	cmp	r0, r3
 8000d1c:	d301      	bcc.n	8000d22 <__clzsi2+0x22>
 8000d1e:	0900      	lsrs	r0, r0, #4
 8000d20:	3904      	subs	r1, #4
 8000d22:	a202      	add	r2, pc, #8	@ (adr r2, 8000d2c <__clzsi2+0x2c>)
 8000d24:	5c10      	ldrb	r0, [r2, r0]
 8000d26:	1840      	adds	r0, r0, r1
 8000d28:	4770      	bx	lr
 8000d2a:	46c0      	nop			@ (mov r8, r8)
 8000d2c:	02020304 	.word	0x02020304
 8000d30:	01010101 	.word	0x01010101
	...

08000d3c <__eqsf2>:
 8000d3c:	b570      	push	{r4, r5, r6, lr}
 8000d3e:	0042      	lsls	r2, r0, #1
 8000d40:	024e      	lsls	r6, r1, #9
 8000d42:	004c      	lsls	r4, r1, #1
 8000d44:	0245      	lsls	r5, r0, #9
 8000d46:	0a6d      	lsrs	r5, r5, #9
 8000d48:	0e12      	lsrs	r2, r2, #24
 8000d4a:	0fc3      	lsrs	r3, r0, #31
 8000d4c:	0a76      	lsrs	r6, r6, #9
 8000d4e:	0e24      	lsrs	r4, r4, #24
 8000d50:	0fc9      	lsrs	r1, r1, #31
 8000d52:	2aff      	cmp	r2, #255	@ 0xff
 8000d54:	d010      	beq.n	8000d78 <__eqsf2+0x3c>
 8000d56:	2cff      	cmp	r4, #255	@ 0xff
 8000d58:	d00c      	beq.n	8000d74 <__eqsf2+0x38>
 8000d5a:	2001      	movs	r0, #1
 8000d5c:	42a2      	cmp	r2, r4
 8000d5e:	d10a      	bne.n	8000d76 <__eqsf2+0x3a>
 8000d60:	42b5      	cmp	r5, r6
 8000d62:	d108      	bne.n	8000d76 <__eqsf2+0x3a>
 8000d64:	428b      	cmp	r3, r1
 8000d66:	d00f      	beq.n	8000d88 <__eqsf2+0x4c>
 8000d68:	2a00      	cmp	r2, #0
 8000d6a:	d104      	bne.n	8000d76 <__eqsf2+0x3a>
 8000d6c:	0028      	movs	r0, r5
 8000d6e:	1e43      	subs	r3, r0, #1
 8000d70:	4198      	sbcs	r0, r3
 8000d72:	e000      	b.n	8000d76 <__eqsf2+0x3a>
 8000d74:	2001      	movs	r0, #1
 8000d76:	bd70      	pop	{r4, r5, r6, pc}
 8000d78:	2001      	movs	r0, #1
 8000d7a:	2cff      	cmp	r4, #255	@ 0xff
 8000d7c:	d1fb      	bne.n	8000d76 <__eqsf2+0x3a>
 8000d7e:	4335      	orrs	r5, r6
 8000d80:	d1f9      	bne.n	8000d76 <__eqsf2+0x3a>
 8000d82:	404b      	eors	r3, r1
 8000d84:	0018      	movs	r0, r3
 8000d86:	e7f6      	b.n	8000d76 <__eqsf2+0x3a>
 8000d88:	2000      	movs	r0, #0
 8000d8a:	e7f4      	b.n	8000d76 <__eqsf2+0x3a>

08000d8c <__gesf2>:
 8000d8c:	b530      	push	{r4, r5, lr}
 8000d8e:	0042      	lsls	r2, r0, #1
 8000d90:	0244      	lsls	r4, r0, #9
 8000d92:	024d      	lsls	r5, r1, #9
 8000d94:	0fc3      	lsrs	r3, r0, #31
 8000d96:	0048      	lsls	r0, r1, #1
 8000d98:	0a64      	lsrs	r4, r4, #9
 8000d9a:	0e12      	lsrs	r2, r2, #24
 8000d9c:	0a6d      	lsrs	r5, r5, #9
 8000d9e:	0e00      	lsrs	r0, r0, #24
 8000da0:	0fc9      	lsrs	r1, r1, #31
 8000da2:	2aff      	cmp	r2, #255	@ 0xff
 8000da4:	d018      	beq.n	8000dd8 <__gesf2+0x4c>
 8000da6:	28ff      	cmp	r0, #255	@ 0xff
 8000da8:	d00a      	beq.n	8000dc0 <__gesf2+0x34>
 8000daa:	2a00      	cmp	r2, #0
 8000dac:	d11e      	bne.n	8000dec <__gesf2+0x60>
 8000dae:	2800      	cmp	r0, #0
 8000db0:	d10a      	bne.n	8000dc8 <__gesf2+0x3c>
 8000db2:	2d00      	cmp	r5, #0
 8000db4:	d029      	beq.n	8000e0a <__gesf2+0x7e>
 8000db6:	2c00      	cmp	r4, #0
 8000db8:	d12d      	bne.n	8000e16 <__gesf2+0x8a>
 8000dba:	0048      	lsls	r0, r1, #1
 8000dbc:	3801      	subs	r0, #1
 8000dbe:	bd30      	pop	{r4, r5, pc}
 8000dc0:	2d00      	cmp	r5, #0
 8000dc2:	d125      	bne.n	8000e10 <__gesf2+0x84>
 8000dc4:	2a00      	cmp	r2, #0
 8000dc6:	d101      	bne.n	8000dcc <__gesf2+0x40>
 8000dc8:	2c00      	cmp	r4, #0
 8000dca:	d0f6      	beq.n	8000dba <__gesf2+0x2e>
 8000dcc:	428b      	cmp	r3, r1
 8000dce:	d019      	beq.n	8000e04 <__gesf2+0x78>
 8000dd0:	2001      	movs	r0, #1
 8000dd2:	425b      	negs	r3, r3
 8000dd4:	4318      	orrs	r0, r3
 8000dd6:	e7f2      	b.n	8000dbe <__gesf2+0x32>
 8000dd8:	2c00      	cmp	r4, #0
 8000dda:	d119      	bne.n	8000e10 <__gesf2+0x84>
 8000ddc:	28ff      	cmp	r0, #255	@ 0xff
 8000dde:	d1f7      	bne.n	8000dd0 <__gesf2+0x44>
 8000de0:	2d00      	cmp	r5, #0
 8000de2:	d115      	bne.n	8000e10 <__gesf2+0x84>
 8000de4:	2000      	movs	r0, #0
 8000de6:	428b      	cmp	r3, r1
 8000de8:	d1f2      	bne.n	8000dd0 <__gesf2+0x44>
 8000dea:	e7e8      	b.n	8000dbe <__gesf2+0x32>
 8000dec:	2800      	cmp	r0, #0
 8000dee:	d0ef      	beq.n	8000dd0 <__gesf2+0x44>
 8000df0:	428b      	cmp	r3, r1
 8000df2:	d1ed      	bne.n	8000dd0 <__gesf2+0x44>
 8000df4:	4282      	cmp	r2, r0
 8000df6:	dceb      	bgt.n	8000dd0 <__gesf2+0x44>
 8000df8:	db04      	blt.n	8000e04 <__gesf2+0x78>
 8000dfa:	42ac      	cmp	r4, r5
 8000dfc:	d8e8      	bhi.n	8000dd0 <__gesf2+0x44>
 8000dfe:	2000      	movs	r0, #0
 8000e00:	42ac      	cmp	r4, r5
 8000e02:	d2dc      	bcs.n	8000dbe <__gesf2+0x32>
 8000e04:	0058      	lsls	r0, r3, #1
 8000e06:	3801      	subs	r0, #1
 8000e08:	e7d9      	b.n	8000dbe <__gesf2+0x32>
 8000e0a:	2c00      	cmp	r4, #0
 8000e0c:	d0d7      	beq.n	8000dbe <__gesf2+0x32>
 8000e0e:	e7df      	b.n	8000dd0 <__gesf2+0x44>
 8000e10:	2002      	movs	r0, #2
 8000e12:	4240      	negs	r0, r0
 8000e14:	e7d3      	b.n	8000dbe <__gesf2+0x32>
 8000e16:	428b      	cmp	r3, r1
 8000e18:	d1da      	bne.n	8000dd0 <__gesf2+0x44>
 8000e1a:	e7ee      	b.n	8000dfa <__gesf2+0x6e>

08000e1c <__lesf2>:
 8000e1c:	b530      	push	{r4, r5, lr}
 8000e1e:	0042      	lsls	r2, r0, #1
 8000e20:	0244      	lsls	r4, r0, #9
 8000e22:	024d      	lsls	r5, r1, #9
 8000e24:	0fc3      	lsrs	r3, r0, #31
 8000e26:	0048      	lsls	r0, r1, #1
 8000e28:	0a64      	lsrs	r4, r4, #9
 8000e2a:	0e12      	lsrs	r2, r2, #24
 8000e2c:	0a6d      	lsrs	r5, r5, #9
 8000e2e:	0e00      	lsrs	r0, r0, #24
 8000e30:	0fc9      	lsrs	r1, r1, #31
 8000e32:	2aff      	cmp	r2, #255	@ 0xff
 8000e34:	d017      	beq.n	8000e66 <__lesf2+0x4a>
 8000e36:	28ff      	cmp	r0, #255	@ 0xff
 8000e38:	d00a      	beq.n	8000e50 <__lesf2+0x34>
 8000e3a:	2a00      	cmp	r2, #0
 8000e3c:	d11b      	bne.n	8000e76 <__lesf2+0x5a>
 8000e3e:	2800      	cmp	r0, #0
 8000e40:	d10a      	bne.n	8000e58 <__lesf2+0x3c>
 8000e42:	2d00      	cmp	r5, #0
 8000e44:	d01d      	beq.n	8000e82 <__lesf2+0x66>
 8000e46:	2c00      	cmp	r4, #0
 8000e48:	d12d      	bne.n	8000ea6 <__lesf2+0x8a>
 8000e4a:	0048      	lsls	r0, r1, #1
 8000e4c:	3801      	subs	r0, #1
 8000e4e:	e011      	b.n	8000e74 <__lesf2+0x58>
 8000e50:	2d00      	cmp	r5, #0
 8000e52:	d10e      	bne.n	8000e72 <__lesf2+0x56>
 8000e54:	2a00      	cmp	r2, #0
 8000e56:	d101      	bne.n	8000e5c <__lesf2+0x40>
 8000e58:	2c00      	cmp	r4, #0
 8000e5a:	d0f6      	beq.n	8000e4a <__lesf2+0x2e>
 8000e5c:	428b      	cmp	r3, r1
 8000e5e:	d10c      	bne.n	8000e7a <__lesf2+0x5e>
 8000e60:	0058      	lsls	r0, r3, #1
 8000e62:	3801      	subs	r0, #1
 8000e64:	e006      	b.n	8000e74 <__lesf2+0x58>
 8000e66:	2c00      	cmp	r4, #0
 8000e68:	d103      	bne.n	8000e72 <__lesf2+0x56>
 8000e6a:	28ff      	cmp	r0, #255	@ 0xff
 8000e6c:	d105      	bne.n	8000e7a <__lesf2+0x5e>
 8000e6e:	2d00      	cmp	r5, #0
 8000e70:	d015      	beq.n	8000e9e <__lesf2+0x82>
 8000e72:	2002      	movs	r0, #2
 8000e74:	bd30      	pop	{r4, r5, pc}
 8000e76:	2800      	cmp	r0, #0
 8000e78:	d106      	bne.n	8000e88 <__lesf2+0x6c>
 8000e7a:	2001      	movs	r0, #1
 8000e7c:	425b      	negs	r3, r3
 8000e7e:	4318      	orrs	r0, r3
 8000e80:	e7f8      	b.n	8000e74 <__lesf2+0x58>
 8000e82:	2c00      	cmp	r4, #0
 8000e84:	d0f6      	beq.n	8000e74 <__lesf2+0x58>
 8000e86:	e7f8      	b.n	8000e7a <__lesf2+0x5e>
 8000e88:	428b      	cmp	r3, r1
 8000e8a:	d1f6      	bne.n	8000e7a <__lesf2+0x5e>
 8000e8c:	4282      	cmp	r2, r0
 8000e8e:	dcf4      	bgt.n	8000e7a <__lesf2+0x5e>
 8000e90:	dbe6      	blt.n	8000e60 <__lesf2+0x44>
 8000e92:	42ac      	cmp	r4, r5
 8000e94:	d8f1      	bhi.n	8000e7a <__lesf2+0x5e>
 8000e96:	2000      	movs	r0, #0
 8000e98:	42ac      	cmp	r4, r5
 8000e9a:	d2eb      	bcs.n	8000e74 <__lesf2+0x58>
 8000e9c:	e7e0      	b.n	8000e60 <__lesf2+0x44>
 8000e9e:	2000      	movs	r0, #0
 8000ea0:	428b      	cmp	r3, r1
 8000ea2:	d1ea      	bne.n	8000e7a <__lesf2+0x5e>
 8000ea4:	e7e6      	b.n	8000e74 <__lesf2+0x58>
 8000ea6:	428b      	cmp	r3, r1
 8000ea8:	d1e7      	bne.n	8000e7a <__lesf2+0x5e>
 8000eaa:	e7f2      	b.n	8000e92 <__lesf2+0x76>

08000eac <HAL_GPIO_EXTI_Falling_Callback>:
/* USER CODE END PFP */

/* Private user code ---------------------------------------------------------*/
/* USER CODE BEGIN 0 */
void HAL_GPIO_EXTI_Falling_Callback(uint16_t GPIO_Pin){		// EXTI Handler Falling SWITCHERS
	if(GPIO_Pin == Sw1_Pin)
 8000eac:	2801      	cmp	r0, #1
 8000eae:	d007      	beq.n	8000ec0 <HAL_GPIO_EXTI_Falling_Callback+0x14>
		sw1 =1 ;

	if(GPIO_Pin == Sw2_Pin)
 8000eb0:	2880      	cmp	r0, #128	@ 0x80
 8000eb2:	d009      	beq.n	8000ec8 <HAL_GPIO_EXTI_Falling_Callback+0x1c>
		sw2 = 1;

	if(GPIO_Pin == Sw3_Pin)
 8000eb4:	2840      	cmp	r0, #64	@ 0x40
 8000eb6:	d106      	bne.n	8000ec6 <HAL_GPIO_EXTI_Falling_Callback+0x1a>
		sw3 = 1;
 8000eb8:	4b05      	ldr	r3, [pc, #20]	@ (8000ed0 <HAL_GPIO_EXTI_Falling_Callback+0x24>)
 8000eba:	2201      	movs	r2, #1
 8000ebc:	701a      	strb	r2, [r3, #0]

}
 8000ebe:	e002      	b.n	8000ec6 <HAL_GPIO_EXTI_Falling_Callback+0x1a>
		sw1 =1 ;
 8000ec0:	4b04      	ldr	r3, [pc, #16]	@ (8000ed4 <HAL_GPIO_EXTI_Falling_Callback+0x28>)
 8000ec2:	2201      	movs	r2, #1
 8000ec4:	701a      	strb	r2, [r3, #0]
}
 8000ec6:	4770      	bx	lr
		sw2 = 1;
 8000ec8:	4b03      	ldr	r3, [pc, #12]	@ (8000ed8 <HAL_GPIO_EXTI_Falling_Callback+0x2c>)
 8000eca:	2201      	movs	r2, #1
 8000ecc:	701a      	strb	r2, [r3, #0]
	if(GPIO_Pin == Sw3_Pin)
 8000ece:	e7fa      	b.n	8000ec6 <HAL_GPIO_EXTI_Falling_Callback+0x1a>
 8000ed0:	2000009e 	.word	0x2000009e
 8000ed4:	200000a0 	.word	0x200000a0
 8000ed8:	2000009f 	.word	0x2000009f

08000edc <HAL_GPIO_EXTI_Rising_Callback>:
void HAL_GPIO_EXTI_Rising_Callback(uint16_t GPIO_Pin){		// EXTI Handler Rising SWITCHERS
	if(GPIO_Pin == Sw1_Pin)
 8000edc:	2801      	cmp	r0, #1
 8000ede:	d007      	beq.n	8000ef0 <HAL_GPIO_EXTI_Rising_Callback+0x14>
		sw1 = 0;

	if(GPIO_Pin == Sw2_Pin)
 8000ee0:	2880      	cmp	r0, #128	@ 0x80
 8000ee2:	d009      	beq.n	8000ef8 <HAL_GPIO_EXTI_Rising_Callback+0x1c>
		sw2 = 0;

	if(GPIO_Pin == Sw3_Pin)
 8000ee4:	2840      	cmp	r0, #64	@ 0x40
 8000ee6:	d106      	bne.n	8000ef6 <HAL_GPIO_EXTI_Rising_Callback+0x1a>
		sw3 = 0;
 8000ee8:	4b05      	ldr	r3, [pc, #20]	@ (8000f00 <HAL_GPIO_EXTI_Rising_Callback+0x24>)
 8000eea:	2200      	movs	r2, #0
 8000eec:	701a      	strb	r2, [r3, #0]

}
 8000eee:	e002      	b.n	8000ef6 <HAL_GPIO_EXTI_Rising_Callback+0x1a>
		sw1 = 0;
 8000ef0:	4b04      	ldr	r3, [pc, #16]	@ (8000f04 <HAL_GPIO_EXTI_Rising_Callback+0x28>)
 8000ef2:	2200      	movs	r2, #0
 8000ef4:	701a      	strb	r2, [r3, #0]
}
 8000ef6:	4770      	bx	lr
		sw2 = 0;
 8000ef8:	4b03      	ldr	r3, [pc, #12]	@ (8000f08 <HAL_GPIO_EXTI_Rising_Callback+0x2c>)
 8000efa:	2200      	movs	r2, #0
 8000efc:	701a      	strb	r2, [r3, #0]
	if(GPIO_Pin == Sw3_Pin)
 8000efe:	e7fa      	b.n	8000ef6 <HAL_GPIO_EXTI_Rising_Callback+0x1a>
 8000f00:	2000009e 	.word	0x2000009e
 8000f04:	200000a0 	.word	0x200000a0
 8000f08:	2000009f 	.word	0x2000009f

08000f0c <HAL_ADC_LevelOutOfWindowCallback>:


void HAL_ADC_LevelOutOfWindowCallback(ADC_HandleTypeDef* hadc) 		// ADC Analog WatchDog Handler
{

	if(tim3)
 8000f0c:	4b05      	ldr	r3, [pc, #20]	@ (8000f24 <HAL_ADC_LevelOutOfWindowCallback+0x18>)
 8000f0e:	781b      	ldrb	r3, [r3, #0]
 8000f10:	2b00      	cmp	r3, #0
 8000f12:	d003      	beq.n	8000f1c <HAL_ADC_LevelOutOfWindowCallback+0x10>
	impulse = 1;
 8000f14:	4b04      	ldr	r3, [pc, #16]	@ (8000f28 <HAL_ADC_LevelOutOfWindowCallback+0x1c>)
 8000f16:	2201      	movs	r2, #1
 8000f18:	701a      	strb	r2, [r3, #0]
	else
	 impulse = 0;

}
 8000f1a:	4770      	bx	lr
	 impulse = 0;
 8000f1c:	4b02      	ldr	r3, [pc, #8]	@ (8000f28 <HAL_ADC_LevelOutOfWindowCallback+0x1c>)
 8000f1e:	2200      	movs	r2, #0
 8000f20:	701a      	strb	r2, [r3, #0]
}
 8000f22:	e7fa      	b.n	8000f1a <HAL_ADC_LevelOutOfWindowCallback+0xe>
 8000f24:	20000014 	.word	0x20000014
 8000f28:	2000009c 	.word	0x2000009c

08000f2c <SystemClock_Config>:
/**
  * @brief System Clock Configuration
  * @retval None
  */
void SystemClock_Config(void)
{
 8000f2c:	b500      	push	{lr}
 8000f2e:	b093      	sub	sp, #76	@ 0x4c
  RCC_OscInitTypeDef RCC_OscInitStruct = {0};
 8000f30:	2234      	movs	r2, #52	@ 0x34
 8000f32:	2100      	movs	r1, #0
 8000f34:	a805      	add	r0, sp, #20
 8000f36:	f004 f9e5 	bl	8005304 <memset>
  RCC_ClkInitTypeDef RCC_ClkInitStruct = {0};
 8000f3a:	2210      	movs	r2, #16
 8000f3c:	2100      	movs	r1, #0
 8000f3e:	a801      	add	r0, sp, #4
 8000f40:	f004 f9e0 	bl	8005304 <memset>

  /** Configure the main internal regulator output voltage
  */
  HAL_PWREx_ControlVoltageScaling(PWR_REGULATOR_VOLTAGE_SCALE1);
 8000f44:	2080      	movs	r0, #128	@ 0x80
 8000f46:	0080      	lsls	r0, r0, #2
 8000f48:	f003 f848 	bl	8003fdc <HAL_PWREx_ControlVoltageScaling>

  /** Configure LSE Drive Capability
  */
  HAL_PWR_EnableBkUpAccess();
 8000f4c:	f003 f83c 	bl	8003fc8 <HAL_PWR_EnableBkUpAccess>
  __HAL_RCC_LSEDRIVE_CONFIG(RCC_LSEDRIVE_LOW);
 8000f50:	4a19      	ldr	r2, [pc, #100]	@ (8000fb8 <SystemClock_Config+0x8c>)
 8000f52:	6dd3      	ldr	r3, [r2, #92]	@ 0x5c
 8000f54:	2118      	movs	r1, #24
 8000f56:	438b      	bics	r3, r1
 8000f58:	65d3      	str	r3, [r2, #92]	@ 0x5c

  /** Initializes the RCC Oscillators according to the specified parameters
  * in the RCC_OscInitTypeDef structure.
  */
  RCC_OscInitStruct.OscillatorType = RCC_OSCILLATORTYPE_HSI|RCC_OSCILLATORTYPE_LSE;
 8000f5a:	2306      	movs	r3, #6
 8000f5c:	9305      	str	r3, [sp, #20]
  RCC_OscInitStruct.LSEState = RCC_LSE_ON;
 8000f5e:	3b05      	subs	r3, #5
 8000f60:	9307      	str	r3, [sp, #28]
  RCC_OscInitStruct.HSIState = RCC_HSI_ON;
 8000f62:	33ff      	adds	r3, #255	@ 0xff
 8000f64:	9308      	str	r3, [sp, #32]
  RCC_OscInitStruct.HSIDiv = RCC_HSI_DIV1;
 8000f66:	2300      	movs	r3, #0
 8000f68:	9309      	str	r3, [sp, #36]	@ 0x24
  RCC_OscInitStruct.HSICalibrationValue = RCC_HSICALIBRATION_DEFAULT;
 8000f6a:	2240      	movs	r2, #64	@ 0x40
 8000f6c:	920a      	str	r2, [sp, #40]	@ 0x28
  RCC_OscInitStruct.PLL.PLLState = RCC_PLL_ON;
 8000f6e:	3a3e      	subs	r2, #62	@ 0x3e
 8000f70:	920c      	str	r2, [sp, #48]	@ 0x30
  RCC_OscInitStruct.PLL.PLLSource = RCC_PLLSOURCE_HSI;
 8000f72:	920d      	str	r2, [sp, #52]	@ 0x34
  RCC_OscInitStruct.PLL.PLLM = RCC_PLLM_DIV1;
 8000f74:	930e      	str	r3, [sp, #56]	@ 0x38
  RCC_OscInitStruct.PLL.PLLN = 8;
 8000f76:	3308      	adds	r3, #8
 8000f78:	930f      	str	r3, [sp, #60]	@ 0x3c
  RCC_OscInitStruct.PLL.PLLP = RCC_PLLP_DIV8;
 8000f7a:	23e0      	movs	r3, #224	@ 0xe0
 8000f7c:	031b      	lsls	r3, r3, #12
 8000f7e:	9310      	str	r3, [sp, #64]	@ 0x40
  RCC_OscInitStruct.PLL.PLLR = RCC_PLLR_DIV8;
 8000f80:	23e0      	movs	r3, #224	@ 0xe0
 8000f82:	061b      	lsls	r3, r3, #24
 8000f84:	9311      	str	r3, [sp, #68]	@ 0x44
  if (HAL_RCC_OscConfig(&RCC_OscInitStruct) != HAL_OK)
 8000f86:	a805      	add	r0, sp, #20
 8000f88:	f003 f85a 	bl	8004040 <HAL_RCC_OscConfig>
 8000f8c:	2800      	cmp	r0, #0
 8000f8e:	d10e      	bne.n	8000fae <SystemClock_Config+0x82>
    Error_Handler();
  }

  /** Initializes the CPU, AHB and APB buses clocks
  */
  RCC_ClkInitStruct.ClockType = RCC_CLOCKTYPE_HCLK|RCC_CLOCKTYPE_SYSCLK
 8000f90:	2307      	movs	r3, #7
 8000f92:	9301      	str	r3, [sp, #4]
                              |RCC_CLOCKTYPE_PCLK1;
  RCC_ClkInitStruct.SYSCLKSource = RCC_SYSCLKSOURCE_PLLCLK;
 8000f94:	3b05      	subs	r3, #5
 8000f96:	9302      	str	r3, [sp, #8]
  RCC_ClkInitStruct.AHBCLKDivider = RCC_SYSCLK_DIV1;
 8000f98:	2300      	movs	r3, #0
 8000f9a:	9303      	str	r3, [sp, #12]
  RCC_ClkInitStruct.APB1CLKDivider = RCC_HCLK_DIV1;
 8000f9c:	9304      	str	r3, [sp, #16]

  if (HAL_RCC_ClockConfig(&RCC_ClkInitStruct, FLASH_LATENCY_0) != HAL_OK)
 8000f9e:	2100      	movs	r1, #0
 8000fa0:	a801      	add	r0, sp, #4
 8000fa2:	f003 fb33 	bl	800460c <HAL_RCC_ClockConfig>
 8000fa6:	2800      	cmp	r0, #0
 8000fa8:	d103      	bne.n	8000fb2 <SystemClock_Config+0x86>
  {
    Error_Handler();
  }
}
 8000faa:	b013      	add	sp, #76	@ 0x4c
 8000fac:	bd00      	pop	{pc}
  \details Disables IRQ interrupts by setting the I-bit in the CPSR.
           Can only be executed in Privileged modes.
 */
__STATIC_FORCEINLINE void __disable_irq(void)
{
  __ASM volatile ("cpsid i" : : : "memory");
 8000fae:	b672      	cpsid	i
void Error_Handler(void)
{
  /* USER CODE BEGIN Error_Handler_Debug */
  /* User can add his own implementation to report the HAL error return state */
  __disable_irq();
  while (1)
 8000fb0:	e7fe      	b.n	8000fb0 <SystemClock_Config+0x84>
 8000fb2:	b672      	cpsid	i
 8000fb4:	e7fe      	b.n	8000fb4 <SystemClock_Config+0x88>
 8000fb6:	46c0      	nop			@ (mov r8, r8)
 8000fb8:	40021000 	.word	0x40021000

08000fbc <WriteTime>:
void WriteTime(){
 8000fbc:	b530      	push	{r4, r5, lr}
 8000fbe:	b083      	sub	sp, #12
	HAL_RTC_GetTime(&hrtc, &sTime, RTC_FORMAT_BIN);
 8000fc0:	4c32      	ldr	r4, [pc, #200]	@ (800108c <WriteTime+0xd0>)
 8000fc2:	4d33      	ldr	r5, [pc, #204]	@ (8001090 <WriteTime+0xd4>)
 8000fc4:	2200      	movs	r2, #0
 8000fc6:	0021      	movs	r1, r4
 8000fc8:	0028      	movs	r0, r5
 8000fca:	f003 fe07 	bl	8004bdc <HAL_RTC_GetTime>
    HAL_RTC_GetDate(&hrtc, &sDate, RTC_FORMAT_BIN);
 8000fce:	4931      	ldr	r1, [pc, #196]	@ (8001094 <WriteTime+0xd8>)
 8000fd0:	2200      	movs	r2, #0
 8000fd2:	0028      	movs	r0, r5
 8000fd4:	f003 fe2c 	bl	8004c30 <HAL_RTC_GetDate>
		  if(sTime.Seconds < 10 && sTime.Minutes < 10 && sTime.Hours < 10)
 8000fd8:	78a4      	ldrb	r4, [r4, #2]
 8000fda:	2c09      	cmp	r4, #9
 8000fdc:	d831      	bhi.n	8001042 <WriteTime+0x86>
 8000fde:	4b2b      	ldr	r3, [pc, #172]	@ (800108c <WriteTime+0xd0>)
 8000fe0:	785b      	ldrb	r3, [r3, #1]
 8000fe2:	2b09      	cmp	r3, #9
 8000fe4:	d83b      	bhi.n	800105e <WriteTime+0xa2>
 8000fe6:	4a29      	ldr	r2, [pc, #164]	@ (800108c <WriteTime+0xd0>)
 8000fe8:	7812      	ldrb	r2, [r2, #0]
 8000fea:	2a09      	cmp	r2, #9
 8000fec:	d907      	bls.n	8000ffe <WriteTime+0x42>
			  sprintf(buf, "%d:0%d:0%d", sTime.Hours, sTime.Minutes, sTime.Seconds);
 8000fee:	4a27      	ldr	r2, [pc, #156]	@ (800108c <WriteTime+0xd0>)
 8000ff0:	7812      	ldrb	r2, [r2, #0]
 8000ff2:	4929      	ldr	r1, [pc, #164]	@ (8001098 <WriteTime+0xdc>)
 8000ff4:	4829      	ldr	r0, [pc, #164]	@ (800109c <WriteTime+0xe0>)
 8000ff6:	9400      	str	r4, [sp, #0]
 8000ff8:	f004 f962 	bl	80052c0 <siprintf>
 8000ffc:	e03a      	b.n	8001074 <WriteTime+0xb8>
			  sprintf(buf, "0%d:0%d:0%d", sTime.Hours, sTime.Minutes, sTime.Seconds);
 8000ffe:	4928      	ldr	r1, [pc, #160]	@ (80010a0 <WriteTime+0xe4>)
 8001000:	4826      	ldr	r0, [pc, #152]	@ (800109c <WriteTime+0xe0>)
 8001002:	9400      	str	r4, [sp, #0]
 8001004:	f004 f95c 	bl	80052c0 <siprintf>
 8001008:	e034      	b.n	8001074 <WriteTime+0xb8>
			  sprintf(buf, "0%d:%d:0%d", sTime.Hours, sTime.Minutes, sTime.Seconds);
 800100a:	4926      	ldr	r1, [pc, #152]	@ (80010a4 <WriteTime+0xe8>)
 800100c:	4823      	ldr	r0, [pc, #140]	@ (800109c <WriteTime+0xe0>)
 800100e:	9400      	str	r4, [sp, #0]
 8001010:	f004 f956 	bl	80052c0 <siprintf>
 8001014:	e02e      	b.n	8001074 <WriteTime+0xb8>
			  sprintf(buf, "0%d:0%d:%d", sTime.Hours, sTime.Minutes, sTime.Seconds);
 8001016:	4924      	ldr	r1, [pc, #144]	@ (80010a8 <WriteTime+0xec>)
 8001018:	4820      	ldr	r0, [pc, #128]	@ (800109c <WriteTime+0xe0>)
 800101a:	9400      	str	r4, [sp, #0]
 800101c:	f004 f950 	bl	80052c0 <siprintf>
 8001020:	e028      	b.n	8001074 <WriteTime+0xb8>
		  else if(sTime.Minutes < 10)
 8001022:	4b1a      	ldr	r3, [pc, #104]	@ (800108c <WriteTime+0xd0>)
 8001024:	785b      	ldrb	r3, [r3, #1]
 8001026:	2b09      	cmp	r3, #9
 8001028:	d905      	bls.n	8001036 <WriteTime+0x7a>
			  sprintf(buf, "%d:%d:%d", sTime.Hours, sTime.Minutes, sTime.Seconds);
 800102a:	4920      	ldr	r1, [pc, #128]	@ (80010ac <WriteTime+0xf0>)
 800102c:	481b      	ldr	r0, [pc, #108]	@ (800109c <WriteTime+0xe0>)
 800102e:	9400      	str	r4, [sp, #0]
 8001030:	f004 f946 	bl	80052c0 <siprintf>
 8001034:	e01e      	b.n	8001074 <WriteTime+0xb8>
			  sprintf(buf, "%d:0%d:%d", sTime.Hours, sTime.Minutes, sTime.Seconds);
 8001036:	491e      	ldr	r1, [pc, #120]	@ (80010b0 <WriteTime+0xf4>)
 8001038:	4818      	ldr	r0, [pc, #96]	@ (800109c <WriteTime+0xe0>)
 800103a:	9400      	str	r4, [sp, #0]
 800103c:	f004 f940 	bl	80052c0 <siprintf>
 8001040:	e018      	b.n	8001074 <WriteTime+0xb8>
		  else if(sTime.Hours < 10 && sTime.Minutes < 10)
 8001042:	4b12      	ldr	r3, [pc, #72]	@ (800108c <WriteTime+0xd0>)
 8001044:	781a      	ldrb	r2, [r3, #0]
 8001046:	2a09      	cmp	r2, #9
 8001048:	d8eb      	bhi.n	8001022 <WriteTime+0x66>
 800104a:	4b10      	ldr	r3, [pc, #64]	@ (800108c <WriteTime+0xd0>)
 800104c:	785b      	ldrb	r3, [r3, #1]
 800104e:	2b09      	cmp	r3, #9
 8001050:	d9e1      	bls.n	8001016 <WriteTime+0x5a>
			  sprintf(buf, "0%d:%d:%d", sTime.Hours, sTime.Minutes, sTime.Seconds);
 8001052:	4918      	ldr	r1, [pc, #96]	@ (80010b4 <WriteTime+0xf8>)
 8001054:	4811      	ldr	r0, [pc, #68]	@ (800109c <WriteTime+0xe0>)
 8001056:	9400      	str	r4, [sp, #0]
 8001058:	f004 f932 	bl	80052c0 <siprintf>
 800105c:	e00a      	b.n	8001074 <WriteTime+0xb8>
		  else if(sTime.Seconds < 10 && sTime.Hours < 10)
 800105e:	4a0b      	ldr	r2, [pc, #44]	@ (800108c <WriteTime+0xd0>)
 8001060:	7812      	ldrb	r2, [r2, #0]
 8001062:	2a09      	cmp	r2, #9
 8001064:	d9d1      	bls.n	800100a <WriteTime+0x4e>
			  sprintf(buf, "%d:%d:0%d", sTime.Hours, sTime.Minutes, sTime.Seconds);
 8001066:	4b09      	ldr	r3, [pc, #36]	@ (800108c <WriteTime+0xd0>)
 8001068:	785b      	ldrb	r3, [r3, #1]
 800106a:	4913      	ldr	r1, [pc, #76]	@ (80010b8 <WriteTime+0xfc>)
 800106c:	480b      	ldr	r0, [pc, #44]	@ (800109c <WriteTime+0xe0>)
 800106e:	9400      	str	r4, [sp, #0]
 8001070:	f004 f926 	bl	80052c0 <siprintf>
		  	  	ssd1306_SetCursor(28, 0);
 8001074:	2100      	movs	r1, #0
 8001076:	201c      	movs	r0, #28
 8001078:	f001 f82c 	bl	80020d4 <ssd1306_SetCursor>
		        ssd1306_WriteString(buf, Font_7x10);
 800107c:	4b0f      	ldr	r3, [pc, #60]	@ (80010bc <WriteTime+0x100>)
 800107e:	4807      	ldr	r0, [pc, #28]	@ (800109c <WriteTime+0xe0>)
 8001080:	6819      	ldr	r1, [r3, #0]
 8001082:	685a      	ldr	r2, [r3, #4]
 8001084:	f001 f810 	bl	80020a8 <ssd1306_WriteString>
}
 8001088:	b003      	add	sp, #12
 800108a:	bd30      	pop	{r4, r5, pc}
 800108c:	200000c4 	.word	0x200000c4
 8001090:	200001bc 	.word	0x200001bc
 8001094:	200000c0 	.word	0x200000c0
 8001098:	0800712c 	.word	0x0800712c
 800109c:	200000ac 	.word	0x200000ac
 80010a0:	080070d8 	.word	0x080070d8
 80010a4:	080070e4 	.word	0x080070e4
 80010a8:	080070f0 	.word	0x080070f0
 80010ac:	08007108 	.word	0x08007108
 80010b0:	080070fc 	.word	0x080070fc
 80010b4:	08007114 	.word	0x08007114
 80010b8:	08007120 	.word	0x08007120
 80010bc:	20000008 	.word	0x20000008

080010c0 <BatteryCharge>:
uint16_t BatteryCharge(){
 80010c0:	b510      	push	{r4, lr}
	if(access){
 80010c2:	4b19      	ldr	r3, [pc, #100]	@ (8001128 <BatteryCharge+0x68>)
 80010c4:	781b      	ldrb	r3, [r3, #0]
 80010c6:	2b00      	cmp	r3, #0
 80010c8:	d01b      	beq.n	8001102 <BatteryCharge+0x42>
		adc1 = adc[0];
 80010ca:	4b18      	ldr	r3, [pc, #96]	@ (800112c <BatteryCharge+0x6c>)
 80010cc:	881b      	ldrh	r3, [r3, #0]
 80010ce:	b29b      	uxth	r3, r3
		 if(adc1 > 2050){
 80010d0:	4a17      	ldr	r2, [pc, #92]	@ (8001130 <BatteryCharge+0x70>)
		adc1 = 0;
 80010d2:	2000      	movs	r0, #0
		 if(adc1 > 2050){
 80010d4:	4293      	cmp	r3, r2
 80010d6:	d90a      	bls.n	80010ee <BatteryCharge+0x2e>
		 adc1 -= 2050;
 80010d8:	4a16      	ldr	r2, [pc, #88]	@ (8001134 <BatteryCharge+0x74>)
 80010da:	1898      	adds	r0, r3, r2
		 adc1 *= 0.175f;
 80010dc:	b280      	uxth	r0, r0
 80010de:	f7ff fd85 	bl	8000bec <__aeabi_i2f>
 80010e2:	4915      	ldr	r1, [pc, #84]	@ (8001138 <BatteryCharge+0x78>)
 80010e4:	f7ff f9a4 	bl	8000430 <__aeabi_fmul>
 80010e8:	f7ff f98a 	bl	8000400 <__aeabi_f2uiz>
 80010ec:	b280      	uxth	r0, r0
 80010ee:	4b13      	ldr	r3, [pc, #76]	@ (800113c <BatteryCharge+0x7c>)
 80010f0:	8018      	strh	r0, [r3, #0]
		 once_minute = sTime.Minutes;
 80010f2:	4b13      	ldr	r3, [pc, #76]	@ (8001140 <BatteryCharge+0x80>)
 80010f4:	4a13      	ldr	r2, [pc, #76]	@ (8001144 <BatteryCharge+0x84>)
 80010f6:	7852      	ldrb	r2, [r2, #1]
 80010f8:	701a      	strb	r2, [r3, #0]
		 access = 0;
 80010fa:	4b0b      	ldr	r3, [pc, #44]	@ (8001128 <BatteryCharge+0x68>)
 80010fc:	2200      	movs	r2, #0
 80010fe:	701a      	strb	r2, [r3, #0]
	if(sTime.Minutes != once_minute)
 8001100:	e008      	b.n	8001114 <BatteryCharge+0x54>
 8001102:	4a10      	ldr	r2, [pc, #64]	@ (8001144 <BatteryCharge+0x84>)
 8001104:	4b0e      	ldr	r3, [pc, #56]	@ (8001140 <BatteryCharge+0x80>)
 8001106:	7852      	ldrb	r2, [r2, #1]
 8001108:	781b      	ldrb	r3, [r3, #0]
 800110a:	429a      	cmp	r2, r3
 800110c:	d002      	beq.n	8001114 <BatteryCharge+0x54>
			access = 1;
 800110e:	4b06      	ldr	r3, [pc, #24]	@ (8001128 <BatteryCharge+0x68>)
 8001110:	2201      	movs	r2, #1
 8001112:	701a      	strb	r2, [r3, #0]
	if(adc1 >= 100)
 8001114:	4b09      	ldr	r3, [pc, #36]	@ (800113c <BatteryCharge+0x7c>)
 8001116:	881b      	ldrh	r3, [r3, #0]
 8001118:	2b63      	cmp	r3, #99	@ 0x63
 800111a:	d902      	bls.n	8001122 <BatteryCharge+0x62>
	adc1 = 100;
 800111c:	4b07      	ldr	r3, [pc, #28]	@ (800113c <BatteryCharge+0x7c>)
 800111e:	2264      	movs	r2, #100	@ 0x64
 8001120:	801a      	strh	r2, [r3, #0]
	return adc1;
 8001122:	4b06      	ldr	r3, [pc, #24]	@ (800113c <BatteryCharge+0x7c>)
 8001124:	8818      	ldrh	r0, [r3, #0]
}
 8001126:	bd10      	pop	{r4, pc}
 8001128:	20000094 	.word	0x20000094
 800112c:	200000a8 	.word	0x200000a8
 8001130:	00000802 	.word	0x00000802
 8001134:	fffff7fe 	.word	0xfffff7fe
 8001138:	3e333333 	.word	0x3e333333
 800113c:	20000092 	.word	0x20000092
 8001140:	20000091 	.word	0x20000091
 8001144:	200000c4 	.word	0x200000c4

08001148 <WriteBatteryCharge>:
void WriteBatteryCharge(uint16_t adc){
 8001148:	b570      	push	{r4, r5, r6, lr}
 800114a:	0004      	movs	r4, r0
	ssd1306_SetCursor(100, 0);
 800114c:	2100      	movs	r1, #0
 800114e:	2064      	movs	r0, #100	@ 0x64
 8001150:	f000 ffc0 	bl	80020d4 <ssd1306_SetCursor>
		 sprintf(buf, "%d", adc);
 8001154:	4908      	ldr	r1, [pc, #32]	@ (8001178 <WriteBatteryCharge+0x30>)
 8001156:	4d09      	ldr	r5, [pc, #36]	@ (800117c <WriteBatteryCharge+0x34>)
 8001158:	0022      	movs	r2, r4
 800115a:	0028      	movs	r0, r5
 800115c:	f004 f8b0 	bl	80052c0 <siprintf>
		 ssd1306_WriteString(buf, Font_7x10);
 8001160:	4c07      	ldr	r4, [pc, #28]	@ (8001180 <WriteBatteryCharge+0x38>)
 8001162:	6821      	ldr	r1, [r4, #0]
 8001164:	6862      	ldr	r2, [r4, #4]
 8001166:	0028      	movs	r0, r5
 8001168:	f000 ff9e 	bl	80020a8 <ssd1306_WriteString>
		 ssd1306_WriteChar('%', Font_7x10);
 800116c:	6821      	ldr	r1, [r4, #0]
 800116e:	6862      	ldr	r2, [r4, #4]
 8001170:	2025      	movs	r0, #37	@ 0x25
 8001172:	f000 ff21 	bl	8001fb8 <ssd1306_WriteChar>
}
 8001176:	bd70      	pop	{r4, r5, r6, pc}
 8001178:	08007134 	.word	0x08007134
 800117c:	200000ac 	.word	0x200000ac
 8001180:	20000008 	.word	0x20000008

08001184 <ConfigTime>:
void ConfigTime(){
 8001184:	b510      	push	{r4, lr}
 8001186:	b082      	sub	sp, #8
	if(sTime.Seconds < 10 && sTime.Minutes < 10 && sTime.Hours < 10)
 8001188:	4b65      	ldr	r3, [pc, #404]	@ (8001320 <ConfigTime+0x19c>)
 800118a:	789c      	ldrb	r4, [r3, #2]
 800118c:	2c09      	cmp	r4, #9
 800118e:	d83d      	bhi.n	800120c <ConfigTime+0x88>
 8001190:	785b      	ldrb	r3, [r3, #1]
 8001192:	2b09      	cmp	r3, #9
 8001194:	d848      	bhi.n	8001228 <ConfigTime+0xa4>
 8001196:	4a62      	ldr	r2, [pc, #392]	@ (8001320 <ConfigTime+0x19c>)
 8001198:	7812      	ldrb	r2, [r2, #0]
 800119a:	2a09      	cmp	r2, #9
 800119c:	d907      	bls.n	80011ae <ConfigTime+0x2a>
						  sprintf(buf, "%d:0%d:0%d", sTime.Hours, sTime.Minutes, sTime.Seconds);
 800119e:	4a60      	ldr	r2, [pc, #384]	@ (8001320 <ConfigTime+0x19c>)
 80011a0:	7812      	ldrb	r2, [r2, #0]
 80011a2:	4960      	ldr	r1, [pc, #384]	@ (8001324 <ConfigTime+0x1a0>)
 80011a4:	4860      	ldr	r0, [pc, #384]	@ (8001328 <ConfigTime+0x1a4>)
 80011a6:	9400      	str	r4, [sp, #0]
 80011a8:	f004 f88a 	bl	80052c0 <siprintf>
 80011ac:	e047      	b.n	800123e <ConfigTime+0xba>
						  sprintf(buf, "0%d:0%d:0%d", sTime.Hours, sTime.Minutes, sTime.Seconds);
 80011ae:	495f      	ldr	r1, [pc, #380]	@ (800132c <ConfigTime+0x1a8>)
 80011b0:	485d      	ldr	r0, [pc, #372]	@ (8001328 <ConfigTime+0x1a4>)
 80011b2:	9400      	str	r4, [sp, #0]
 80011b4:	f004 f884 	bl	80052c0 <siprintf>
 80011b8:	e041      	b.n	800123e <ConfigTime+0xba>
						  sprintf(buf, "0%d:%d:0%d", sTime.Hours, sTime.Minutes, sTime.Seconds);
 80011ba:	495d      	ldr	r1, [pc, #372]	@ (8001330 <ConfigTime+0x1ac>)
 80011bc:	485a      	ldr	r0, [pc, #360]	@ (8001328 <ConfigTime+0x1a4>)
 80011be:	9400      	str	r4, [sp, #0]
 80011c0:	f004 f87e 	bl	80052c0 <siprintf>
 80011c4:	e03b      	b.n	800123e <ConfigTime+0xba>
						  sprintf(buf, "0%d:0%d:%d", sTime.Hours, sTime.Minutes, sTime.Seconds);
 80011c6:	495b      	ldr	r1, [pc, #364]	@ (8001334 <ConfigTime+0x1b0>)
 80011c8:	4857      	ldr	r0, [pc, #348]	@ (8001328 <ConfigTime+0x1a4>)
 80011ca:	9400      	str	r4, [sp, #0]
 80011cc:	f004 f878 	bl	80052c0 <siprintf>
 80011d0:	e035      	b.n	800123e <ConfigTime+0xba>
					  else if(sTime.Minutes < 10)
 80011d2:	4b53      	ldr	r3, [pc, #332]	@ (8001320 <ConfigTime+0x19c>)
 80011d4:	785b      	ldrb	r3, [r3, #1]
 80011d6:	2b09      	cmp	r3, #9
 80011d8:	d905      	bls.n	80011e6 <ConfigTime+0x62>
						  sprintf(buf, "%d:%d:%d", sTime.Hours, sTime.Minutes, sTime.Seconds);
 80011da:	4957      	ldr	r1, [pc, #348]	@ (8001338 <ConfigTime+0x1b4>)
 80011dc:	4852      	ldr	r0, [pc, #328]	@ (8001328 <ConfigTime+0x1a4>)
 80011de:	9400      	str	r4, [sp, #0]
 80011e0:	f004 f86e 	bl	80052c0 <siprintf>
 80011e4:	e02b      	b.n	800123e <ConfigTime+0xba>
						  sprintf(buf, "%d:0%d:%d", sTime.Hours, sTime.Minutes, sTime.Seconds);
 80011e6:	4955      	ldr	r1, [pc, #340]	@ (800133c <ConfigTime+0x1b8>)
 80011e8:	484f      	ldr	r0, [pc, #316]	@ (8001328 <ConfigTime+0x1a4>)
 80011ea:	9400      	str	r4, [sp, #0]
 80011ec:	f004 f868 	bl	80052c0 <siprintf>
 80011f0:	e025      	b.n	800123e <ConfigTime+0xba>
					if (HAL_RTC_SetTime(&hrtc, &sTime, RTC_FORMAT_BIN) != HAL_OK)
 80011f2:	494b      	ldr	r1, [pc, #300]	@ (8001320 <ConfigTime+0x19c>)
 80011f4:	4852      	ldr	r0, [pc, #328]	@ (8001340 <ConfigTime+0x1bc>)
 80011f6:	2200      	movs	r2, #0
 80011f8:	f003 fc7a 	bl	8004af0 <HAL_RTC_SetTime>
 80011fc:	2800      	cmp	r0, #0
 80011fe:	d103      	bne.n	8001208 <ConfigTime+0x84>
					    config = 0;
 8001200:	4b50      	ldr	r3, [pc, #320]	@ (8001344 <ConfigTime+0x1c0>)
 8001202:	2200      	movs	r2, #0
 8001204:	701a      	strb	r2, [r3, #0]
 8001206:	e089      	b.n	800131c <ConfigTime+0x198>
 8001208:	b672      	cpsid	i
  while (1)
 800120a:	e7fe      	b.n	800120a <ConfigTime+0x86>
					  else if(sTime.Hours < 10 && sTime.Minutes < 10)
 800120c:	4b44      	ldr	r3, [pc, #272]	@ (8001320 <ConfigTime+0x19c>)
 800120e:	781a      	ldrb	r2, [r3, #0]
 8001210:	2a09      	cmp	r2, #9
 8001212:	d8de      	bhi.n	80011d2 <ConfigTime+0x4e>
 8001214:	4b42      	ldr	r3, [pc, #264]	@ (8001320 <ConfigTime+0x19c>)
 8001216:	785b      	ldrb	r3, [r3, #1]
 8001218:	2b09      	cmp	r3, #9
 800121a:	d9d4      	bls.n	80011c6 <ConfigTime+0x42>
						  sprintf(buf, "0%d:%d:%d", sTime.Hours, sTime.Minutes, sTime.Seconds);
 800121c:	494a      	ldr	r1, [pc, #296]	@ (8001348 <ConfigTime+0x1c4>)
 800121e:	4842      	ldr	r0, [pc, #264]	@ (8001328 <ConfigTime+0x1a4>)
 8001220:	9400      	str	r4, [sp, #0]
 8001222:	f004 f84d 	bl	80052c0 <siprintf>
 8001226:	e00a      	b.n	800123e <ConfigTime+0xba>
					  else if(sTime.Seconds < 10 && sTime.Hours < 10)
 8001228:	4a3d      	ldr	r2, [pc, #244]	@ (8001320 <ConfigTime+0x19c>)
 800122a:	7812      	ldrb	r2, [r2, #0]
 800122c:	2a09      	cmp	r2, #9
 800122e:	d9c4      	bls.n	80011ba <ConfigTime+0x36>
						  sprintf(buf, "%d:%d:0%d", sTime.Hours, sTime.Minutes, sTime.Seconds);
 8001230:	4b3b      	ldr	r3, [pc, #236]	@ (8001320 <ConfigTime+0x19c>)
 8001232:	785b      	ldrb	r3, [r3, #1]
 8001234:	4945      	ldr	r1, [pc, #276]	@ (800134c <ConfigTime+0x1c8>)
 8001236:	483c      	ldr	r0, [pc, #240]	@ (8001328 <ConfigTime+0x1a4>)
 8001238:	9400      	str	r4, [sp, #0]
 800123a:	f004 f841 	bl	80052c0 <siprintf>
					  	  	ssd1306_SetCursor(28, 0);
 800123e:	2100      	movs	r1, #0
 8001240:	201c      	movs	r0, #28
 8001242:	f000 ff47 	bl	80020d4 <ssd1306_SetCursor>
					        ssd1306_WriteString(buf, Font_7x10);
 8001246:	4b42      	ldr	r3, [pc, #264]	@ (8001350 <ConfigTime+0x1cc>)
 8001248:	4837      	ldr	r0, [pc, #220]	@ (8001328 <ConfigTime+0x1a4>)
 800124a:	6819      	ldr	r1, [r3, #0]
 800124c:	685a      	ldr	r2, [r3, #4]
 800124e:	f000 ff2b 	bl	80020a8 <ssd1306_WriteString>
					if(sw1 && sw3){
 8001252:	4b40      	ldr	r3, [pc, #256]	@ (8001354 <ConfigTime+0x1d0>)
 8001254:	781b      	ldrb	r3, [r3, #0]
 8001256:	2b00      	cmp	r3, #0
 8001258:	d003      	beq.n	8001262 <ConfigTime+0xde>
 800125a:	4b3f      	ldr	r3, [pc, #252]	@ (8001358 <ConfigTime+0x1d4>)
 800125c:	781b      	ldrb	r3, [r3, #0]
 800125e:	2b00      	cmp	r3, #0
 8001260:	d1c7      	bne.n	80011f2 <ConfigTime+0x6e>
					if(sw3 && tim3){
 8001262:	4b3d      	ldr	r3, [pc, #244]	@ (8001358 <ConfigTime+0x1d4>)
 8001264:	781b      	ldrb	r3, [r3, #0]
 8001266:	2b00      	cmp	r3, #0
 8001268:	d01a      	beq.n	80012a0 <ConfigTime+0x11c>
 800126a:	4b3c      	ldr	r3, [pc, #240]	@ (800135c <ConfigTime+0x1d8>)
 800126c:	781b      	ldrb	r3, [r3, #0]
 800126e:	2b00      	cmp	r3, #0
 8001270:	d016      	beq.n	80012a0 <ConfigTime+0x11c>
						if(sTime.Seconds < 60)
 8001272:	4b2b      	ldr	r3, [pc, #172]	@ (8001320 <ConfigTime+0x19c>)
 8001274:	789b      	ldrb	r3, [r3, #2]
							sTime.Seconds = 0;
 8001276:	2200      	movs	r2, #0
						if(sTime.Seconds < 60)
 8001278:	2b3b      	cmp	r3, #59	@ 0x3b
 800127a:	d801      	bhi.n	8001280 <ConfigTime+0xfc>
							sTime.Seconds++;
 800127c:	3301      	adds	r3, #1
 800127e:	b2da      	uxtb	r2, r3
 8001280:	4b27      	ldr	r3, [pc, #156]	@ (8001320 <ConfigTime+0x19c>)
 8001282:	709a      	strb	r2, [r3, #2]
						tim3 = 0;
 8001284:	4b35      	ldr	r3, [pc, #212]	@ (800135c <ConfigTime+0x1d8>)
 8001286:	2200      	movs	r2, #0
 8001288:	701a      	strb	r2, [r3, #0]
						TIM3->CNT = 0;
 800128a:	4b35      	ldr	r3, [pc, #212]	@ (8001360 <ConfigTime+0x1dc>)
 800128c:	625a      	str	r2, [r3, #36]	@ 0x24
						TIM3->SR &= ~TIM_SR_UIF;
 800128e:	691a      	ldr	r2, [r3, #16]
 8001290:	2101      	movs	r1, #1
 8001292:	438a      	bics	r2, r1
 8001294:	611a      	str	r2, [r3, #16]
						TIM3->ARR = 200;
 8001296:	22c8      	movs	r2, #200	@ 0xc8
 8001298:	62da      	str	r2, [r3, #44]	@ 0x2c
						HAL_TIM_Base_Start_IT(&htim3);
 800129a:	4832      	ldr	r0, [pc, #200]	@ (8001364 <ConfigTime+0x1e0>)
 800129c:	f003 fd2e 	bl	8004cfc <HAL_TIM_Base_Start_IT>
					if(sw2  && tim3){
 80012a0:	4b31      	ldr	r3, [pc, #196]	@ (8001368 <ConfigTime+0x1e4>)
 80012a2:	781b      	ldrb	r3, [r3, #0]
 80012a4:	2b00      	cmp	r3, #0
 80012a6:	d01a      	beq.n	80012de <ConfigTime+0x15a>
 80012a8:	4b2c      	ldr	r3, [pc, #176]	@ (800135c <ConfigTime+0x1d8>)
 80012aa:	781b      	ldrb	r3, [r3, #0]
 80012ac:	2b00      	cmp	r3, #0
 80012ae:	d016      	beq.n	80012de <ConfigTime+0x15a>
						if(sTime.Minutes < 60)
 80012b0:	4b1b      	ldr	r3, [pc, #108]	@ (8001320 <ConfigTime+0x19c>)
 80012b2:	785b      	ldrb	r3, [r3, #1]
							sTime.Minutes = 0;
 80012b4:	2200      	movs	r2, #0
						if(sTime.Minutes < 60)
 80012b6:	2b3b      	cmp	r3, #59	@ 0x3b
 80012b8:	d801      	bhi.n	80012be <ConfigTime+0x13a>
							sTime.Minutes++;
 80012ba:	3301      	adds	r3, #1
 80012bc:	b2da      	uxtb	r2, r3
 80012be:	4b18      	ldr	r3, [pc, #96]	@ (8001320 <ConfigTime+0x19c>)
 80012c0:	705a      	strb	r2, [r3, #1]
						tim3 = 0;
 80012c2:	4b26      	ldr	r3, [pc, #152]	@ (800135c <ConfigTime+0x1d8>)
 80012c4:	2200      	movs	r2, #0
 80012c6:	701a      	strb	r2, [r3, #0]
						TIM3->CNT = 0;
 80012c8:	4b25      	ldr	r3, [pc, #148]	@ (8001360 <ConfigTime+0x1dc>)
 80012ca:	625a      	str	r2, [r3, #36]	@ 0x24
						TIM3->SR &= ~TIM_SR_UIF;
 80012cc:	691a      	ldr	r2, [r3, #16]
 80012ce:	2101      	movs	r1, #1
 80012d0:	438a      	bics	r2, r1
 80012d2:	611a      	str	r2, [r3, #16]
						TIM3->ARR = 200;
 80012d4:	22c8      	movs	r2, #200	@ 0xc8
 80012d6:	62da      	str	r2, [r3, #44]	@ 0x2c
						HAL_TIM_Base_Start_IT(&htim3);
 80012d8:	4822      	ldr	r0, [pc, #136]	@ (8001364 <ConfigTime+0x1e0>)
 80012da:	f003 fd0f 	bl	8004cfc <HAL_TIM_Base_Start_IT>
					if(sw1 && tim3){
 80012de:	4b1d      	ldr	r3, [pc, #116]	@ (8001354 <ConfigTime+0x1d0>)
 80012e0:	781b      	ldrb	r3, [r3, #0]
 80012e2:	2b00      	cmp	r3, #0
 80012e4:	d01a      	beq.n	800131c <ConfigTime+0x198>
 80012e6:	4b1d      	ldr	r3, [pc, #116]	@ (800135c <ConfigTime+0x1d8>)
 80012e8:	781b      	ldrb	r3, [r3, #0]
 80012ea:	2b00      	cmp	r3, #0
 80012ec:	d016      	beq.n	800131c <ConfigTime+0x198>
						if(sTime.Hours < 24)
 80012ee:	4b0c      	ldr	r3, [pc, #48]	@ (8001320 <ConfigTime+0x19c>)
 80012f0:	781b      	ldrb	r3, [r3, #0]
							sTime.Hours = 0;
 80012f2:	2200      	movs	r2, #0
						if(sTime.Hours < 24)
 80012f4:	2b17      	cmp	r3, #23
 80012f6:	d801      	bhi.n	80012fc <ConfigTime+0x178>
							sTime.Hours++;
 80012f8:	3301      	adds	r3, #1
 80012fa:	b2da      	uxtb	r2, r3
 80012fc:	4b08      	ldr	r3, [pc, #32]	@ (8001320 <ConfigTime+0x19c>)
 80012fe:	701a      	strb	r2, [r3, #0]
						tim3 = 0;
 8001300:	4b16      	ldr	r3, [pc, #88]	@ (800135c <ConfigTime+0x1d8>)
 8001302:	2200      	movs	r2, #0
 8001304:	701a      	strb	r2, [r3, #0]
						TIM3->CNT = 0;
 8001306:	4b16      	ldr	r3, [pc, #88]	@ (8001360 <ConfigTime+0x1dc>)
 8001308:	625a      	str	r2, [r3, #36]	@ 0x24
						TIM3->SR &= ~TIM_SR_UIF;
 800130a:	691a      	ldr	r2, [r3, #16]
 800130c:	2101      	movs	r1, #1
 800130e:	438a      	bics	r2, r1
 8001310:	611a      	str	r2, [r3, #16]
						TIM3->ARR = 200;
 8001312:	22c8      	movs	r2, #200	@ 0xc8
 8001314:	62da      	str	r2, [r3, #44]	@ 0x2c
						HAL_TIM_Base_Start_IT(&htim3);
 8001316:	4813      	ldr	r0, [pc, #76]	@ (8001364 <ConfigTime+0x1e0>)
 8001318:	f003 fcf0 	bl	8004cfc <HAL_TIM_Base_Start_IT>
}
 800131c:	b002      	add	sp, #8
 800131e:	bd10      	pop	{r4, pc}
 8001320:	200000c4 	.word	0x200000c4
 8001324:	0800712c 	.word	0x0800712c
 8001328:	200000ac 	.word	0x200000ac
 800132c:	080070d8 	.word	0x080070d8
 8001330:	080070e4 	.word	0x080070e4
 8001334:	080070f0 	.word	0x080070f0
 8001338:	08007108 	.word	0x08007108
 800133c:	080070fc 	.word	0x080070fc
 8001340:	200001bc 	.word	0x200001bc
 8001344:	2000009d 	.word	0x2000009d
 8001348:	08007114 	.word	0x08007114
 800134c:	08007120 	.word	0x08007120
 8001350:	20000008 	.word	0x20000008
 8001354:	200000a0 	.word	0x200000a0
 8001358:	2000009e 	.word	0x2000009e
 800135c:	20000014 	.word	0x20000014
 8001360:	40000400 	.word	0x40000400
 8001364:	20000170 	.word	0x20000170
 8001368:	2000009f 	.word	0x2000009f

0800136c <DetectImpulse>:
void DetectImpulse(){
 800136c:	b510      	push	{r4, lr}
	if((impulse  && tim3) || (TIM14->CNT  > 5050)){
 800136e:	4b23      	ldr	r3, [pc, #140]	@ (80013fc <DetectImpulse+0x90>)
 8001370:	781b      	ldrb	r3, [r3, #0]
 8001372:	2b00      	cmp	r3, #0
 8001374:	d003      	beq.n	800137e <DetectImpulse+0x12>
 8001376:	4b22      	ldr	r3, [pc, #136]	@ (8001400 <DetectImpulse+0x94>)
 8001378:	781b      	ldrb	r3, [r3, #0]
 800137a:	2b00      	cmp	r3, #0
 800137c:	d104      	bne.n	8001388 <DetectImpulse+0x1c>
 800137e:	4b21      	ldr	r3, [pc, #132]	@ (8001404 <DetectImpulse+0x98>)
 8001380:	6a5a      	ldr	r2, [r3, #36]	@ 0x24
 8001382:	4b21      	ldr	r3, [pc, #132]	@ (8001408 <DetectImpulse+0x9c>)
 8001384:	429a      	cmp	r2, r3
 8001386:	d91f      	bls.n	80013c8 <DetectImpulse+0x5c>
				if(TIM14->CNT > 5050){
 8001388:	4b1e      	ldr	r3, [pc, #120]	@ (8001404 <DetectImpulse+0x98>)
 800138a:	6a5a      	ldr	r2, [r3, #36]	@ 0x24
 800138c:	4b1e      	ldr	r3, [pc, #120]	@ (8001408 <DetectImpulse+0x9c>)
 800138e:	429a      	cmp	r2, r3
 8001390:	d81b      	bhi.n	80013ca <DetectImpulse+0x5e>
			if(timer){
 8001392:	4b1e      	ldr	r3, [pc, #120]	@ (800140c <DetectImpulse+0xa0>)
 8001394:	781b      	ldrb	r3, [r3, #0]
 8001396:	2b00      	cmp	r3, #0
 8001398:	d023      	beq.n	80013e2 <DetectImpulse+0x76>
				duration = TIM14->CNT;
 800139a:	4a1a      	ldr	r2, [pc, #104]	@ (8001404 <DetectImpulse+0x98>)
 800139c:	6a53      	ldr	r3, [r2, #36]	@ 0x24
 800139e:	b29b      	uxth	r3, r3
 80013a0:	491b      	ldr	r1, [pc, #108]	@ (8001410 <DetectImpulse+0xa4>)
 80013a2:	800b      	strh	r3, [r1, #0]
				TIM14->CNT = 0;
 80013a4:	2300      	movs	r3, #0
 80013a6:	6253      	str	r3, [r2, #36]	@ 0x24
	tim3 = 0;
 80013a8:	4b15      	ldr	r3, [pc, #84]	@ (8001400 <DetectImpulse+0x94>)
 80013aa:	2200      	movs	r2, #0
 80013ac:	701a      	strb	r2, [r3, #0]
	TIM3->CNT = 0;
 80013ae:	4b19      	ldr	r3, [pc, #100]	@ (8001414 <DetectImpulse+0xa8>)
 80013b0:	625a      	str	r2, [r3, #36]	@ 0x24
	TIM3->SR &= ~TIM_SR_UIF;
 80013b2:	6919      	ldr	r1, [r3, #16]
 80013b4:	2001      	movs	r0, #1
 80013b6:	4381      	bics	r1, r0
 80013b8:	6119      	str	r1, [r3, #16]
	TIM3->ARR = 29;
 80013ba:	211d      	movs	r1, #29
 80013bc:	62d9      	str	r1, [r3, #44]	@ 0x2c
	impulse = 0;
 80013be:	4b0f      	ldr	r3, [pc, #60]	@ (80013fc <DetectImpulse+0x90>)
 80013c0:	701a      	strb	r2, [r3, #0]
	HAL_TIM_Base_Start_IT(&htim3);
 80013c2:	4815      	ldr	r0, [pc, #84]	@ (8001418 <DetectImpulse+0xac>)
 80013c4:	f003 fc9a 	bl	8004cfc <HAL_TIM_Base_Start_IT>
}
 80013c8:	bd10      	pop	{r4, pc}
					HAL_TIM_Base_Stop(&htim14);
 80013ca:	4814      	ldr	r0, [pc, #80]	@ (800141c <DetectImpulse+0xb0>)
 80013cc:	f003 fc80 	bl	8004cd0 <HAL_TIM_Base_Stop>
					duration = 5025;
 80013d0:	4b0f      	ldr	r3, [pc, #60]	@ (8001410 <DetectImpulse+0xa4>)
 80013d2:	4a13      	ldr	r2, [pc, #76]	@ (8001420 <DetectImpulse+0xb4>)
 80013d4:	801a      	strh	r2, [r3, #0]
					TIM14->CNT = 0;
 80013d6:	2300      	movs	r3, #0
 80013d8:	4a0a      	ldr	r2, [pc, #40]	@ (8001404 <DetectImpulse+0x98>)
 80013da:	6253      	str	r3, [r2, #36]	@ 0x24
					timer = 0;
 80013dc:	4a0b      	ldr	r2, [pc, #44]	@ (800140c <DetectImpulse+0xa0>)
 80013de:	7013      	strb	r3, [r2, #0]
 80013e0:	e7f2      	b.n	80013c8 <DetectImpulse+0x5c>
				TIM14->CNT = 0;
 80013e2:	4b08      	ldr	r3, [pc, #32]	@ (8001404 <DetectImpulse+0x98>)
 80013e4:	2200      	movs	r2, #0
 80013e6:	625a      	str	r2, [r3, #36]	@ 0x24
				TIM14->SR &= ~TIM_SR_UIF;
 80013e8:	691a      	ldr	r2, [r3, #16]
 80013ea:	2401      	movs	r4, #1
 80013ec:	43a2      	bics	r2, r4
 80013ee:	611a      	str	r2, [r3, #16]
				HAL_TIM_Base_Start(&htim14);
 80013f0:	480a      	ldr	r0, [pc, #40]	@ (800141c <DetectImpulse+0xb0>)
 80013f2:	f003 fc3f 	bl	8004c74 <HAL_TIM_Base_Start>
				timer = 1;
 80013f6:	4b05      	ldr	r3, [pc, #20]	@ (800140c <DetectImpulse+0xa0>)
 80013f8:	701c      	strb	r4, [r3, #0]
 80013fa:	e7d5      	b.n	80013a8 <DetectImpulse+0x3c>
 80013fc:	2000009c 	.word	0x2000009c
 8001400:	20000014 	.word	0x20000014
 8001404:	40002000 	.word	0x40002000
 8001408:	000013ba 	.word	0x000013ba
 800140c:	20000090 	.word	0x20000090
 8001410:	20000010 	.word	0x20000010
 8001414:	40000400 	.word	0x40000400
 8001418:	20000170 	.word	0x20000170
 800141c:	20000124 	.word	0x20000124
 8001420:	000013a1 	.word	0x000013a1

08001424 <CalculateSpeed>:
void CalculateSpeed(){
 8001424:	b570      	push	{r4, r5, r6, lr}
 8001426:	b084      	sub	sp, #16
	if(TIM14->CNT > duration)
 8001428:	4b3b      	ldr	r3, [pc, #236]	@ (8001518 <CalculateSpeed+0xf4>)
 800142a:	6a5a      	ldr	r2, [r3, #36]	@ 0x24
 800142c:	4b3b      	ldr	r3, [pc, #236]	@ (800151c <CalculateSpeed+0xf8>)
 800142e:	881b      	ldrh	r3, [r3, #0]
 8001430:	b29b      	uxth	r3, r3
 8001432:	429a      	cmp	r2, r3
 8001434:	d904      	bls.n	8001440 <CalculateSpeed+0x1c>
	 duration = TIM14->CNT;
 8001436:	4b38      	ldr	r3, [pc, #224]	@ (8001518 <CalculateSpeed+0xf4>)
 8001438:	6a5b      	ldr	r3, [r3, #36]	@ 0x24
 800143a:	b29b      	uxth	r3, r3
 800143c:	4a37      	ldr	r2, [pc, #220]	@ (800151c <CalculateSpeed+0xf8>)
 800143e:	8013      	strh	r3, [r2, #0]
	if(duration < 5000){
 8001440:	4b36      	ldr	r3, [pc, #216]	@ (800151c <CalculateSpeed+0xf8>)
 8001442:	881b      	ldrh	r3, [r3, #0]
 8001444:	b29b      	uxth	r3, r3
 8001446:	4a36      	ldr	r2, [pc, #216]	@ (8001520 <CalculateSpeed+0xfc>)
 8001448:	4293      	cmp	r3, r2
 800144a:	d855      	bhi.n	80014f8 <CalculateSpeed+0xd4>
	speed = (size * 36)/duration  ;  // size = ? * 10^-3 ... speed = ... *10^3 -> del 10^+-3
 800144c:	4d33      	ldr	r5, [pc, #204]	@ (800151c <CalculateSpeed+0xf8>)
 800144e:	8829      	ldrh	r1, [r5, #0]
 8001450:	b289      	uxth	r1, r1
 8001452:	4b34      	ldr	r3, [pc, #208]	@ (8001524 <CalculateSpeed+0x100>)
 8001454:	881b      	ldrh	r3, [r3, #0]
 8001456:	00d8      	lsls	r0, r3, #3
 8001458:	18c0      	adds	r0, r0, r3
 800145a:	0080      	lsls	r0, r0, #2
 800145c:	f7fe fee4 	bl	8000228 <__divsi3>
 8001460:	b280      	uxth	r0, r0
 8001462:	4b31      	ldr	r3, [pc, #196]	@ (8001528 <CalculateSpeed+0x104>)
 8001464:	8018      	strh	r0, [r3, #0]
	smooth_speed = (SMOOTH_SPEED_A * speed + SMOOTH_SPEED_DEL * smooth_speed)/100;
 8001466:	8818      	ldrh	r0, [r3, #0]
 8001468:	4c30      	ldr	r4, [pc, #192]	@ (800152c <CalculateSpeed+0x108>)
 800146a:	8823      	ldrh	r3, [r4, #0]
 800146c:	0082      	lsls	r2, r0, #2
 800146e:	1880      	adds	r0, r0, r2
 8001470:	0082      	lsls	r2, r0, #2
 8001472:	1880      	adds	r0, r0, r2
 8001474:	009a      	lsls	r2, r3, #2
 8001476:	189b      	adds	r3, r3, r2
 8001478:	011a      	lsls	r2, r3, #4
 800147a:	1ad3      	subs	r3, r2, r3
 800147c:	18c0      	adds	r0, r0, r3
 800147e:	2164      	movs	r1, #100	@ 0x64
 8001480:	f7fe fed2 	bl	8000228 <__divsi3>
 8001484:	b280      	uxth	r0, r0
 8001486:	8020      	strh	r0, [r4, #0]
	volatile uint8_t real_speed1 = (uint16_t)smooth_speed / 10;
 8001488:	8820      	ldrh	r0, [r4, #0]
 800148a:	b280      	uxth	r0, r0
 800148c:	210a      	movs	r1, #10
 800148e:	f7fe fe41 	bl	8000114 <__udivsi3>
 8001492:	b2c0      	uxtb	r0, r0
 8001494:	260e      	movs	r6, #14
 8001496:	446e      	add	r6, sp
 8001498:	7030      	strb	r0, [r6, #0]
	volatile uint8_t real_speed2 = (uint16_t)smooth_speed % 10;
 800149a:	8820      	ldrh	r0, [r4, #0]
 800149c:	b280      	uxth	r0, r0
 800149e:	210a      	movs	r1, #10
 80014a0:	f7fe febe 	bl	8000220 <__aeabi_uidivmod>
 80014a4:	b2c9      	uxtb	r1, r1
 80014a6:	240f      	movs	r4, #15
 80014a8:	446c      	add	r4, sp
 80014aa:	7021      	strb	r1, [r4, #0]
		 ssd1306_SetCursor(20, 25);
 80014ac:	2119      	movs	r1, #25
 80014ae:	2014      	movs	r0, #20
 80014b0:	f000 fe10 	bl	80020d4 <ssd1306_SetCursor>
		 snprintf(buf, sizeof(buf), "%d.%dkh/h", real_speed1, real_speed2);
 80014b4:	7833      	ldrb	r3, [r6, #0]
 80014b6:	b2db      	uxtb	r3, r3
 80014b8:	7821      	ldrb	r1, [r4, #0]
 80014ba:	4a1d      	ldr	r2, [pc, #116]	@ (8001530 <CalculateSpeed+0x10c>)
 80014bc:	4c1d      	ldr	r4, [pc, #116]	@ (8001534 <CalculateSpeed+0x110>)
 80014be:	9100      	str	r1, [sp, #0]
 80014c0:	2114      	movs	r1, #20
 80014c2:	0020      	movs	r0, r4
 80014c4:	f003 fec6 	bl	8005254 <sniprintf>
		 ssd1306_WriteString(buf, Font_11x18);
 80014c8:	4e1b      	ldr	r6, [pc, #108]	@ (8001538 <CalculateSpeed+0x114>)
 80014ca:	6831      	ldr	r1, [r6, #0]
 80014cc:	6872      	ldr	r2, [r6, #4]
 80014ce:	0020      	movs	r0, r4
 80014d0:	f000 fdea 	bl	80020a8 <ssd1306_WriteString>
		 ssd1306_SetCursor(20, 45);
 80014d4:	212d      	movs	r1, #45	@ 0x2d
 80014d6:	2014      	movs	r0, #20
 80014d8:	f000 fdfc 	bl	80020d4 <ssd1306_SetCursor>
		 snprintf(buf, sizeof(buf), "%d", duration);
 80014dc:	882b      	ldrh	r3, [r5, #0]
 80014de:	b29b      	uxth	r3, r3
 80014e0:	4a16      	ldr	r2, [pc, #88]	@ (800153c <CalculateSpeed+0x118>)
 80014e2:	2114      	movs	r1, #20
 80014e4:	0020      	movs	r0, r4
 80014e6:	f003 feb5 	bl	8005254 <sniprintf>
		 ssd1306_WriteString(buf, Font_11x18);
 80014ea:	6831      	ldr	r1, [r6, #0]
 80014ec:	6872      	ldr	r2, [r6, #4]
 80014ee:	0020      	movs	r0, r4
 80014f0:	f000 fdda 	bl	80020a8 <ssd1306_WriteString>
}
 80014f4:	b004      	add	sp, #16
 80014f6:	bd70      	pop	{r4, r5, r6, pc}
		ssd1306_SetCursor(20, 25);
 80014f8:	2119      	movs	r1, #25
 80014fa:	2014      	movs	r0, #20
 80014fc:	f000 fdea 	bl	80020d4 <ssd1306_SetCursor>
		snprintf(buf, sizeof(buf), "0.0kh/h");
 8001500:	480c      	ldr	r0, [pc, #48]	@ (8001534 <CalculateSpeed+0x110>)
 8001502:	4b0f      	ldr	r3, [pc, #60]	@ (8001540 <CalculateSpeed+0x11c>)
 8001504:	0002      	movs	r2, r0
 8001506:	cb12      	ldmia	r3!, {r1, r4}
 8001508:	c212      	stmia	r2!, {r1, r4}
		ssd1306_WriteString(buf, Font_11x18);
 800150a:	4b0b      	ldr	r3, [pc, #44]	@ (8001538 <CalculateSpeed+0x114>)
 800150c:	6819      	ldr	r1, [r3, #0]
 800150e:	685a      	ldr	r2, [r3, #4]
 8001510:	f000 fdca 	bl	80020a8 <ssd1306_WriteString>
}
 8001514:	e7ee      	b.n	80014f4 <CalculateSpeed+0xd0>
 8001516:	46c0      	nop			@ (mov r8, r8)
 8001518:	40002000 	.word	0x40002000
 800151c:	20000010 	.word	0x20000010
 8001520:	00001387 	.word	0x00001387
 8001524:	20000012 	.word	0x20000012
 8001528:	200000a2 	.word	0x200000a2
 800152c:	200000a4 	.word	0x200000a4
 8001530:	08007138 	.word	0x08007138
 8001534:	200000ac 	.word	0x200000ac
 8001538:	20000000 	.word	0x20000000
 800153c:	08007134 	.word	0x08007134
 8001540:	08007144 	.word	0x08007144

08001544 <main>:
{
 8001544:	b5f0      	push	{r4, r5, r6, r7, lr}
 8001546:	46d6      	mov	lr, sl
 8001548:	464f      	mov	r7, r9
 800154a:	4646      	mov	r6, r8
 800154c:	b5c0      	push	{r6, r7, lr}
 800154e:	b08e      	sub	sp, #56	@ 0x38
  HAL_Init();
 8001550:	f001 f850 	bl	80025f4 <HAL_Init>
  SystemClock_Config();
 8001554:	f7ff fcea 	bl	8000f2c <SystemClock_Config>
  GPIO_InitTypeDef GPIO_InitStruct = {0};
 8001558:	2208      	movs	r2, #8
 800155a:	2100      	movs	r1, #0
 800155c:	a80a      	add	r0, sp, #40	@ 0x28
 800155e:	f003 fed1 	bl	8005304 <memset>
  __HAL_RCC_GPIOB_CLK_ENABLE();
 8001562:	4caf      	ldr	r4, [pc, #700]	@ (8001820 <main+0x2dc>)
 8001564:	6b62      	ldr	r2, [r4, #52]	@ 0x34
 8001566:	2302      	movs	r3, #2
 8001568:	431a      	orrs	r2, r3
 800156a:	6362      	str	r2, [r4, #52]	@ 0x34
 800156c:	6b62      	ldr	r2, [r4, #52]	@ 0x34
 800156e:	4013      	ands	r3, r2
 8001570:	9301      	str	r3, [sp, #4]
 8001572:	9b01      	ldr	r3, [sp, #4]
  __HAL_RCC_GPIOC_CLK_ENABLE();
 8001574:	6b62      	ldr	r2, [r4, #52]	@ 0x34
 8001576:	2304      	movs	r3, #4
 8001578:	431a      	orrs	r2, r3
 800157a:	6362      	str	r2, [r4, #52]	@ 0x34
 800157c:	6b62      	ldr	r2, [r4, #52]	@ 0x34
 800157e:	4013      	ands	r3, r2
 8001580:	9302      	str	r3, [sp, #8]
 8001582:	9b02      	ldr	r3, [sp, #8]
  __HAL_RCC_GPIOA_CLK_ENABLE();
 8001584:	6b63      	ldr	r3, [r4, #52]	@ 0x34
 8001586:	2501      	movs	r5, #1
 8001588:	432b      	orrs	r3, r5
 800158a:	6363      	str	r3, [r4, #52]	@ 0x34
 800158c:	6b63      	ldr	r3, [r4, #52]	@ 0x34
 800158e:	402b      	ands	r3, r5
 8001590:	9303      	str	r3, [sp, #12]
 8001592:	9b03      	ldr	r3, [sp, #12]
  GPIO_InitStruct.Pin = Sw3_Pin|Sw2_Pin|STDBY_BAT_Pin|CHRG_BAT_Pin;
 8001594:	23c6      	movs	r3, #198	@ 0xc6
 8001596:	015b      	lsls	r3, r3, #5
 8001598:	9307      	str	r3, [sp, #28]
  GPIO_InitStruct.Mode = GPIO_MODE_IT_RISING_FALLING;
 800159a:	26c4      	movs	r6, #196	@ 0xc4
 800159c:	03b6      	lsls	r6, r6, #14
 800159e:	9608      	str	r6, [sp, #32]
  GPIO_InitStruct.Pull = GPIO_PULLUP;
 80015a0:	9509      	str	r5, [sp, #36]	@ 0x24
  HAL_GPIO_Init(GPIOA, &GPIO_InitStruct);
 80015a2:	20a0      	movs	r0, #160	@ 0xa0
 80015a4:	a907      	add	r1, sp, #28
 80015a6:	05c0      	lsls	r0, r0, #23
 80015a8:	f002 f844 	bl	8003634 <HAL_GPIO_Init>
  GPIO_InitStruct.Pin = Sw1_Pin;
 80015ac:	9507      	str	r5, [sp, #28]
  GPIO_InitStruct.Mode = GPIO_MODE_IT_RISING_FALLING;
 80015ae:	9608      	str	r6, [sp, #32]
  GPIO_InitStruct.Pull = GPIO_PULLUP;
 80015b0:	9509      	str	r5, [sp, #36]	@ 0x24
  HAL_GPIO_Init(Sw1_GPIO_Port, &GPIO_InitStruct);
 80015b2:	a907      	add	r1, sp, #28
 80015b4:	489b      	ldr	r0, [pc, #620]	@ (8001824 <main+0x2e0>)
 80015b6:	f002 f83d 	bl	8003634 <HAL_GPIO_Init>
  HAL_NVIC_SetPriority(EXTI0_1_IRQn, 0, 0);
 80015ba:	2200      	movs	r2, #0
 80015bc:	2100      	movs	r1, #0
 80015be:	2005      	movs	r0, #5
 80015c0:	f001 fe88 	bl	80032d4 <HAL_NVIC_SetPriority>
  HAL_NVIC_EnableIRQ(EXTI0_1_IRQn);
 80015c4:	2005      	movs	r0, #5
 80015c6:	f001 feb7 	bl	8003338 <HAL_NVIC_EnableIRQ>
  HAL_NVIC_SetPriority(EXTI4_15_IRQn, 0, 0);
 80015ca:	2200      	movs	r2, #0
 80015cc:	2100      	movs	r1, #0
 80015ce:	2007      	movs	r0, #7
 80015d0:	f001 fe80 	bl	80032d4 <HAL_NVIC_SetPriority>
  HAL_NVIC_EnableIRQ(EXTI4_15_IRQn);
 80015d4:	2007      	movs	r0, #7
 80015d6:	f001 feaf 	bl	8003338 <HAL_NVIC_EnableIRQ>
  __HAL_RCC_DMA1_CLK_ENABLE();
 80015da:	6ba3      	ldr	r3, [r4, #56]	@ 0x38
 80015dc:	432b      	orrs	r3, r5
 80015de:	63a3      	str	r3, [r4, #56]	@ 0x38
 80015e0:	6ba3      	ldr	r3, [r4, #56]	@ 0x38
 80015e2:	402b      	ands	r3, r5
 80015e4:	9300      	str	r3, [sp, #0]
 80015e6:	9b00      	ldr	r3, [sp, #0]
  HAL_NVIC_SetPriority(DMA1_Channel1_IRQn, 0, 0);
 80015e8:	2200      	movs	r2, #0
 80015ea:	2100      	movs	r1, #0
 80015ec:	2009      	movs	r0, #9
 80015ee:	f001 fe71 	bl	80032d4 <HAL_NVIC_SetPriority>
  HAL_NVIC_EnableIRQ(DMA1_Channel1_IRQn);
 80015f2:	2009      	movs	r0, #9
 80015f4:	f001 fea0 	bl	8003338 <HAL_NVIC_EnableIRQ>
  hi2c1.Instance = I2C1;
 80015f8:	488b      	ldr	r0, [pc, #556]	@ (8001828 <main+0x2e4>)
 80015fa:	4b8c      	ldr	r3, [pc, #560]	@ (800182c <main+0x2e8>)
 80015fc:	6003      	str	r3, [r0, #0]
  hi2c1.Init.Timing = 0x00300617;
 80015fe:	4b8c      	ldr	r3, [pc, #560]	@ (8001830 <main+0x2ec>)
 8001600:	6043      	str	r3, [r0, #4]
  hi2c1.Init.OwnAddress1 = 0;
 8001602:	2300      	movs	r3, #0
 8001604:	6083      	str	r3, [r0, #8]
  hi2c1.Init.AddressingMode = I2C_ADDRESSINGMODE_7BIT;
 8001606:	60c5      	str	r5, [r0, #12]
  hi2c1.Init.DualAddressMode = I2C_DUALADDRESS_DISABLE;
 8001608:	6103      	str	r3, [r0, #16]
  hi2c1.Init.OwnAddress2 = 0;
 800160a:	6143      	str	r3, [r0, #20]
  hi2c1.Init.OwnAddress2Masks = I2C_OA2_NOMASK;
 800160c:	6183      	str	r3, [r0, #24]
  hi2c1.Init.GeneralCallMode = I2C_GENERALCALL_DISABLE;
 800160e:	61c3      	str	r3, [r0, #28]
  hi2c1.Init.NoStretchMode = I2C_NOSTRETCH_DISABLE;
 8001610:	6203      	str	r3, [r0, #32]
  if (HAL_I2C_Init(&hi2c1) != HAL_OK)
 8001612:	f002 fa77 	bl	8003b04 <HAL_I2C_Init>
 8001616:	2800      	cmp	r0, #0
 8001618:	d000      	beq.n	800161c <main+0xd8>
 800161a:	e0e7      	b.n	80017ec <main+0x2a8>
  if (HAL_I2CEx_ConfigAnalogFilter(&hi2c1, I2C_ANALOGFILTER_ENABLE) != HAL_OK)
 800161c:	4882      	ldr	r0, [pc, #520]	@ (8001828 <main+0x2e4>)
 800161e:	2100      	movs	r1, #0
 8001620:	f002 fc7c 	bl	8003f1c <HAL_I2CEx_ConfigAnalogFilter>
 8001624:	2800      	cmp	r0, #0
 8001626:	d000      	beq.n	800162a <main+0xe6>
 8001628:	e0e2      	b.n	80017f0 <main+0x2ac>
  if (HAL_I2CEx_ConfigDigitalFilter(&hi2c1, 0) != HAL_OK)
 800162a:	487f      	ldr	r0, [pc, #508]	@ (8001828 <main+0x2e4>)
 800162c:	2100      	movs	r1, #0
 800162e:	f002 fca1 	bl	8003f74 <HAL_I2CEx_ConfigDigitalFilter>
 8001632:	2800      	cmp	r0, #0
 8001634:	d000      	beq.n	8001638 <main+0xf4>
 8001636:	e0dd      	b.n	80017f4 <main+0x2b0>
  ADC_AnalogWDGConfTypeDef AnalogWDGConfig = {0};
 8001638:	2218      	movs	r2, #24
 800163a:	2100      	movs	r1, #0
 800163c:	a807      	add	r0, sp, #28
 800163e:	f003 fe61 	bl	8005304 <memset>
  ADC_ChannelConfTypeDef sConfig = {0};
 8001642:	220c      	movs	r2, #12
 8001644:	2100      	movs	r1, #0
 8001646:	a804      	add	r0, sp, #16
 8001648:	f003 fe5c 	bl	8005304 <memset>
  hadc1.Instance = ADC1;
 800164c:	4879      	ldr	r0, [pc, #484]	@ (8001834 <main+0x2f0>)
 800164e:	4b7a      	ldr	r3, [pc, #488]	@ (8001838 <main+0x2f4>)
 8001650:	6003      	str	r3, [r0, #0]
  hadc1.Init.ClockPrescaler = ADC_CLOCK_ASYNC_DIV4;
 8001652:	2380      	movs	r3, #128	@ 0x80
 8001654:	031b      	lsls	r3, r3, #12
 8001656:	6043      	str	r3, [r0, #4]
  hadc1.Init.Resolution = ADC_RESOLUTION_12B;
 8001658:	2300      	movs	r3, #0
 800165a:	6083      	str	r3, [r0, #8]
  hadc1.Init.DataAlign = ADC_DATAALIGN_RIGHT;
 800165c:	60c3      	str	r3, [r0, #12]
  hadc1.Init.ScanConvMode = ADC_SCAN_ENABLE;
 800165e:	2280      	movs	r2, #128	@ 0x80
 8001660:	0392      	lsls	r2, r2, #14
 8001662:	6102      	str	r2, [r0, #16]
  hadc1.Init.EOCSelection = ADC_EOC_SINGLE_CONV;
 8001664:	2204      	movs	r2, #4
 8001666:	6142      	str	r2, [r0, #20]
  hadc1.Init.LowPowerAutoWait = DISABLE;
 8001668:	7603      	strb	r3, [r0, #24]
  hadc1.Init.LowPowerAutoPowerOff = DISABLE;
 800166a:	7643      	strb	r3, [r0, #25]
  hadc1.Init.ContinuousConvMode = ENABLE;
 800166c:	3a03      	subs	r2, #3
 800166e:	7682      	strb	r2, [r0, #26]
  hadc1.Init.NbrOfConversion = 2;
 8001670:	2102      	movs	r1, #2
 8001672:	61c1      	str	r1, [r0, #28]
  hadc1.Init.DiscontinuousConvMode = DISABLE;
 8001674:	311e      	adds	r1, #30
 8001676:	5443      	strb	r3, [r0, r1]
  hadc1.Init.ExternalTrigConv = ADC_SOFTWARE_START;
 8001678:	6243      	str	r3, [r0, #36]	@ 0x24
  hadc1.Init.ExternalTrigConvEdge = ADC_EXTERNALTRIGCONVEDGE_NONE;
 800167a:	6283      	str	r3, [r0, #40]	@ 0x28
  hadc1.Init.DMAContinuousRequests = ENABLE;
 800167c:	310c      	adds	r1, #12
 800167e:	5442      	strb	r2, [r0, r1]
  hadc1.Init.Overrun = ADC_OVR_DATA_PRESERVED;
 8001680:	6303      	str	r3, [r0, #48]	@ 0x30
  hadc1.Init.SamplingTimeCommon1 = ADC_SAMPLETIME_160CYCLES_5;
 8001682:	3206      	adds	r2, #6
 8001684:	6342      	str	r2, [r0, #52]	@ 0x34
  hadc1.Init.SamplingTimeCommon2 = ADC_SAMPLETIME_1CYCLE_5;
 8001686:	6383      	str	r3, [r0, #56]	@ 0x38
  hadc1.Init.OversamplingMode = DISABLE;
 8001688:	3235      	adds	r2, #53	@ 0x35
 800168a:	5483      	strb	r3, [r0, r2]
  hadc1.Init.TriggerFrequencyMode = ADC_TRIGGER_FREQ_HIGH;
 800168c:	64c3      	str	r3, [r0, #76]	@ 0x4c
  if (HAL_ADC_Init(&hadc1) != HAL_OK)
 800168e:	f000 ffd7 	bl	8002640 <HAL_ADC_Init>
 8001692:	2800      	cmp	r0, #0
 8001694:	d000      	beq.n	8001698 <main+0x154>
 8001696:	e0af      	b.n	80017f8 <main+0x2b4>
  AnalogWDGConfig.WatchdogNumber = ADC_ANALOGWATCHDOG_1;
 8001698:	a907      	add	r1, sp, #28
 800169a:	4b68      	ldr	r3, [pc, #416]	@ (800183c <main+0x2f8>)
 800169c:	9307      	str	r3, [sp, #28]
  AnalogWDGConfig.WatchdogMode = ADC_ANALOGWATCHDOG_SINGLE_REG;
 800169e:	23c0      	movs	r3, #192	@ 0xc0
 80016a0:	041b      	lsls	r3, r3, #16
 80016a2:	604b      	str	r3, [r1, #4]
  AnalogWDGConfig.Channel = ADC_CHANNEL_5;
 80016a4:	4b66      	ldr	r3, [pc, #408]	@ (8001840 <main+0x2fc>)
 80016a6:	608b      	str	r3, [r1, #8]
  AnalogWDGConfig.ITMode = ENABLE;
 80016a8:	2301      	movs	r3, #1
 80016aa:	730b      	strb	r3, [r1, #12]
  AnalogWDGConfig.HighThreshold = 2300;
 80016ac:	4b65      	ldr	r3, [pc, #404]	@ (8001844 <main+0x300>)
 80016ae:	610b      	str	r3, [r1, #16]
  AnalogWDGConfig.LowThreshold = 2000;
 80016b0:	3b2d      	subs	r3, #45	@ 0x2d
 80016b2:	3bff      	subs	r3, #255	@ 0xff
 80016b4:	614b      	str	r3, [r1, #20]
  if (HAL_ADC_AnalogWDGConfig(&hadc1, &AnalogWDGConfig) != HAL_OK)
 80016b6:	485f      	ldr	r0, [pc, #380]	@ (8001834 <main+0x2f0>)
 80016b8:	f001 fc2e 	bl	8002f18 <HAL_ADC_AnalogWDGConfig>
 80016bc:	2800      	cmp	r0, #0
 80016be:	d000      	beq.n	80016c2 <main+0x17e>
 80016c0:	e09c      	b.n	80017fc <main+0x2b8>
  sConfig.Channel = ADC_CHANNEL_3;
 80016c2:	4b61      	ldr	r3, [pc, #388]	@ (8001848 <main+0x304>)
 80016c4:	9304      	str	r3, [sp, #16]
  sConfig.Rank = ADC_REGULAR_RANK_1;
 80016c6:	2300      	movs	r3, #0
 80016c8:	9305      	str	r3, [sp, #20]
  sConfig.SamplingTime = ADC_SAMPLINGTIME_COMMON_1;
 80016ca:	9306      	str	r3, [sp, #24]
  if (HAL_ADC_ConfigChannel(&hadc1, &sConfig) != HAL_OK)
 80016cc:	4859      	ldr	r0, [pc, #356]	@ (8001834 <main+0x2f0>)
 80016ce:	a904      	add	r1, sp, #16
 80016d0:	f001 f9d2 	bl	8002a78 <HAL_ADC_ConfigChannel>
 80016d4:	2800      	cmp	r0, #0
 80016d6:	d000      	beq.n	80016da <main+0x196>
 80016d8:	e092      	b.n	8001800 <main+0x2bc>
  sConfig.Channel = ADC_CHANNEL_5;
 80016da:	4b59      	ldr	r3, [pc, #356]	@ (8001840 <main+0x2fc>)
 80016dc:	9304      	str	r3, [sp, #16]
  sConfig.Rank = ADC_REGULAR_RANK_2;
 80016de:	2304      	movs	r3, #4
 80016e0:	9305      	str	r3, [sp, #20]
  sConfig.SamplingTime = ADC_SAMPLINGTIME_COMMON_2;
 80016e2:	4b5a      	ldr	r3, [pc, #360]	@ (800184c <main+0x308>)
 80016e4:	9306      	str	r3, [sp, #24]
  if (HAL_ADC_ConfigChannel(&hadc1, &sConfig) != HAL_OK)
 80016e6:	4853      	ldr	r0, [pc, #332]	@ (8001834 <main+0x2f0>)
 80016e8:	a904      	add	r1, sp, #16
 80016ea:	f001 f9c5 	bl	8002a78 <HAL_ADC_ConfigChannel>
 80016ee:	2800      	cmp	r0, #0
 80016f0:	d000      	beq.n	80016f4 <main+0x1b0>
 80016f2:	e087      	b.n	8001804 <main+0x2c0>
  hrtc.Instance = RTC;
 80016f4:	4856      	ldr	r0, [pc, #344]	@ (8001850 <main+0x30c>)
 80016f6:	4b57      	ldr	r3, [pc, #348]	@ (8001854 <main+0x310>)
 80016f8:	6003      	str	r3, [r0, #0]
  hrtc.Init.HourFormat = RTC_HOURFORMAT_24;
 80016fa:	2300      	movs	r3, #0
 80016fc:	6083      	str	r3, [r0, #8]
  hrtc.Init.AsynchPrediv = 127;
 80016fe:	227f      	movs	r2, #127	@ 0x7f
 8001700:	60c2      	str	r2, [r0, #12]
  hrtc.Init.SynchPrediv = 255;
 8001702:	3280      	adds	r2, #128	@ 0x80
 8001704:	6102      	str	r2, [r0, #16]
  hrtc.Init.OutPut = RTC_OUTPUT_DISABLE;
 8001706:	6143      	str	r3, [r0, #20]
  hrtc.Init.OutPutRemap = RTC_OUTPUT_REMAP_NONE;
 8001708:	6183      	str	r3, [r0, #24]
  hrtc.Init.OutPutPolarity = RTC_OUTPUT_POLARITY_HIGH;
 800170a:	61c3      	str	r3, [r0, #28]
  hrtc.Init.OutPutType = RTC_OUTPUT_TYPE_OPENDRAIN;
 800170c:	2280      	movs	r2, #128	@ 0x80
 800170e:	05d2      	lsls	r2, r2, #23
 8001710:	6202      	str	r2, [r0, #32]
  hrtc.Init.OutPutPullUp = RTC_OUTPUT_PULLUP_NONE;
 8001712:	6243      	str	r3, [r0, #36]	@ 0x24
  if (HAL_RTC_Init(&hrtc) != HAL_OK)
 8001714:	f003 f982 	bl	8004a1c <HAL_RTC_Init>
 8001718:	2800      	cmp	r0, #0
 800171a:	d175      	bne.n	8001808 <main+0x2c4>
  htim16.Instance = TIM16;
 800171c:	484e      	ldr	r0, [pc, #312]	@ (8001858 <main+0x314>)
 800171e:	4b4f      	ldr	r3, [pc, #316]	@ (800185c <main+0x318>)
 8001720:	6003      	str	r3, [r0, #0]
  htim16.Init.Prescaler = 15999;
 8001722:	4b4f      	ldr	r3, [pc, #316]	@ (8001860 <main+0x31c>)
 8001724:	6043      	str	r3, [r0, #4]
  htim16.Init.CounterMode = TIM_COUNTERMODE_UP;
 8001726:	2300      	movs	r3, #0
 8001728:	6083      	str	r3, [r0, #8]
  htim16.Init.Period = 0xFFFF;
 800172a:	4a4e      	ldr	r2, [pc, #312]	@ (8001864 <main+0x320>)
 800172c:	60c2      	str	r2, [r0, #12]
  htim16.Init.ClockDivision = TIM_CLOCKDIVISION_DIV1;
 800172e:	6103      	str	r3, [r0, #16]
  htim16.Init.RepetitionCounter = 0;
 8001730:	6143      	str	r3, [r0, #20]
  htim16.Init.AutoReloadPreload = TIM_AUTORELOAD_PRELOAD_DISABLE;
 8001732:	6183      	str	r3, [r0, #24]
  if (HAL_TIM_Base_Init(&htim16) != HAL_OK)
 8001734:	f003 fc58 	bl	8004fe8 <HAL_TIM_Base_Init>
 8001738:	2800      	cmp	r0, #0
 800173a:	d167      	bne.n	800180c <main+0x2c8>
  htim14.Instance = TIM14;
 800173c:	484a      	ldr	r0, [pc, #296]	@ (8001868 <main+0x324>)
 800173e:	4b4b      	ldr	r3, [pc, #300]	@ (800186c <main+0x328>)
 8001740:	6003      	str	r3, [r0, #0]
  htim14.Init.Prescaler = 15999;
 8001742:	4b47      	ldr	r3, [pc, #284]	@ (8001860 <main+0x31c>)
 8001744:	6043      	str	r3, [r0, #4]
  htim14.Init.CounterMode = TIM_COUNTERMODE_UP;
 8001746:	2300      	movs	r3, #0
 8001748:	6083      	str	r3, [r0, #8]
  htim14.Init.Period = 0xFFFF;
 800174a:	4a46      	ldr	r2, [pc, #280]	@ (8001864 <main+0x320>)
 800174c:	60c2      	str	r2, [r0, #12]
  htim14.Init.ClockDivision = TIM_CLOCKDIVISION_DIV1;
 800174e:	6103      	str	r3, [r0, #16]
  htim14.Init.AutoReloadPreload = TIM_AUTORELOAD_PRELOAD_DISABLE;
 8001750:	6183      	str	r3, [r0, #24]
  if (HAL_TIM_Base_Init(&htim14) != HAL_OK)
 8001752:	f003 fc49 	bl	8004fe8 <HAL_TIM_Base_Init>
 8001756:	2800      	cmp	r0, #0
 8001758:	d15a      	bne.n	8001810 <main+0x2cc>
  TIM_ClockConfigTypeDef sClockSourceConfig = {0};
 800175a:	2210      	movs	r2, #16
 800175c:	2100      	movs	r1, #0
 800175e:	a807      	add	r0, sp, #28
 8001760:	f003 fdd0 	bl	8005304 <memset>
  TIM_MasterConfigTypeDef sMasterConfig = {0};
 8001764:	220c      	movs	r2, #12
 8001766:	2100      	movs	r1, #0
 8001768:	a804      	add	r0, sp, #16
 800176a:	f003 fdcb 	bl	8005304 <memset>
  htim3.Instance = TIM3;
 800176e:	4840      	ldr	r0, [pc, #256]	@ (8001870 <main+0x32c>)
 8001770:	4b40      	ldr	r3, [pc, #256]	@ (8001874 <main+0x330>)
 8001772:	6003      	str	r3, [r0, #0]
  htim3.Init.Prescaler = 15999;
 8001774:	4b3a      	ldr	r3, [pc, #232]	@ (8001860 <main+0x31c>)
 8001776:	6043      	str	r3, [r0, #4]
  htim3.Init.CounterMode = TIM_COUNTERMODE_UP;
 8001778:	2300      	movs	r3, #0
 800177a:	6083      	str	r3, [r0, #8]
  htim3.Init.Period = 59;
 800177c:	223b      	movs	r2, #59	@ 0x3b
 800177e:	60c2      	str	r2, [r0, #12]
  htim3.Init.ClockDivision = TIM_CLOCKDIVISION_DIV1;
 8001780:	6103      	str	r3, [r0, #16]
  htim3.Init.AutoReloadPreload = TIM_AUTORELOAD_PRELOAD_DISABLE;
 8001782:	6183      	str	r3, [r0, #24]
  if (HAL_TIM_Base_Init(&htim3) != HAL_OK)
 8001784:	f003 fc30 	bl	8004fe8 <HAL_TIM_Base_Init>
 8001788:	2800      	cmp	r0, #0
 800178a:	d143      	bne.n	8001814 <main+0x2d0>
  sClockSourceConfig.ClockSource = TIM_CLOCKSOURCE_INTERNAL;
 800178c:	2380      	movs	r3, #128	@ 0x80
 800178e:	015b      	lsls	r3, r3, #5
 8001790:	9307      	str	r3, [sp, #28]
  if (HAL_TIM_ConfigClockSource(&htim3, &sClockSourceConfig) != HAL_OK)
 8001792:	4837      	ldr	r0, [pc, #220]	@ (8001870 <main+0x32c>)
 8001794:	a907      	add	r1, sp, #28
 8001796:	f003 fc63 	bl	8005060 <HAL_TIM_ConfigClockSource>
 800179a:	2800      	cmp	r0, #0
 800179c:	d13c      	bne.n	8001818 <main+0x2d4>
  sMasterConfig.MasterOutputTrigger = TIM_TRGO_RESET;
 800179e:	2300      	movs	r3, #0
 80017a0:	9304      	str	r3, [sp, #16]
  sMasterConfig.MasterSlaveMode = TIM_MASTERSLAVEMODE_DISABLE;
 80017a2:	9306      	str	r3, [sp, #24]
  if (HAL_TIMEx_MasterConfigSynchronization(&htim3, &sMasterConfig) != HAL_OK)
 80017a4:	4832      	ldr	r0, [pc, #200]	@ (8001870 <main+0x32c>)
 80017a6:	a904      	add	r1, sp, #16
 80017a8:	f003 fd18 	bl	80051dc <HAL_TIMEx_MasterConfigSynchronization>
 80017ac:	2800      	cmp	r0, #0
 80017ae:	d135      	bne.n	800181c <main+0x2d8>
  ssd1306_Init();
 80017b0:	f000 fcb2 	bl	8002118 <ssd1306_Init>
    ssd1306_FlipScreenVertically();
 80017b4:	f000 fc9e 	bl	80020f4 <ssd1306_FlipScreenVertically>
    ssd1306_Clear();
 80017b8:	f000 fca4 	bl	8002104 <ssd1306_Clear>
    ssd1306_SetColor(White);
 80017bc:	2001      	movs	r0, #1
 80017be:	f000 fb9f 	bl	8001f00 <ssd1306_SetColor>
HAL_ADC_Start_DMA(&hadc1, (uint32_t *)adc, 2);
 80017c2:	4c2d      	ldr	r4, [pc, #180]	@ (8001878 <main+0x334>)
 80017c4:	481b      	ldr	r0, [pc, #108]	@ (8001834 <main+0x2f0>)
 80017c6:	2202      	movs	r2, #2
 80017c8:	0021      	movs	r1, r4
 80017ca:	f001 faff 	bl	8002dcc <HAL_ADC_Start_DMA>
dead_zone = adc[1];
 80017ce:	8862      	ldrh	r2, [r4, #2]
 80017d0:	4b2a      	ldr	r3, [pc, #168]	@ (800187c <main+0x338>)
 80017d2:	801a      	strh	r2, [r3, #0]
direct_zone = 250;
 80017d4:	4b2a      	ldr	r3, [pc, #168]	@ (8001880 <main+0x33c>)
 80017d6:	22fa      	movs	r2, #250	@ 0xfa
 80017d8:	801a      	strh	r2, [r3, #0]
volatile uint16_t time = 0;
 80017da:	2336      	movs	r3, #54	@ 0x36
 80017dc:	446b      	add	r3, sp
 80017de:	2200      	movs	r2, #0
 80017e0:	801a      	strh	r2, [r3, #0]
	  if(sw1 && sw3){
 80017e2:	4c28      	ldr	r4, [pc, #160]	@ (8001884 <main+0x340>)
if(sw1 && sw3)
 80017e4:	46a2      	mov	sl, r4
if(con >= 3)
 80017e6:	4b28      	ldr	r3, [pc, #160]	@ (8001888 <main+0x344>)
 80017e8:	4698      	mov	r8, r3
 80017ea:	e318      	b.n	8001e1e <main+0x8da>
 80017ec:	b672      	cpsid	i
  while (1)
 80017ee:	e7fe      	b.n	80017ee <main+0x2aa>
 80017f0:	b672      	cpsid	i
 80017f2:	e7fe      	b.n	80017f2 <main+0x2ae>
 80017f4:	b672      	cpsid	i
 80017f6:	e7fe      	b.n	80017f6 <main+0x2b2>
 80017f8:	b672      	cpsid	i
 80017fa:	e7fe      	b.n	80017fa <main+0x2b6>
 80017fc:	b672      	cpsid	i
 80017fe:	e7fe      	b.n	80017fe <main+0x2ba>
 8001800:	b672      	cpsid	i
 8001802:	e7fe      	b.n	8001802 <main+0x2be>
 8001804:	b672      	cpsid	i
 8001806:	e7fe      	b.n	8001806 <main+0x2c2>
 8001808:	b672      	cpsid	i
 800180a:	e7fe      	b.n	800180a <main+0x2c6>
 800180c:	b672      	cpsid	i
 800180e:	e7fe      	b.n	800180e <main+0x2ca>
 8001810:	b672      	cpsid	i
 8001812:	e7fe      	b.n	8001812 <main+0x2ce>
 8001814:	b672      	cpsid	i
 8001816:	e7fe      	b.n	8001816 <main+0x2d2>
 8001818:	b672      	cpsid	i
 800181a:	e7fe      	b.n	800181a <main+0x2d6>
 800181c:	b672      	cpsid	i
 800181e:	e7fe      	b.n	800181e <main+0x2da>
 8001820:	40021000 	.word	0x40021000
 8001824:	50000400 	.word	0x50000400
 8001828:	200001e8 	.word	0x200001e8
 800182c:	40005400 	.word	0x40005400
 8001830:	00300617 	.word	0x00300617
 8001834:	20000298 	.word	0x20000298
 8001838:	40012400 	.word	0x40012400
 800183c:	7cc00000 	.word	0x7cc00000
 8001840:	14000020 	.word	0x14000020
 8001844:	000008fc 	.word	0x000008fc
 8001848:	0c000008 	.word	0x0c000008
 800184c:	07ffff04 	.word	0x07ffff04
 8001850:	200001bc 	.word	0x200001bc
 8001854:	40002800 	.word	0x40002800
 8001858:	200000d8 	.word	0x200000d8
 800185c:	40014400 	.word	0x40014400
 8001860:	00003e7f 	.word	0x00003e7f
 8001864:	0000ffff 	.word	0x0000ffff
 8001868:	20000124 	.word	0x20000124
 800186c:	40002000 	.word	0x40002000
 8001870:	20000170 	.word	0x20000170
 8001874:	40000400 	.word	0x40000400
 8001878:	200000a8 	.word	0x200000a8
 800187c:	2000009a 	.word	0x2000009a
 8001880:	20000098 	.word	0x20000098
 8001884:	200000a0 	.word	0x200000a0
 8001888:	20000097 	.word	0x20000097
		  HAL_TIM_Base_Start(&htim16);
 800188c:	48d5      	ldr	r0, [pc, #852]	@ (8001be4 <main+0x6a0>)
 800188e:	f003 f9f1 	bl	8004c74 <HAL_TIM_Base_Start>
		  if(TIM16->CNT >= 1500){
 8001892:	4bd5      	ldr	r3, [pc, #852]	@ (8001be8 <main+0x6a4>)
 8001894:	6a5a      	ldr	r2, [r3, #36]	@ 0x24
 8001896:	4bd5      	ldr	r3, [pc, #852]	@ (8001bec <main+0x6a8>)
 8001898:	429a      	cmp	r2, r3
 800189a:	d800      	bhi.n	800189e <main+0x35a>
 800189c:	e2cd      	b.n	8001e3a <main+0x8f6>
			  config = 1;
 800189e:	4bd4      	ldr	r3, [pc, #848]	@ (8001bf0 <main+0x6ac>)
 80018a0:	2201      	movs	r2, #1
 80018a2:	701a      	strb	r2, [r3, #0]
			  sw1 = 0;
 80018a4:	4bd3      	ldr	r3, [pc, #844]	@ (8001bf4 <main+0x6b0>)
 80018a6:	2200      	movs	r2, #0
 80018a8:	701a      	strb	r2, [r3, #0]
			  sw3 = 0;
 80018aa:	4bd3      	ldr	r3, [pc, #844]	@ (8001bf8 <main+0x6b4>)
 80018ac:	701a      	strb	r2, [r3, #0]
if(sw1 && sw3)
 80018ae:	4653      	mov	r3, sl
 80018b0:	781b      	ldrb	r3, [r3, #0]
 80018b2:	2b00      	cmp	r3, #0
 80018b4:	d07a      	beq.n	80019ac <main+0x468>
 80018b6:	4bd0      	ldr	r3, [pc, #832]	@ (8001bf8 <main+0x6b4>)
 80018b8:	781b      	ldrb	r3, [r3, #0]
 80018ba:	2b00      	cmp	r3, #0
 80018bc:	d076      	beq.n	80019ac <main+0x468>
	__NOP();
 80018be:	46c0      	nop			@ (mov r8, r8)
if(con >= 3)
 80018c0:	4643      	mov	r3, r8
 80018c2:	781b      	ldrb	r3, [r3, #0]
 80018c4:	b25b      	sxtb	r3, r3
 80018c6:	2b02      	cmp	r3, #2
 80018c8:	dc00      	bgt.n	80018cc <main+0x388>
 80018ca:	e0a7      	b.n	8001a1c <main+0x4d8>
	con = 0;
 80018cc:	4bcb      	ldr	r3, [pc, #812]	@ (8001bfc <main+0x6b8>)
 80018ce:	2200      	movs	r2, #0
 80018d0:	701a      	strb	r2, [r3, #0]
		ssd1306_SetCursor(0, 0);
 80018d2:	2100      	movs	r1, #0
 80018d4:	2000      	movs	r0, #0
 80018d6:	f000 fbfd 	bl	80020d4 <ssd1306_SetCursor>
		sprintf(buf, "Set time");
 80018da:	4fc9      	ldr	r7, [pc, #804]	@ (8001c00 <main+0x6bc>)
 80018dc:	4bc9      	ldr	r3, [pc, #804]	@ (8001c04 <main+0x6c0>)
 80018de:	0038      	movs	r0, r7
 80018e0:	cb06      	ldmia	r3!, {r1, r2}
 80018e2:	c006      	stmia	r0!, {r1, r2}
 80018e4:	781b      	ldrb	r3, [r3, #0]
 80018e6:	7003      	strb	r3, [r0, #0]
		ssd1306_WriteString(buf, Font_11x18);
 80018e8:	4dc7      	ldr	r5, [pc, #796]	@ (8001c08 <main+0x6c4>)
 80018ea:	6829      	ldr	r1, [r5, #0]
 80018ec:	686a      	ldr	r2, [r5, #4]
 80018ee:	0038      	movs	r0, r7
 80018f0:	f000 fbda 	bl	80020a8 <ssd1306_WriteString>
		ssd1306_SetCursor(0, 19);
 80018f4:	2113      	movs	r1, #19
 80018f6:	2000      	movs	r0, #0
 80018f8:	f000 fbec 	bl	80020d4 <ssd1306_SetCursor>
		sprintf(buf, "Calibration");
 80018fc:	4bc3      	ldr	r3, [pc, #780]	@ (8001c0c <main+0x6c8>)
 80018fe:	003a      	movs	r2, r7
 8001900:	cb43      	ldmia	r3!, {r0, r1, r6}
 8001902:	c243      	stmia	r2!, {r0, r1, r6}
		ssd1306_WriteString(buf, Font_11x18);
 8001904:	6829      	ldr	r1, [r5, #0]
 8001906:	686a      	ldr	r2, [r5, #4]
 8001908:	0038      	movs	r0, r7
 800190a:	f000 fbcd 	bl	80020a8 <ssd1306_WriteString>
		ssd1306_SetCursor(0, 38);
 800190e:	2126      	movs	r1, #38	@ 0x26
 8001910:	2000      	movs	r0, #0
 8001912:	f000 fbdf 	bl	80020d4 <ssd1306_SetCursor>
		sprintf(buf, "Set size");
 8001916:	4bbe      	ldr	r3, [pc, #760]	@ (8001c10 <main+0x6cc>)
 8001918:	003a      	movs	r2, r7
 800191a:	cb03      	ldmia	r3!, {r0, r1}
 800191c:	c203      	stmia	r2!, {r0, r1}
 800191e:	781b      	ldrb	r3, [r3, #0]
 8001920:	7013      	strb	r3, [r2, #0]
		ssd1306_WriteString(buf, Font_11x18);
 8001922:	6829      	ldr	r1, [r5, #0]
 8001924:	686a      	ldr	r2, [r5, #4]
 8001926:	0038      	movs	r0, r7
 8001928:	f000 fbbe 	bl	80020a8 <ssd1306_WriteString>
		if(sw2 && tim3){
 800192c:	4bb9      	ldr	r3, [pc, #740]	@ (8001c14 <main+0x6d0>)
 800192e:	781b      	ldrb	r3, [r3, #0]
 8001930:	2b00      	cmp	r3, #0
 8001932:	d100      	bne.n	8001936 <main+0x3f2>
 8001934:	e26f      	b.n	8001e16 <main+0x8d2>
 8001936:	4bb8      	ldr	r3, [pc, #736]	@ (8001c18 <main+0x6d4>)
 8001938:	781b      	ldrb	r3, [r3, #0]
 800193a:	2b00      	cmp	r3, #0
 800193c:	d100      	bne.n	8001940 <main+0x3fc>
 800193e:	e26a      	b.n	8001e16 <main+0x8d2>
			config = 2;
 8001940:	4bab      	ldr	r3, [pc, #684]	@ (8001bf0 <main+0x6ac>)
 8001942:	2202      	movs	r2, #2
 8001944:	701a      	strb	r2, [r3, #0]
			tim3 = 0;
 8001946:	4bb4      	ldr	r3, [pc, #720]	@ (8001c18 <main+0x6d4>)
 8001948:	2200      	movs	r2, #0
 800194a:	701a      	strb	r2, [r3, #0]
			TIM3->CNT = 0;
 800194c:	4bb3      	ldr	r3, [pc, #716]	@ (8001c1c <main+0x6d8>)
 800194e:	625a      	str	r2, [r3, #36]	@ 0x24
			TIM3->SR &= ~TIM_SR_UIF;
 8001950:	691a      	ldr	r2, [r3, #16]
 8001952:	2101      	movs	r1, #1
 8001954:	438a      	bics	r2, r1
 8001956:	611a      	str	r2, [r3, #16]
			TIM3->ARR = DELAY;
 8001958:	22c8      	movs	r2, #200	@ 0xc8
 800195a:	62da      	str	r2, [r3, #44]	@ 0x2c
			HAL_TIM_Base_Start_IT(&htim3);
 800195c:	48b0      	ldr	r0, [pc, #704]	@ (8001c20 <main+0x6dc>)
 800195e:	f003 f9cd 	bl	8004cfc <HAL_TIM_Base_Start_IT>
 8001962:	e258      	b.n	8001e16 <main+0x8d2>
WriteTime();
 8001964:	f7ff fb2a 	bl	8000fbc <WriteTime>
WriteBatteryCharge(BatteryCharge());
 8001968:	f7ff fbaa 	bl	80010c0 <BatteryCharge>
 800196c:	f7ff fbec 	bl	8001148 <WriteBatteryCharge>
time = TIM14->CNT;
 8001970:	4bac      	ldr	r3, [pc, #688]	@ (8001c24 <main+0x6e0>)
 8001972:	6a5b      	ldr	r3, [r3, #36]	@ 0x24
 8001974:	b29b      	uxth	r3, r3
 8001976:	2736      	movs	r7, #54	@ 0x36
 8001978:	446f      	add	r7, sp
 800197a:	803b      	strh	r3, [r7, #0]
HAL_TIM_Base_Start(&htim14);
 800197c:	48aa      	ldr	r0, [pc, #680]	@ (8001c28 <main+0x6e4>)
 800197e:	f003 f979 	bl	8004c74 <HAL_TIM_Base_Start>
time = 0;
 8001982:	2300      	movs	r3, #0
 8001984:	803b      	strh	r3, [r7, #0]
DetectImpulse();
 8001986:	f7ff fcf1 	bl	800136c <DetectImpulse>
CalculateSpeed();
 800198a:	f7ff fd4b 	bl	8001424 <CalculateSpeed>
if(sw2)
 800198e:	4ba1      	ldr	r3, [pc, #644]	@ (8001c14 <main+0x6d0>)
 8001990:	781b      	ldrb	r3, [r3, #0]
 8001992:	2b00      	cmp	r3, #0
 8001994:	d107      	bne.n	80019a6 <main+0x462>
else if(sw1)
 8001996:	4b97      	ldr	r3, [pc, #604]	@ (8001bf4 <main+0x6b0>)
 8001998:	781b      	ldrb	r3, [r3, #0]
 800199a:	2b00      	cmp	r3, #0
 800199c:	d100      	bne.n	80019a0 <main+0x45c>
 800199e:	e23a      	b.n	8001e16 <main+0x8d2>
	 ssd1306_NormalDisplay();
 80019a0:	f000 fba3 	bl	80020ea <ssd1306_NormalDisplay>
 80019a4:	e237      	b.n	8001e16 <main+0x8d2>
	ssd1306_InvertDisplay();
 80019a6:	f000 fb9b 	bl	80020e0 <ssd1306_InvertDisplay>
 80019aa:	e234      	b.n	8001e16 <main+0x8d2>
else if(sw3 && tim3){
 80019ac:	4b92      	ldr	r3, [pc, #584]	@ (8001bf8 <main+0x6b4>)
 80019ae:	781b      	ldrb	r3, [r3, #0]
 80019b0:	2b00      	cmp	r3, #0
 80019b2:	d003      	beq.n	80019bc <main+0x478>
 80019b4:	4b98      	ldr	r3, [pc, #608]	@ (8001c18 <main+0x6d4>)
 80019b6:	781b      	ldrb	r3, [r3, #0]
 80019b8:	2b00      	cmp	r3, #0
 80019ba:	d11c      	bne.n	80019f6 <main+0x4b2>
else if(sw1 && tim3){
 80019bc:	4b8d      	ldr	r3, [pc, #564]	@ (8001bf4 <main+0x6b0>)
 80019be:	781b      	ldrb	r3, [r3, #0]
 80019c0:	2b00      	cmp	r3, #0
 80019c2:	d100      	bne.n	80019c6 <main+0x482>
 80019c4:	e77c      	b.n	80018c0 <main+0x37c>
 80019c6:	4b94      	ldr	r3, [pc, #592]	@ (8001c18 <main+0x6d4>)
 80019c8:	781b      	ldrb	r3, [r3, #0]
 80019ca:	2b00      	cmp	r3, #0
 80019cc:	d100      	bne.n	80019d0 <main+0x48c>
 80019ce:	e777      	b.n	80018c0 <main+0x37c>
	con--;
 80019d0:	4a8a      	ldr	r2, [pc, #552]	@ (8001bfc <main+0x6b8>)
 80019d2:	7813      	ldrb	r3, [r2, #0]
 80019d4:	3b01      	subs	r3, #1
 80019d6:	7013      	strb	r3, [r2, #0]
	tim3 = 0;
 80019d8:	4b8f      	ldr	r3, [pc, #572]	@ (8001c18 <main+0x6d4>)
 80019da:	2200      	movs	r2, #0
 80019dc:	701a      	strb	r2, [r3, #0]
	TIM3->CNT = 0;
 80019de:	4b8f      	ldr	r3, [pc, #572]	@ (8001c1c <main+0x6d8>)
 80019e0:	625a      	str	r2, [r3, #36]	@ 0x24
	TIM3->SR &= ~TIM_SR_UIF;
 80019e2:	691a      	ldr	r2, [r3, #16]
 80019e4:	2101      	movs	r1, #1
 80019e6:	438a      	bics	r2, r1
 80019e8:	611a      	str	r2, [r3, #16]
	TIM3->ARR = DELAY;
 80019ea:	22c8      	movs	r2, #200	@ 0xc8
 80019ec:	62da      	str	r2, [r3, #44]	@ 0x2c
	HAL_TIM_Base_Start_IT(&htim3);
 80019ee:	488c      	ldr	r0, [pc, #560]	@ (8001c20 <main+0x6dc>)
 80019f0:	f003 f984 	bl	8004cfc <HAL_TIM_Base_Start_IT>
 80019f4:	e764      	b.n	80018c0 <main+0x37c>
	con++;
 80019f6:	4a81      	ldr	r2, [pc, #516]	@ (8001bfc <main+0x6b8>)
 80019f8:	7813      	ldrb	r3, [r2, #0]
 80019fa:	3301      	adds	r3, #1
 80019fc:	7013      	strb	r3, [r2, #0]
	tim3 = 0;
 80019fe:	4b86      	ldr	r3, [pc, #536]	@ (8001c18 <main+0x6d4>)
 8001a00:	2200      	movs	r2, #0
 8001a02:	701a      	strb	r2, [r3, #0]
	TIM3->CNT = 0;
 8001a04:	4b85      	ldr	r3, [pc, #532]	@ (8001c1c <main+0x6d8>)
 8001a06:	625a      	str	r2, [r3, #36]	@ 0x24
	TIM3->SR &= ~TIM_SR_UIF;
 8001a08:	691a      	ldr	r2, [r3, #16]
 8001a0a:	2101      	movs	r1, #1
 8001a0c:	438a      	bics	r2, r1
 8001a0e:	611a      	str	r2, [r3, #16]
	TIM3->ARR = DELAY;
 8001a10:	22c8      	movs	r2, #200	@ 0xc8
 8001a12:	62da      	str	r2, [r3, #44]	@ 0x2c
	HAL_TIM_Base_Start_IT(&htim3);
 8001a14:	4882      	ldr	r0, [pc, #520]	@ (8001c20 <main+0x6dc>)
 8001a16:	f003 f971 	bl	8004cfc <HAL_TIM_Base_Start_IT>
 8001a1a:	e751      	b.n	80018c0 <main+0x37c>
else if(con < 0)
 8001a1c:	2b00      	cmp	r3, #0
 8001a1e:	db07      	blt.n	8001a30 <main+0x4ec>
switch (con) {
 8001a20:	2b01      	cmp	r3, #1
 8001a22:	d051      	beq.n	8001ac8 <main+0x584>
 8001a24:	2b02      	cmp	r3, #2
 8001a26:	d006      	beq.n	8001a36 <main+0x4f2>
 8001a28:	2b00      	cmp	r3, #0
 8001a2a:	d000      	beq.n	8001a2e <main+0x4ea>
 8001a2c:	e1f3      	b.n	8001e16 <main+0x8d2>
 8001a2e:	e750      	b.n	80018d2 <main+0x38e>
	con = 2;
 8001a30:	4b72      	ldr	r3, [pc, #456]	@ (8001bfc <main+0x6b8>)
 8001a32:	2202      	movs	r2, #2
 8001a34:	701a      	strb	r2, [r3, #0]
		ssd1306_SetCursor(0, 0);
 8001a36:	2100      	movs	r1, #0
 8001a38:	2000      	movs	r0, #0
 8001a3a:	f000 fb4b 	bl	80020d4 <ssd1306_SetCursor>
		sprintf(buf, "Calibration");
 8001a3e:	4f70      	ldr	r7, [pc, #448]	@ (8001c00 <main+0x6bc>)
 8001a40:	4b72      	ldr	r3, [pc, #456]	@ (8001c0c <main+0x6c8>)
 8001a42:	003a      	movs	r2, r7
 8001a44:	cb23      	ldmia	r3!, {r0, r1, r5}
 8001a46:	c223      	stmia	r2!, {r0, r1, r5}
		ssd1306_WriteString(buf, Font_11x18);
 8001a48:	4d6f      	ldr	r5, [pc, #444]	@ (8001c08 <main+0x6c4>)
 8001a4a:	6829      	ldr	r1, [r5, #0]
 8001a4c:	686a      	ldr	r2, [r5, #4]
 8001a4e:	0038      	movs	r0, r7
 8001a50:	f000 fb2a 	bl	80020a8 <ssd1306_WriteString>
		ssd1306_SetCursor(0, 19);
 8001a54:	2113      	movs	r1, #19
 8001a56:	2000      	movs	r0, #0
 8001a58:	f000 fb3c 	bl	80020d4 <ssd1306_SetCursor>
		sprintf(buf, "Set size");
 8001a5c:	4b6c      	ldr	r3, [pc, #432]	@ (8001c10 <main+0x6cc>)
 8001a5e:	0038      	movs	r0, r7
 8001a60:	cb06      	ldmia	r3!, {r1, r2}
 8001a62:	c006      	stmia	r0!, {r1, r2}
 8001a64:	781b      	ldrb	r3, [r3, #0]
 8001a66:	7003      	strb	r3, [r0, #0]
		ssd1306_WriteString(buf, Font_11x18);
 8001a68:	6829      	ldr	r1, [r5, #0]
 8001a6a:	686a      	ldr	r2, [r5, #4]
 8001a6c:	0038      	movs	r0, r7
 8001a6e:	f000 fb1b 	bl	80020a8 <ssd1306_WriteString>
		ssd1306_SetCursor(0, 38);
 8001a72:	2126      	movs	r1, #38	@ 0x26
 8001a74:	2000      	movs	r0, #0
 8001a76:	f000 fb2d 	bl	80020d4 <ssd1306_SetCursor>
		sprintf(buf, "Set time");
 8001a7a:	4b62      	ldr	r3, [pc, #392]	@ (8001c04 <main+0x6c0>)
 8001a7c:	003a      	movs	r2, r7
 8001a7e:	cb03      	ldmia	r3!, {r0, r1}
 8001a80:	c203      	stmia	r2!, {r0, r1}
 8001a82:	781b      	ldrb	r3, [r3, #0]
 8001a84:	7013      	strb	r3, [r2, #0]
		ssd1306_WriteString(buf, Font_11x18);
 8001a86:	6829      	ldr	r1, [r5, #0]
 8001a88:	686a      	ldr	r2, [r5, #4]
 8001a8a:	0038      	movs	r0, r7
 8001a8c:	f000 fb0c 	bl	80020a8 <ssd1306_WriteString>
		if(sw2 && tim3){
 8001a90:	4b60      	ldr	r3, [pc, #384]	@ (8001c14 <main+0x6d0>)
 8001a92:	781b      	ldrb	r3, [r3, #0]
 8001a94:	2b00      	cmp	r3, #0
 8001a96:	d100      	bne.n	8001a9a <main+0x556>
 8001a98:	e1bd      	b.n	8001e16 <main+0x8d2>
 8001a9a:	4b5f      	ldr	r3, [pc, #380]	@ (8001c18 <main+0x6d4>)
 8001a9c:	781b      	ldrb	r3, [r3, #0]
 8001a9e:	2b00      	cmp	r3, #0
 8001aa0:	d100      	bne.n	8001aa4 <main+0x560>
 8001aa2:	e1b8      	b.n	8001e16 <main+0x8d2>
			config = 4;
 8001aa4:	4b52      	ldr	r3, [pc, #328]	@ (8001bf0 <main+0x6ac>)
 8001aa6:	2204      	movs	r2, #4
 8001aa8:	701a      	strb	r2, [r3, #0]
			tim3 = 0;
 8001aaa:	4b5b      	ldr	r3, [pc, #364]	@ (8001c18 <main+0x6d4>)
 8001aac:	2200      	movs	r2, #0
 8001aae:	701a      	strb	r2, [r3, #0]
			TIM3->CNT = 0;
 8001ab0:	4b5a      	ldr	r3, [pc, #360]	@ (8001c1c <main+0x6d8>)
 8001ab2:	625a      	str	r2, [r3, #36]	@ 0x24
			TIM3->SR &= ~TIM_SR_UIF;
 8001ab4:	691a      	ldr	r2, [r3, #16]
 8001ab6:	2101      	movs	r1, #1
 8001ab8:	438a      	bics	r2, r1
 8001aba:	611a      	str	r2, [r3, #16]
			TIM3->ARR = DELAY;
 8001abc:	22c8      	movs	r2, #200	@ 0xc8
 8001abe:	62da      	str	r2, [r3, #44]	@ 0x2c
			HAL_TIM_Base_Start_IT(&htim3);
 8001ac0:	4857      	ldr	r0, [pc, #348]	@ (8001c20 <main+0x6dc>)
 8001ac2:	f003 f91b 	bl	8004cfc <HAL_TIM_Base_Start_IT>
 8001ac6:	e1a6      	b.n	8001e16 <main+0x8d2>
		ssd1306_SetCursor(0, 0);
 8001ac8:	2100      	movs	r1, #0
 8001aca:	2000      	movs	r0, #0
 8001acc:	f000 fb02 	bl	80020d4 <ssd1306_SetCursor>
		sprintf(buf, "Set size");
 8001ad0:	4f4b      	ldr	r7, [pc, #300]	@ (8001c00 <main+0x6bc>)
 8001ad2:	4b4f      	ldr	r3, [pc, #316]	@ (8001c10 <main+0x6cc>)
 8001ad4:	0038      	movs	r0, r7
 8001ad6:	cb06      	ldmia	r3!, {r1, r2}
 8001ad8:	c006      	stmia	r0!, {r1, r2}
 8001ada:	781b      	ldrb	r3, [r3, #0]
 8001adc:	7003      	strb	r3, [r0, #0]
		ssd1306_WriteString(buf, Font_11x18);
 8001ade:	4d4a      	ldr	r5, [pc, #296]	@ (8001c08 <main+0x6c4>)
 8001ae0:	6829      	ldr	r1, [r5, #0]
 8001ae2:	686a      	ldr	r2, [r5, #4]
 8001ae4:	0038      	movs	r0, r7
 8001ae6:	f000 fadf 	bl	80020a8 <ssd1306_WriteString>
		ssd1306_SetCursor(0, 19);
 8001aea:	2113      	movs	r1, #19
 8001aec:	2000      	movs	r0, #0
 8001aee:	f000 faf1 	bl	80020d4 <ssd1306_SetCursor>
		sprintf(buf, "Set time");
 8001af2:	4b44      	ldr	r3, [pc, #272]	@ (8001c04 <main+0x6c0>)
 8001af4:	003a      	movs	r2, r7
 8001af6:	cb03      	ldmia	r3!, {r0, r1}
 8001af8:	c203      	stmia	r2!, {r0, r1}
 8001afa:	781b      	ldrb	r3, [r3, #0]
 8001afc:	7013      	strb	r3, [r2, #0]
		ssd1306_WriteString(buf, Font_11x18);
 8001afe:	6829      	ldr	r1, [r5, #0]
 8001b00:	686a      	ldr	r2, [r5, #4]
 8001b02:	0038      	movs	r0, r7
 8001b04:	f000 fad0 	bl	80020a8 <ssd1306_WriteString>
		ssd1306_SetCursor(0, 38);
 8001b08:	2126      	movs	r1, #38	@ 0x26
 8001b0a:	2000      	movs	r0, #0
 8001b0c:	f000 fae2 	bl	80020d4 <ssd1306_SetCursor>
		sprintf(buf, "Calibration");
 8001b10:	4b3e      	ldr	r3, [pc, #248]	@ (8001c0c <main+0x6c8>)
 8001b12:	003a      	movs	r2, r7
 8001b14:	cb43      	ldmia	r3!, {r0, r1, r6}
 8001b16:	c243      	stmia	r2!, {r0, r1, r6}
		ssd1306_WriteString(buf, Font_11x18);
 8001b18:	6829      	ldr	r1, [r5, #0]
 8001b1a:	686a      	ldr	r2, [r5, #4]
 8001b1c:	0038      	movs	r0, r7
 8001b1e:	f000 fac3 	bl	80020a8 <ssd1306_WriteString>
		if(sw2 && tim3){
 8001b22:	4b3c      	ldr	r3, [pc, #240]	@ (8001c14 <main+0x6d0>)
 8001b24:	781b      	ldrb	r3, [r3, #0]
 8001b26:	2b00      	cmp	r3, #0
 8001b28:	d100      	bne.n	8001b2c <main+0x5e8>
 8001b2a:	e174      	b.n	8001e16 <main+0x8d2>
 8001b2c:	4b3a      	ldr	r3, [pc, #232]	@ (8001c18 <main+0x6d4>)
 8001b2e:	781b      	ldrb	r3, [r3, #0]
 8001b30:	2b00      	cmp	r3, #0
 8001b32:	d100      	bne.n	8001b36 <main+0x5f2>
 8001b34:	e16f      	b.n	8001e16 <main+0x8d2>
			config = 3;
 8001b36:	4b2e      	ldr	r3, [pc, #184]	@ (8001bf0 <main+0x6ac>)
 8001b38:	2203      	movs	r2, #3
 8001b3a:	701a      	strb	r2, [r3, #0]
			size = 0;
 8001b3c:	4b3b      	ldr	r3, [pc, #236]	@ (8001c2c <main+0x6e8>)
 8001b3e:	2200      	movs	r2, #0
 8001b40:	801a      	strh	r2, [r3, #0]
			tim3 = 0;
 8001b42:	4b35      	ldr	r3, [pc, #212]	@ (8001c18 <main+0x6d4>)
 8001b44:	2100      	movs	r1, #0
 8001b46:	7019      	strb	r1, [r3, #0]
			TIM3->CNT = 0;
 8001b48:	4b34      	ldr	r3, [pc, #208]	@ (8001c1c <main+0x6d8>)
 8001b4a:	625a      	str	r2, [r3, #36]	@ 0x24
			TIM3->SR &= ~TIM_SR_UIF;
 8001b4c:	691a      	ldr	r2, [r3, #16]
 8001b4e:	2101      	movs	r1, #1
 8001b50:	438a      	bics	r2, r1
 8001b52:	611a      	str	r2, [r3, #16]
			TIM3->ARR = DELAY;
 8001b54:	22c8      	movs	r2, #200	@ 0xc8
 8001b56:	62da      	str	r2, [r3, #44]	@ 0x2c
			HAL_TIM_Base_Start_IT(&htim3);
 8001b58:	4831      	ldr	r0, [pc, #196]	@ (8001c20 <main+0x6dc>)
 8001b5a:	f003 f8cf 	bl	8004cfc <HAL_TIM_Base_Start_IT>
 8001b5e:	e15a      	b.n	8001e16 <main+0x8d2>
		ConfigTime();
 8001b60:	f7ff fb10 	bl	8001184 <ConfigTime>
		break;
 8001b64:	e157      	b.n	8001e16 <main+0x8d2>
uint8_t table_of_size[6] = {20, 24, 26, 27, 28, 29};
 8001b66:	4b32      	ldr	r3, [pc, #200]	@ (8001c30 <main+0x6ec>)
 8001b68:	681a      	ldr	r2, [r3, #0]
 8001b6a:	9207      	str	r2, [sp, #28]
 8001b6c:	889a      	ldrh	r2, [r3, #4]
 8001b6e:	ab07      	add	r3, sp, #28
 8001b70:	809a      	strh	r2, [r3, #4]
		if(sw2 && tim3){
 8001b72:	4b28      	ldr	r3, [pc, #160]	@ (8001c14 <main+0x6d0>)
 8001b74:	781b      	ldrb	r3, [r3, #0]
 8001b76:	2b00      	cmp	r3, #0
 8001b78:	d06c      	beq.n	8001c54 <main+0x710>
 8001b7a:	4b27      	ldr	r3, [pc, #156]	@ (8001c18 <main+0x6d4>)
 8001b7c:	781b      	ldrb	r3, [r3, #0]
 8001b7e:	2b00      	cmp	r3, #0
 8001b80:	d068      	beq.n	8001c54 <main+0x710>
			config = 0;
 8001b82:	4b1b      	ldr	r3, [pc, #108]	@ (8001bf0 <main+0x6ac>)
 8001b84:	2200      	movs	r2, #0
 8001b86:	701a      	strb	r2, [r3, #0]
			switch(sizes){
 8001b88:	4b2a      	ldr	r3, [pc, #168]	@ (8001c34 <main+0x6f0>)
 8001b8a:	781a      	ldrb	r2, [r3, #0]
 8001b8c:	2a05      	cmp	r2, #5
 8001b8e:	d806      	bhi.n	8001b9e <main+0x65a>
 8001b90:	0093      	lsls	r3, r2, #2
 8001b92:	4a29      	ldr	r2, [pc, #164]	@ (8001c38 <main+0x6f4>)
 8001b94:	58d3      	ldr	r3, [r2, r3]
 8001b96:	469f      	mov	pc, r3
		size = INCH20_WHEEL;
 8001b98:	4b24      	ldr	r3, [pc, #144]	@ (8001c2c <main+0x6e8>)
 8001b9a:	4a28      	ldr	r2, [pc, #160]	@ (8001c3c <main+0x6f8>)
 8001b9c:	801a      	strh	r2, [r3, #0]
			tim3 = 0;
 8001b9e:	4b1e      	ldr	r3, [pc, #120]	@ (8001c18 <main+0x6d4>)
 8001ba0:	2200      	movs	r2, #0
 8001ba2:	701a      	strb	r2, [r3, #0]
			TIM3->CNT = 0;
 8001ba4:	4b1d      	ldr	r3, [pc, #116]	@ (8001c1c <main+0x6d8>)
 8001ba6:	625a      	str	r2, [r3, #36]	@ 0x24
			TIM3->SR &= ~TIM_SR_UIF;
 8001ba8:	691a      	ldr	r2, [r3, #16]
 8001baa:	2101      	movs	r1, #1
 8001bac:	438a      	bics	r2, r1
 8001bae:	611a      	str	r2, [r3, #16]
			TIM3->ARR = DELAY;
 8001bb0:	22c8      	movs	r2, #200	@ 0xc8
 8001bb2:	62da      	str	r2, [r3, #44]	@ 0x2c
			HAL_TIM_Base_Start_IT(&htim3);
 8001bb4:	481a      	ldr	r0, [pc, #104]	@ (8001c20 <main+0x6dc>)
 8001bb6:	f003 f8a1 	bl	8004cfc <HAL_TIM_Base_Start_IT>
			break;
 8001bba:	e12c      	b.n	8001e16 <main+0x8d2>
		size = INCH24_WHEEL;
 8001bbc:	4b1b      	ldr	r3, [pc, #108]	@ (8001c2c <main+0x6e8>)
 8001bbe:	4a20      	ldr	r2, [pc, #128]	@ (8001c40 <main+0x6fc>)
 8001bc0:	801a      	strh	r2, [r3, #0]
				break;
 8001bc2:	e7ec      	b.n	8001b9e <main+0x65a>
		size = INCH26_WHEEL;
 8001bc4:	4b19      	ldr	r3, [pc, #100]	@ (8001c2c <main+0x6e8>)
 8001bc6:	4a1f      	ldr	r2, [pc, #124]	@ (8001c44 <main+0x700>)
 8001bc8:	801a      	strh	r2, [r3, #0]
				break;
 8001bca:	e7e8      	b.n	8001b9e <main+0x65a>
		size = INCH27_WHEEL;
 8001bcc:	4b17      	ldr	r3, [pc, #92]	@ (8001c2c <main+0x6e8>)
 8001bce:	4a1e      	ldr	r2, [pc, #120]	@ (8001c48 <main+0x704>)
 8001bd0:	801a      	strh	r2, [r3, #0]
				break;
 8001bd2:	e7e4      	b.n	8001b9e <main+0x65a>
		size = INCH28_WHEEL;
 8001bd4:	4b15      	ldr	r3, [pc, #84]	@ (8001c2c <main+0x6e8>)
 8001bd6:	4a1d      	ldr	r2, [pc, #116]	@ (8001c4c <main+0x708>)
 8001bd8:	801a      	strh	r2, [r3, #0]
				break;
 8001bda:	e7e0      	b.n	8001b9e <main+0x65a>
		size = INCH29_WHEEL;
 8001bdc:	4b13      	ldr	r3, [pc, #76]	@ (8001c2c <main+0x6e8>)
 8001bde:	4a1c      	ldr	r2, [pc, #112]	@ (8001c50 <main+0x70c>)
 8001be0:	801a      	strh	r2, [r3, #0]
				break;
 8001be2:	e7dc      	b.n	8001b9e <main+0x65a>
 8001be4:	200000d8 	.word	0x200000d8
 8001be8:	40014400 	.word	0x40014400
 8001bec:	000005db 	.word	0x000005db
 8001bf0:	2000009d 	.word	0x2000009d
 8001bf4:	200000a0 	.word	0x200000a0
 8001bf8:	2000009e 	.word	0x2000009e
 8001bfc:	20000097 	.word	0x20000097
 8001c00:	200000ac 	.word	0x200000ac
 8001c04:	0800714c 	.word	0x0800714c
 8001c08:	20000000 	.word	0x20000000
 8001c0c:	08007158 	.word	0x08007158
 8001c10:	08007164 	.word	0x08007164
 8001c14:	2000009f 	.word	0x2000009f
 8001c18:	20000014 	.word	0x20000014
 8001c1c:	40000400 	.word	0x40000400
 8001c20:	20000170 	.word	0x20000170
 8001c24:	40002000 	.word	0x40002000
 8001c28:	20000124 	.word	0x20000124
 8001c2c:	20000012 	.word	0x20000012
 8001c30:	080071b8 	.word	0x080071b8
 8001c34:	20000096 	.word	0x20000096
 8001c38:	080071c0 	.word	0x080071c0
 8001c3c:	0000063b 	.word	0x0000063b
 8001c40:	0000077b 	.word	0x0000077b
 8001c44:	0000081a 	.word	0x0000081a
 8001c48:	0000086a 	.word	0x0000086a
 8001c4c:	000008ba 	.word	0x000008ba
 8001c50:	0000090a 	.word	0x0000090a
		else if(sw3 && tim3){
 8001c54:	4b87      	ldr	r3, [pc, #540]	@ (8001e74 <main+0x930>)
 8001c56:	781b      	ldrb	r3, [r3, #0]
 8001c58:	2b00      	cmp	r3, #0
 8001c5a:	d041      	beq.n	8001ce0 <main+0x79c>
 8001c5c:	4b86      	ldr	r3, [pc, #536]	@ (8001e78 <main+0x934>)
 8001c5e:	781b      	ldrb	r3, [r3, #0]
 8001c60:	2b00      	cmp	r3, #0
 8001c62:	d03d      	beq.n	8001ce0 <main+0x79c>
			sizes++;
 8001c64:	4b85      	ldr	r3, [pc, #532]	@ (8001e7c <main+0x938>)
 8001c66:	781b      	ldrb	r3, [r3, #0]
 8001c68:	3301      	adds	r3, #1
 8001c6a:	b25b      	sxtb	r3, r3
			if(sizes > 5)
 8001c6c:	2105      	movs	r1, #5
 8001c6e:	0fda      	lsrs	r2, r3, #31
 8001c70:	17c8      	asrs	r0, r1, #31
 8001c72:	4299      	cmp	r1, r3
 8001c74:	4142      	adcs	r2, r0
 8001c76:	4252      	negs	r2, r2
 8001c78:	4013      	ands	r3, r2
			sizes++;
 8001c7a:	4a80      	ldr	r2, [pc, #512]	@ (8001e7c <main+0x938>)
 8001c7c:	7013      	strb	r3, [r2, #0]
			tim3 = 0;
 8001c7e:	4b7e      	ldr	r3, [pc, #504]	@ (8001e78 <main+0x934>)
 8001c80:	2200      	movs	r2, #0
 8001c82:	701a      	strb	r2, [r3, #0]
			TIM3->CNT = 0;
 8001c84:	4b7e      	ldr	r3, [pc, #504]	@ (8001e80 <main+0x93c>)
 8001c86:	625a      	str	r2, [r3, #36]	@ 0x24
			TIM3->SR &= ~TIM_SR_UIF;
 8001c88:	691a      	ldr	r2, [r3, #16]
 8001c8a:	3904      	subs	r1, #4
 8001c8c:	438a      	bics	r2, r1
 8001c8e:	611a      	str	r2, [r3, #16]
			TIM3->ARR = DELAY;
 8001c90:	22c8      	movs	r2, #200	@ 0xc8
 8001c92:	62da      	str	r2, [r3, #44]	@ 0x2c
			HAL_TIM_Base_Start_IT(&htim3);
 8001c94:	487b      	ldr	r0, [pc, #492]	@ (8001e84 <main+0x940>)
 8001c96:	f003 f831 	bl	8004cfc <HAL_TIM_Base_Start_IT>
		ssd1306_SetCursor(33, 0);
 8001c9a:	2100      	movs	r1, #0
 8001c9c:	2021      	movs	r0, #33	@ 0x21
 8001c9e:	f000 fa19 	bl	80020d4 <ssd1306_SetCursor>
		sprintf(buf, "Wheel");
 8001ca2:	4f79      	ldr	r7, [pc, #484]	@ (8001e88 <main+0x944>)
 8001ca4:	4b79      	ldr	r3, [pc, #484]	@ (8001e8c <main+0x948>)
 8001ca6:	681a      	ldr	r2, [r3, #0]
 8001ca8:	603a      	str	r2, [r7, #0]
 8001caa:	889b      	ldrh	r3, [r3, #4]
 8001cac:	80bb      	strh	r3, [r7, #4]
		ssd1306_WriteString(buf, Font_11x18);
 8001cae:	4d78      	ldr	r5, [pc, #480]	@ (8001e90 <main+0x94c>)
 8001cb0:	6829      	ldr	r1, [r5, #0]
 8001cb2:	686a      	ldr	r2, [r5, #4]
 8001cb4:	0038      	movs	r0, r7
 8001cb6:	f000 f9f7 	bl	80020a8 <ssd1306_WriteString>
		ssd1306_SetCursor(0, 39);
 8001cba:	2127      	movs	r1, #39	@ 0x27
 8001cbc:	2000      	movs	r0, #0
 8001cbe:	f000 fa09 	bl	80020d4 <ssd1306_SetCursor>
		sprintf(buf, "Size:%dinch", table_of_size[sizes]);
 8001cc2:	4b6e      	ldr	r3, [pc, #440]	@ (8001e7c <main+0x938>)
 8001cc4:	781b      	ldrb	r3, [r3, #0]
 8001cc6:	b25b      	sxtb	r3, r3
 8001cc8:	aa07      	add	r2, sp, #28
 8001cca:	5cd2      	ldrb	r2, [r2, r3]
 8001ccc:	4971      	ldr	r1, [pc, #452]	@ (8001e94 <main+0x950>)
 8001cce:	0038      	movs	r0, r7
 8001cd0:	f003 faf6 	bl	80052c0 <siprintf>
		ssd1306_WriteString(buf, Font_11x18);
 8001cd4:	6829      	ldr	r1, [r5, #0]
 8001cd6:	686a      	ldr	r2, [r5, #4]
 8001cd8:	0038      	movs	r0, r7
 8001cda:	f000 f9e5 	bl	80020a8 <ssd1306_WriteString>
		break;
 8001cde:	e09a      	b.n	8001e16 <main+0x8d2>
		else if(sw1 && tim3){
 8001ce0:	4b6d      	ldr	r3, [pc, #436]	@ (8001e98 <main+0x954>)
 8001ce2:	781b      	ldrb	r3, [r3, #0]
 8001ce4:	2b00      	cmp	r3, #0
 8001ce6:	d0d8      	beq.n	8001c9a <main+0x756>
 8001ce8:	4b63      	ldr	r3, [pc, #396]	@ (8001e78 <main+0x934>)
 8001cea:	781b      	ldrb	r3, [r3, #0]
 8001cec:	2b00      	cmp	r3, #0
 8001cee:	d0d4      	beq.n	8001c9a <main+0x756>
			sizes--;
 8001cf0:	4b62      	ldr	r3, [pc, #392]	@ (8001e7c <main+0x938>)
 8001cf2:	781b      	ldrb	r3, [r3, #0]
 8001cf4:	3b01      	subs	r3, #1
 8001cf6:	b25a      	sxtb	r2, r3
			if(sizes < 0)
 8001cf8:	061b      	lsls	r3, r3, #24
 8001cfa:	d410      	bmi.n	8001d1e <main+0x7da>
			sizes--;
 8001cfc:	4b5f      	ldr	r3, [pc, #380]	@ (8001e7c <main+0x938>)
 8001cfe:	701a      	strb	r2, [r3, #0]
			tim3 = 0;
 8001d00:	4b5d      	ldr	r3, [pc, #372]	@ (8001e78 <main+0x934>)
 8001d02:	2200      	movs	r2, #0
 8001d04:	701a      	strb	r2, [r3, #0]
			TIM3->CNT = 0;
 8001d06:	4b5e      	ldr	r3, [pc, #376]	@ (8001e80 <main+0x93c>)
 8001d08:	625a      	str	r2, [r3, #36]	@ 0x24
			TIM3->SR &= ~TIM_SR_UIF;
 8001d0a:	691a      	ldr	r2, [r3, #16]
 8001d0c:	2101      	movs	r1, #1
 8001d0e:	438a      	bics	r2, r1
 8001d10:	611a      	str	r2, [r3, #16]
			TIM3->ARR = DELAY;
 8001d12:	22c8      	movs	r2, #200	@ 0xc8
 8001d14:	62da      	str	r2, [r3, #44]	@ 0x2c
			HAL_TIM_Base_Start_IT(&htim3);
 8001d16:	485b      	ldr	r0, [pc, #364]	@ (8001e84 <main+0x940>)
 8001d18:	f002 fff0 	bl	8004cfc <HAL_TIM_Base_Start_IT>
 8001d1c:	e7bd      	b.n	8001c9a <main+0x756>
 8001d1e:	2205      	movs	r2, #5
 8001d20:	e7ec      	b.n	8001cfc <main+0x7b8>
		if(zones){
 8001d22:	4b5e      	ldr	r3, [pc, #376]	@ (8001e9c <main+0x958>)
 8001d24:	781b      	ldrb	r3, [r3, #0]
 8001d26:	2b00      	cmp	r3, #0
 8001d28:	d039      	beq.n	8001d9e <main+0x85a>
			ssd1306_SetCursor(17, 0);
 8001d2a:	2100      	movs	r1, #0
 8001d2c:	2011      	movs	r0, #17
 8001d2e:	f000 f9d1 	bl	80020d4 <ssd1306_SetCursor>
			sprintf(buf, "Set direct zone");
 8001d32:	4855      	ldr	r0, [pc, #340]	@ (8001e88 <main+0x944>)
 8001d34:	4b5a      	ldr	r3, [pc, #360]	@ (8001ea0 <main+0x95c>)
 8001d36:	0002      	movs	r2, r0
 8001d38:	cba2      	ldmia	r3!, {r1, r5, r7}
 8001d3a:	c2a2      	stmia	r2!, {r1, r5, r7}
 8001d3c:	681b      	ldr	r3, [r3, #0]
 8001d3e:	6013      	str	r3, [r2, #0]
			ssd1306_WriteString(buf, Font_7x10);
 8001d40:	4b58      	ldr	r3, [pc, #352]	@ (8001ea4 <main+0x960>)
 8001d42:	6819      	ldr	r1, [r3, #0]
 8001d44:	685a      	ldr	r2, [r3, #4]
 8001d46:	f000 f9af 	bl	80020a8 <ssd1306_WriteString>
			if(sw2 && tim3){
 8001d4a:	4b57      	ldr	r3, [pc, #348]	@ (8001ea8 <main+0x964>)
 8001d4c:	781b      	ldrb	r3, [r3, #0]
 8001d4e:	2b00      	cmp	r3, #0
 8001d50:	d03d      	beq.n	8001dce <main+0x88a>
 8001d52:	4b49      	ldr	r3, [pc, #292]	@ (8001e78 <main+0x934>)
 8001d54:	781b      	ldrb	r3, [r3, #0]
 8001d56:	2b00      	cmp	r3, #0
 8001d58:	d039      	beq.n	8001dce <main+0x88a>
				direct_zone = adc[1];
 8001d5a:	4b54      	ldr	r3, [pc, #336]	@ (8001eac <main+0x968>)
 8001d5c:	885a      	ldrh	r2, [r3, #2]
 8001d5e:	b292      	uxth	r2, r2
				zones = 0;
 8001d60:	4b4e      	ldr	r3, [pc, #312]	@ (8001e9c <main+0x958>)
 8001d62:	2100      	movs	r1, #0
 8001d64:	7019      	strb	r1, [r3, #0]
				config = 0;
 8001d66:	4b52      	ldr	r3, [pc, #328]	@ (8001eb0 <main+0x96c>)
 8001d68:	7019      	strb	r1, [r3, #0]
				direct_zone = (direct_zone > dead_zone)?(direct_zone - dead_zone) : (dead_zone - direct_zone);
 8001d6a:	4b52      	ldr	r3, [pc, #328]	@ (8001eb4 <main+0x970>)
 8001d6c:	881b      	ldrh	r3, [r3, #0]
 8001d6e:	429a      	cmp	r2, r3
 8001d70:	d912      	bls.n	8001d98 <main+0x854>
 8001d72:	1ad3      	subs	r3, r2, r3
 8001d74:	b29b      	uxth	r3, r3
 8001d76:	4a50      	ldr	r2, [pc, #320]	@ (8001eb8 <main+0x974>)
 8001d78:	8013      	strh	r3, [r2, #0]
				tim3 = 0;
 8001d7a:	4b3f      	ldr	r3, [pc, #252]	@ (8001e78 <main+0x934>)
 8001d7c:	2200      	movs	r2, #0
 8001d7e:	701a      	strb	r2, [r3, #0]
				TIM3->CNT = 0;
 8001d80:	4b3f      	ldr	r3, [pc, #252]	@ (8001e80 <main+0x93c>)
 8001d82:	625a      	str	r2, [r3, #36]	@ 0x24
				TIM3->SR &= ~TIM_SR_UIF;
 8001d84:	691a      	ldr	r2, [r3, #16]
 8001d86:	2101      	movs	r1, #1
 8001d88:	438a      	bics	r2, r1
 8001d8a:	611a      	str	r2, [r3, #16]
				TIM3->ARR = DELAY;
 8001d8c:	22c8      	movs	r2, #200	@ 0xc8
 8001d8e:	62da      	str	r2, [r3, #44]	@ 0x2c
				HAL_TIM_Base_Start_IT(&htim3);
 8001d90:	483c      	ldr	r0, [pc, #240]	@ (8001e84 <main+0x940>)
 8001d92:	f002 ffb3 	bl	8004cfc <HAL_TIM_Base_Start_IT>
 8001d96:	e01a      	b.n	8001dce <main+0x88a>
				direct_zone = (direct_zone > dead_zone)?(direct_zone - dead_zone) : (dead_zone - direct_zone);
 8001d98:	1a9b      	subs	r3, r3, r2
 8001d9a:	b29b      	uxth	r3, r3
 8001d9c:	e7eb      	b.n	8001d76 <main+0x832>
			ssd1306_SetCursor(17, 0);
 8001d9e:	2100      	movs	r1, #0
 8001da0:	2011      	movs	r0, #17
 8001da2:	f000 f997 	bl	80020d4 <ssd1306_SetCursor>
			sprintf(buf, "Set dead zone");
 8001da6:	4838      	ldr	r0, [pc, #224]	@ (8001e88 <main+0x944>)
 8001da8:	4b44      	ldr	r3, [pc, #272]	@ (8001ebc <main+0x978>)
 8001daa:	0002      	movs	r2, r0
 8001dac:	cba2      	ldmia	r3!, {r1, r5, r7}
 8001dae:	c2a2      	stmia	r2!, {r1, r5, r7}
 8001db0:	881b      	ldrh	r3, [r3, #0]
 8001db2:	8013      	strh	r3, [r2, #0]
			ssd1306_WriteString(buf, Font_7x10);
 8001db4:	4b3b      	ldr	r3, [pc, #236]	@ (8001ea4 <main+0x960>)
 8001db6:	6819      	ldr	r1, [r3, #0]
 8001db8:	685a      	ldr	r2, [r3, #4]
 8001dba:	f000 f975 	bl	80020a8 <ssd1306_WriteString>
			if(sw2 && tim3){
 8001dbe:	4b3a      	ldr	r3, [pc, #232]	@ (8001ea8 <main+0x964>)
 8001dc0:	781b      	ldrb	r3, [r3, #0]
 8001dc2:	2b00      	cmp	r3, #0
 8001dc4:	d003      	beq.n	8001dce <main+0x88a>
 8001dc6:	4b2c      	ldr	r3, [pc, #176]	@ (8001e78 <main+0x934>)
 8001dc8:	781b      	ldrb	r3, [r3, #0]
 8001dca:	2b00      	cmp	r3, #0
 8001dcc:	d13d      	bne.n	8001e4a <main+0x906>
			ssd1306_SetCursor(6, 24);
 8001dce:	2118      	movs	r1, #24
 8001dd0:	2006      	movs	r0, #6
 8001dd2:	f000 f97f 	bl	80020d4 <ssd1306_SetCursor>
			sprintf(buf, "%d", adc[1]);
 8001dd6:	4b35      	ldr	r3, [pc, #212]	@ (8001eac <main+0x968>)
 8001dd8:	885a      	ldrh	r2, [r3, #2]
 8001dda:	b292      	uxth	r2, r2
 8001ddc:	4938      	ldr	r1, [pc, #224]	@ (8001ec0 <main+0x97c>)
 8001dde:	4f2a      	ldr	r7, [pc, #168]	@ (8001e88 <main+0x944>)
 8001de0:	0038      	movs	r0, r7
 8001de2:	f003 fa6d 	bl	80052c0 <siprintf>
			ssd1306_WriteString(buf, Font_11x18);
 8001de6:	4b2a      	ldr	r3, [pc, #168]	@ (8001e90 <main+0x94c>)
 8001de8:	6819      	ldr	r1, [r3, #0]
 8001dea:	685a      	ldr	r2, [r3, #4]
 8001dec:	0038      	movs	r0, r7
 8001dee:	f000 f95b 	bl	80020a8 <ssd1306_WriteString>
			ssd1306_SetCursor(6, 48);
 8001df2:	2130      	movs	r1, #48	@ 0x30
 8001df4:	2006      	movs	r0, #6
 8001df6:	f000 f96d 	bl	80020d4 <ssd1306_SetCursor>
			sprintf(buf, "Put middle button");
 8001dfa:	4b32      	ldr	r3, [pc, #200]	@ (8001ec4 <main+0x980>)
 8001dfc:	003a      	movs	r2, r7
 8001dfe:	cb23      	ldmia	r3!, {r0, r1, r5}
 8001e00:	c223      	stmia	r2!, {r0, r1, r5}
 8001e02:	6819      	ldr	r1, [r3, #0]
 8001e04:	6011      	str	r1, [r2, #0]
 8001e06:	889b      	ldrh	r3, [r3, #4]
 8001e08:	8093      	strh	r3, [r2, #4]
			ssd1306_WriteString(buf, Font_7x10);
 8001e0a:	4b26      	ldr	r3, [pc, #152]	@ (8001ea4 <main+0x960>)
 8001e0c:	6819      	ldr	r1, [r3, #0]
 8001e0e:	685a      	ldr	r2, [r3, #4]
 8001e10:	0038      	movs	r0, r7
 8001e12:	f000 f949 	bl	80020a8 <ssd1306_WriteString>
	 ssd1306_UpdateScreen();
 8001e16:	f000 f879 	bl	8001f0c <ssd1306_UpdateScreen>
	 ssd1306_Clear();
 8001e1a:	f000 f973 	bl	8002104 <ssd1306_Clear>
	  if(sw1 && sw3){
 8001e1e:	7823      	ldrb	r3, [r4, #0]
 8001e20:	2b00      	cmp	r3, #0
 8001e22:	d004      	beq.n	8001e2e <main+0x8ea>
 8001e24:	4b13      	ldr	r3, [pc, #76]	@ (8001e74 <main+0x930>)
 8001e26:	781b      	ldrb	r3, [r3, #0]
 8001e28:	2b00      	cmp	r3, #0
 8001e2a:	d000      	beq.n	8001e2e <main+0x8ea>
 8001e2c:	e52e      	b.n	800188c <main+0x348>
		  HAL_TIM_Base_Stop(&htim16);
 8001e2e:	4826      	ldr	r0, [pc, #152]	@ (8001ec8 <main+0x984>)
 8001e30:	f002 ff4e 	bl	8004cd0 <HAL_TIM_Base_Stop>
		  TIM16->CNT = 0;
 8001e34:	4b25      	ldr	r3, [pc, #148]	@ (8001ecc <main+0x988>)
 8001e36:	2200      	movs	r2, #0
 8001e38:	625a      	str	r2, [r3, #36]	@ 0x24
switch (config){
 8001e3a:	4b1d      	ldr	r3, [pc, #116]	@ (8001eb0 <main+0x96c>)
 8001e3c:	781a      	ldrb	r2, [r3, #0]
 8001e3e:	2a04      	cmp	r2, #4
 8001e40:	d8e9      	bhi.n	8001e16 <main+0x8d2>
 8001e42:	0093      	lsls	r3, r2, #2
 8001e44:	4a22      	ldr	r2, [pc, #136]	@ (8001ed0 <main+0x98c>)
 8001e46:	58d3      	ldr	r3, [r2, r3]
 8001e48:	469f      	mov	pc, r3
				dead_zone = adc[1];
 8001e4a:	4b18      	ldr	r3, [pc, #96]	@ (8001eac <main+0x968>)
 8001e4c:	885a      	ldrh	r2, [r3, #2]
 8001e4e:	4b19      	ldr	r3, [pc, #100]	@ (8001eb4 <main+0x970>)
 8001e50:	801a      	strh	r2, [r3, #0]
				zones = 1;
 8001e52:	4b12      	ldr	r3, [pc, #72]	@ (8001e9c <main+0x958>)
 8001e54:	2101      	movs	r1, #1
 8001e56:	7019      	strb	r1, [r3, #0]
				tim3 = 0;
 8001e58:	4b07      	ldr	r3, [pc, #28]	@ (8001e78 <main+0x934>)
 8001e5a:	2200      	movs	r2, #0
 8001e5c:	701a      	strb	r2, [r3, #0]
				TIM3->CNT = 0;
 8001e5e:	4b08      	ldr	r3, [pc, #32]	@ (8001e80 <main+0x93c>)
 8001e60:	625a      	str	r2, [r3, #36]	@ 0x24
				TIM3->SR &= ~TIM_SR_UIF;
 8001e62:	691a      	ldr	r2, [r3, #16]
 8001e64:	438a      	bics	r2, r1
 8001e66:	611a      	str	r2, [r3, #16]
				TIM3->ARR = DELAY;
 8001e68:	22c8      	movs	r2, #200	@ 0xc8
 8001e6a:	62da      	str	r2, [r3, #44]	@ 0x2c
				HAL_TIM_Base_Start_IT(&htim3);
 8001e6c:	4805      	ldr	r0, [pc, #20]	@ (8001e84 <main+0x940>)
 8001e6e:	f002 ff45 	bl	8004cfc <HAL_TIM_Base_Start_IT>
 8001e72:	e7ac      	b.n	8001dce <main+0x88a>
 8001e74:	2000009e 	.word	0x2000009e
 8001e78:	20000014 	.word	0x20000014
 8001e7c:	20000096 	.word	0x20000096
 8001e80:	40000400 	.word	0x40000400
 8001e84:	20000170 	.word	0x20000170
 8001e88:	200000ac 	.word	0x200000ac
 8001e8c:	08007170 	.word	0x08007170
 8001e90:	20000000 	.word	0x20000000
 8001e94:	08007178 	.word	0x08007178
 8001e98:	200000a0 	.word	0x200000a0
 8001e9c:	20000095 	.word	0x20000095
 8001ea0:	08007184 	.word	0x08007184
 8001ea4:	20000008 	.word	0x20000008
 8001ea8:	2000009f 	.word	0x2000009f
 8001eac:	200000a8 	.word	0x200000a8
 8001eb0:	2000009d 	.word	0x2000009d
 8001eb4:	2000009a 	.word	0x2000009a
 8001eb8:	20000098 	.word	0x20000098
 8001ebc:	08007194 	.word	0x08007194
 8001ec0:	08007134 	.word	0x08007134
 8001ec4:	080071a4 	.word	0x080071a4
 8001ec8:	200000d8 	.word	0x200000d8
 8001ecc:	40014400 	.word	0x40014400
 8001ed0:	080071d8 	.word	0x080071d8

08001ed4 <Error_Handler>:
 8001ed4:	b672      	cpsid	i
  while (1)
 8001ed6:	e7fe      	b.n	8001ed6 <Error_Handler+0x2>

08001ed8 <ssd1306_WriteCommand>:

//
//  Send a byte to the command register
//
static void ssd1306_WriteCommand(uint8_t command)
{
 8001ed8:	b500      	push	{lr}
 8001eda:	b087      	sub	sp, #28
 8001edc:	2317      	movs	r3, #23
 8001ede:	446b      	add	r3, sp
 8001ee0:	7018      	strb	r0, [r3, #0]
#ifdef USE_DMA
	while(HAL_I2C_GetState(&SSD1306_I2C_PORT) != HAL_I2C_STATE_READY);
	HAL_I2C_Mem_Write_DMA(&SSD1306_I2C_PORT, SSD1306_I2C_ADDR, 0x00, 1, &command, 1);
#else
	HAL_I2C_Mem_Write(&SSD1306_I2C_PORT, SSD1306_I2C_ADDR, 0x00, 1, &command, 1, 10);
 8001ee2:	4806      	ldr	r0, [pc, #24]	@ (8001efc <ssd1306_WriteCommand+0x24>)
 8001ee4:	220a      	movs	r2, #10
 8001ee6:	9202      	str	r2, [sp, #8]
 8001ee8:	3a09      	subs	r2, #9
 8001eea:	9201      	str	r2, [sp, #4]
 8001eec:	9300      	str	r3, [sp, #0]
 8001eee:	2301      	movs	r3, #1
 8001ef0:	2200      	movs	r2, #0
 8001ef2:	2178      	movs	r1, #120	@ 0x78
 8001ef4:	f001 fe74 	bl	8003be0 <HAL_I2C_Mem_Write>
#endif
}
 8001ef8:	b007      	add	sp, #28
 8001efa:	bd00      	pop	{pc}
 8001efc:	200001e8 	.word	0x200001e8

08001f00 <ssd1306_SetColor>:
	SSD1306.Color = color;
 8001f00:	4b01      	ldr	r3, [pc, #4]	@ (8001f08 <ssd1306_SetColor+0x8>)
 8001f02:	7158      	strb	r0, [r3, #5]
}
 8001f04:	4770      	bx	lr
 8001f06:	46c0      	nop			@ (mov r8, r8)
 8001f08:	20000700 	.word	0x20000700

08001f0c <ssd1306_UpdateScreen>:
{
 8001f0c:	b5f0      	push	{r4, r5, r6, r7, lr}
 8001f0e:	46c6      	mov	lr, r8
 8001f10:	b500      	push	{lr}
 8001f12:	b084      	sub	sp, #16
	for (i = 0; i < 8; i++)
 8001f14:	4d10      	ldr	r5, [pc, #64]	@ (8001f58 <ssd1306_UpdateScreen+0x4c>)
{
 8001f16:	24b0      	movs	r4, #176	@ 0xb0
{
#ifdef USE_DMA
	while(HAL_I2C_GetState(&SSD1306_I2C_PORT) != HAL_I2C_STATE_READY);
	HAL_I2C_Mem_Write_DMA(&SSD1306_I2C_PORT, SSD1306_I2C_ADDR, 0x40, 1, data, size);
#else
	HAL_I2C_Mem_Write(&SSD1306_I2C_PORT, SSD1306_I2C_ADDR, 0x40, 1, data, size, 100);
 8001f18:	4b10      	ldr	r3, [pc, #64]	@ (8001f5c <ssd1306_UpdateScreen+0x50>)
 8001f1a:	4698      	mov	r8, r3
 8001f1c:	2764      	movs	r7, #100	@ 0x64
 8001f1e:	2680      	movs	r6, #128	@ 0x80
		ssd1306_WriteCommand(0xB0 + i);
 8001f20:	0020      	movs	r0, r4
 8001f22:	f7ff ffd9 	bl	8001ed8 <ssd1306_WriteCommand>
		ssd1306_WriteCommand(SETLOWCOLUMN);
 8001f26:	2000      	movs	r0, #0
 8001f28:	f7ff ffd6 	bl	8001ed8 <ssd1306_WriteCommand>
		ssd1306_WriteCommand(SETHIGHCOLUMN);
 8001f2c:	2010      	movs	r0, #16
 8001f2e:	f7ff ffd3 	bl	8001ed8 <ssd1306_WriteCommand>
	HAL_I2C_Mem_Write(&SSD1306_I2C_PORT, SSD1306_I2C_ADDR, 0x40, 1, data, size, 100);
 8001f32:	9702      	str	r7, [sp, #8]
 8001f34:	9601      	str	r6, [sp, #4]
 8001f36:	9500      	str	r5, [sp, #0]
 8001f38:	2301      	movs	r3, #1
 8001f3a:	2240      	movs	r2, #64	@ 0x40
 8001f3c:	2178      	movs	r1, #120	@ 0x78
 8001f3e:	4640      	mov	r0, r8
 8001f40:	f001 fe4e 	bl	8003be0 <HAL_I2C_Mem_Write>
	for (i = 0; i < 8; i++)
 8001f44:	3401      	adds	r4, #1
 8001f46:	b2e4      	uxtb	r4, r4
 8001f48:	3580      	adds	r5, #128	@ 0x80
 8001f4a:	2cb8      	cmp	r4, #184	@ 0xb8
 8001f4c:	d1e8      	bne.n	8001f20 <ssd1306_UpdateScreen+0x14>
}
 8001f4e:	b004      	add	sp, #16
 8001f50:	bc80      	pop	{r7}
 8001f52:	46b8      	mov	r8, r7
 8001f54:	bdf0      	pop	{r4, r5, r6, r7, pc}
 8001f56:	46c0      	nop			@ (mov r8, r8)
 8001f58:	20000300 	.word	0x20000300
 8001f5c:	200001e8 	.word	0x200001e8

08001f60 <ssd1306_DrawPixel>:
	if (x >= ssd1306_GetWidth() || y >= ssd1306_GetHeight())
 8001f60:	b243      	sxtb	r3, r0
 8001f62:	2b00      	cmp	r3, #0
 8001f64:	db13      	blt.n	8001f8e <ssd1306_DrawPixel+0x2e>
 8001f66:	293f      	cmp	r1, #63	@ 0x3f
 8001f68:	d811      	bhi.n	8001f8e <ssd1306_DrawPixel+0x2e>
	SSD1306_COLOR color = SSD1306.Color;
 8001f6a:	4b11      	ldr	r3, [pc, #68]	@ (8001fb0 <ssd1306_DrawPixel+0x50>)
 8001f6c:	795a      	ldrb	r2, [r3, #5]
	if (SSD1306.Inverted)
 8001f6e:	791b      	ldrb	r3, [r3, #4]
 8001f70:	2b00      	cmp	r3, #0
 8001f72:	d00d      	beq.n	8001f90 <ssd1306_DrawPixel+0x30>
	if (color == White)
 8001f74:	2a00      	cmp	r2, #0
 8001f76:	d00d      	beq.n	8001f94 <ssd1306_DrawPixel+0x34>
		SSD1306_Buffer[x + (y / 8) * width()] &= ~(1 << (y % 8));
 8001f78:	08cb      	lsrs	r3, r1, #3
 8001f7a:	01db      	lsls	r3, r3, #7
 8001f7c:	1818      	adds	r0, r3, r0
 8001f7e:	4b0d      	ldr	r3, [pc, #52]	@ (8001fb4 <ssd1306_DrawPixel+0x54>)
 8001f80:	2207      	movs	r2, #7
 8001f82:	400a      	ands	r2, r1
 8001f84:	2101      	movs	r1, #1
 8001f86:	4091      	lsls	r1, r2
 8001f88:	5c1a      	ldrb	r2, [r3, r0]
 8001f8a:	438a      	bics	r2, r1
 8001f8c:	541a      	strb	r2, [r3, r0]
}
 8001f8e:	4770      	bx	lr
	if (color == White)
 8001f90:	2a01      	cmp	r2, #1
 8001f92:	d1f1      	bne.n	8001f78 <ssd1306_DrawPixel+0x18>
		SSD1306_Buffer[x + (y / 8) * width()] |= 1 << (y % 8);
 8001f94:	08cb      	lsrs	r3, r1, #3
 8001f96:	01db      	lsls	r3, r3, #7
 8001f98:	181b      	adds	r3, r3, r0
 8001f9a:	4806      	ldr	r0, [pc, #24]	@ (8001fb4 <ssd1306_DrawPixel+0x54>)
 8001f9c:	2207      	movs	r2, #7
 8001f9e:	4011      	ands	r1, r2
 8001fa0:	3a06      	subs	r2, #6
 8001fa2:	408a      	lsls	r2, r1
 8001fa4:	0001      	movs	r1, r0
 8001fa6:	5cc0      	ldrb	r0, [r0, r3]
 8001fa8:	4302      	orrs	r2, r0
 8001faa:	54ca      	strb	r2, [r1, r3]
 8001fac:	e7ef      	b.n	8001f8e <ssd1306_DrawPixel+0x2e>
 8001fae:	46c0      	nop			@ (mov r8, r8)
 8001fb0:	20000700 	.word	0x20000700
 8001fb4:	20000300 	.word	0x20000300

08001fb8 <ssd1306_WriteChar>:
{
 8001fb8:	b5f0      	push	{r4, r5, r6, r7, lr}
 8001fba:	46de      	mov	lr, fp
 8001fbc:	4657      	mov	r7, sl
 8001fbe:	464e      	mov	r6, r9
 8001fc0:	4645      	mov	r5, r8
 8001fc2:	b5e0      	push	{r5, r6, r7, lr}
 8001fc4:	b089      	sub	sp, #36	@ 0x24
 8001fc6:	0005      	movs	r5, r0
 8001fc8:	9005      	str	r0, [sp, #20]
 8001fca:	9106      	str	r1, [sp, #24]
 8001fcc:	9207      	str	r2, [sp, #28]
 8001fce:	b2c9      	uxtb	r1, r1
	if (width() <= (SSD1306.CurrentX + Font.FontWidth) ||
 8001fd0:	4b34      	ldr	r3, [pc, #208]	@ (80020a4 <ssd1306_WriteChar+0xec>)
 8001fd2:	881c      	ldrh	r4, [r3, #0]
 8001fd4:	1862      	adds	r2, r4, r1
 8001fd6:	2a7f      	cmp	r2, #127	@ 0x7f
 8001fd8:	dc5f      	bgt.n	800209a <ssd1306_WriteChar+0xe2>
 8001fda:	ab06      	add	r3, sp, #24
 8001fdc:	785a      	ldrb	r2, [r3, #1]
		height() <= (SSD1306.CurrentY + Font.FontHeight))
 8001fde:	4831      	ldr	r0, [pc, #196]	@ (80020a4 <ssd1306_WriteChar+0xec>)
 8001fe0:	8846      	ldrh	r6, [r0, #2]
 8001fe2:	18b0      	adds	r0, r6, r2
	if (width() <= (SSD1306.CurrentX + Font.FontWidth) ||
 8001fe4:	283f      	cmp	r0, #63	@ 0x3f
 8001fe6:	dc5a      	bgt.n	800209e <ssd1306_WriteChar+0xe6>
	for (i = 0; i < Font.FontHeight; i++)
 8001fe8:	9204      	str	r2, [sp, #16]
 8001fea:	2a00      	cmp	r2, #0
 8001fec:	d04a      	beq.n	8002084 <ssd1306_WriteChar+0xcc>
		b = Font.data[(ch - 32) * Font.FontHeight + i];
 8001fee:	0028      	movs	r0, r5
 8001ff0:	3820      	subs	r0, #32
 8001ff2:	4342      	muls	r2, r0
 8001ff4:	0053      	lsls	r3, r2, #1
 8001ff6:	469b      	mov	fp, r3
 8001ff8:	b2f3      	uxtb	r3, r6
	for (i = 0; i < Font.FontHeight; i++)
 8001ffa:	2200      	movs	r2, #0
 8001ffc:	4692      	mov	sl, r2
		for (j = 0; j < Font.FontWidth; j++)
 8001ffe:	9101      	str	r1, [sp, #4]
				SSD1306.Color = !SSD1306.Color;
 8002000:	4f28      	ldr	r7, [pc, #160]	@ (80020a4 <ssd1306_WriteChar+0xec>)
 8002002:	465a      	mov	r2, fp
 8002004:	9202      	str	r2, [sp, #8]
 8002006:	9103      	str	r1, [sp, #12]
 8002008:	46d3      	mov	fp, sl
 800200a:	46a2      	mov	sl, r4
 800200c:	001c      	movs	r4, r3
 800200e:	e028      	b.n	8002062 <ssd1306_WriteChar+0xaa>
 8002010:	797e      	ldrb	r6, [r7, #5]
 8002012:	4273      	negs	r3, r6
 8002014:	4173      	adcs	r3, r6
 8002016:	717b      	strb	r3, [r7, #5]
				ssd1306_DrawPixel(SSD1306.CurrentX + j, SSD1306.CurrentY + i);
 8002018:	1960      	adds	r0, r4, r5
 800201a:	b2c0      	uxtb	r0, r0
 800201c:	4651      	mov	r1, sl
 800201e:	f7ff ff9f 	bl	8001f60 <ssd1306_DrawPixel>
				SSD1306.Color = !SSD1306.Color;
 8002022:	1e73      	subs	r3, r6, #1
 8002024:	419e      	sbcs	r6, r3
 8002026:	717e      	strb	r6, [r7, #5]
		for (j = 0; j < Font.FontWidth; j++)
 8002028:	3501      	adds	r5, #1
 800202a:	9b01      	ldr	r3, [sp, #4]
 800202c:	42ab      	cmp	r3, r5
 800202e:	d90a      	bls.n	8002046 <ssd1306_WriteChar+0x8e>
			if ((b << j) & 0x8000)
 8002030:	4643      	mov	r3, r8
 8002032:	40ab      	lsls	r3, r5
 8002034:	464a      	mov	r2, r9
 8002036:	4213      	tst	r3, r2
 8002038:	d0ea      	beq.n	8002010 <ssd1306_WriteChar+0x58>
				ssd1306_DrawPixel(SSD1306.CurrentX + j, SSD1306.CurrentY + i);
 800203a:	1960      	adds	r0, r4, r5
 800203c:	b2c0      	uxtb	r0, r0
 800203e:	4651      	mov	r1, sl
 8002040:	f7ff ff8e 	bl	8001f60 <ssd1306_DrawPixel>
 8002044:	e7f0      	b.n	8002028 <ssd1306_WriteChar+0x70>
 8002046:	4653      	mov	r3, sl
 8002048:	46a2      	mov	sl, r4
 800204a:	001c      	movs	r4, r3
	for (i = 0; i < Font.FontHeight; i++)
 800204c:	2301      	movs	r3, #1
 800204e:	469c      	mov	ip, r3
 8002050:	44e3      	add	fp, ip
 8002052:	9b02      	ldr	r3, [sp, #8]
 8002054:	3302      	adds	r3, #2
 8002056:	9302      	str	r3, [sp, #8]
 8002058:	3401      	adds	r4, #1
 800205a:	b2e4      	uxtb	r4, r4
 800205c:	9b04      	ldr	r3, [sp, #16]
 800205e:	455b      	cmp	r3, fp
 8002060:	d90e      	bls.n	8002080 <ssd1306_WriteChar+0xc8>
		b = Font.data[(ch - 32) * Font.FontHeight + i];
 8002062:	9b07      	ldr	r3, [sp, #28]
 8002064:	9a02      	ldr	r2, [sp, #8]
 8002066:	5a9b      	ldrh	r3, [r3, r2]
 8002068:	4698      	mov	r8, r3
		for (j = 0; j < Font.FontWidth; j++)
 800206a:	9b03      	ldr	r3, [sp, #12]
 800206c:	2b00      	cmp	r3, #0
 800206e:	d0ed      	beq.n	800204c <ssd1306_WriteChar+0x94>
 8002070:	2500      	movs	r5, #0
			if ((b << j) & 0x8000)
 8002072:	2380      	movs	r3, #128	@ 0x80
 8002074:	021b      	lsls	r3, r3, #8
 8002076:	4699      	mov	r9, r3
 8002078:	0023      	movs	r3, r4
 800207a:	4654      	mov	r4, sl
 800207c:	469a      	mov	sl, r3
 800207e:	e7d7      	b.n	8002030 <ssd1306_WriteChar+0x78>
 8002080:	4654      	mov	r4, sl
 8002082:	9903      	ldr	r1, [sp, #12]
	SSD1306.CurrentX += Font.FontWidth;
 8002084:	4a07      	ldr	r2, [pc, #28]	@ (80020a4 <ssd1306_WriteChar+0xec>)
 8002086:	1909      	adds	r1, r1, r4
 8002088:	8011      	strh	r1, [r2, #0]
	return ch;
 800208a:	9805      	ldr	r0, [sp, #20]
}
 800208c:	b009      	add	sp, #36	@ 0x24
 800208e:	bcf0      	pop	{r4, r5, r6, r7}
 8002090:	46bb      	mov	fp, r7
 8002092:	46b2      	mov	sl, r6
 8002094:	46a9      	mov	r9, r5
 8002096:	46a0      	mov	r8, r4
 8002098:	bdf0      	pop	{r4, r5, r6, r7, pc}
		return 0;
 800209a:	2000      	movs	r0, #0
 800209c:	e7f6      	b.n	800208c <ssd1306_WriteChar+0xd4>
 800209e:	2000      	movs	r0, #0
 80020a0:	e7f4      	b.n	800208c <ssd1306_WriteChar+0xd4>
 80020a2:	46c0      	nop			@ (mov r8, r8)
 80020a4:	20000700 	.word	0x20000700

080020a8 <ssd1306_WriteString>:
{
 80020a8:	b510      	push	{r4, lr}
 80020aa:	b082      	sub	sp, #8
 80020ac:	0004      	movs	r4, r0
 80020ae:	9100      	str	r1, [sp, #0]
 80020b0:	9201      	str	r2, [sp, #4]
	while (*str)
 80020b2:	7800      	ldrb	r0, [r0, #0]
 80020b4:	2800      	cmp	r0, #0
 80020b6:	d00b      	beq.n	80020d0 <ssd1306_WriteString+0x28>
		if (ssd1306_WriteChar(*str, Font) != *str)
 80020b8:	9900      	ldr	r1, [sp, #0]
 80020ba:	9a01      	ldr	r2, [sp, #4]
 80020bc:	f7ff ff7c 	bl	8001fb8 <ssd1306_WriteChar>
 80020c0:	0003      	movs	r3, r0
 80020c2:	7820      	ldrb	r0, [r4, #0]
 80020c4:	4283      	cmp	r3, r0
 80020c6:	d103      	bne.n	80020d0 <ssd1306_WriteString+0x28>
		str++;
 80020c8:	3401      	adds	r4, #1
	while (*str)
 80020ca:	7820      	ldrb	r0, [r4, #0]
 80020cc:	2800      	cmp	r0, #0
 80020ce:	d1f3      	bne.n	80020b8 <ssd1306_WriteString+0x10>
}
 80020d0:	b002      	add	sp, #8
 80020d2:	bd10      	pop	{r4, pc}

080020d4 <ssd1306_SetCursor>:
	SSD1306.CurrentX = x;
 80020d4:	4b01      	ldr	r3, [pc, #4]	@ (80020dc <ssd1306_SetCursor+0x8>)
 80020d6:	8018      	strh	r0, [r3, #0]
	SSD1306.CurrentY = y;
 80020d8:	8059      	strh	r1, [r3, #2]
}
 80020da:	4770      	bx	lr
 80020dc:	20000700 	.word	0x20000700

080020e0 <ssd1306_InvertDisplay>:
{
 80020e0:	b510      	push	{r4, lr}
	ssd1306_WriteCommand(INVERTDISPLAY);
 80020e2:	20a7      	movs	r0, #167	@ 0xa7
 80020e4:	f7ff fef8 	bl	8001ed8 <ssd1306_WriteCommand>
}
 80020e8:	bd10      	pop	{r4, pc}

080020ea <ssd1306_NormalDisplay>:
{
 80020ea:	b510      	push	{r4, lr}
	ssd1306_WriteCommand(NORMALDISPLAY);
 80020ec:	20a6      	movs	r0, #166	@ 0xa6
 80020ee:	f7ff fef3 	bl	8001ed8 <ssd1306_WriteCommand>
}
 80020f2:	bd10      	pop	{r4, pc}

080020f4 <ssd1306_FlipScreenVertically>:
{
 80020f4:	b510      	push	{r4, lr}
	ssd1306_WriteCommand(SEGREMAP | 0x01);
 80020f6:	20a1      	movs	r0, #161	@ 0xa1
 80020f8:	f7ff feee 	bl	8001ed8 <ssd1306_WriteCommand>
	ssd1306_WriteCommand(COMSCANDEC);           //Rotate screen 180 Deg
 80020fc:	20c8      	movs	r0, #200	@ 0xc8
 80020fe:	f7ff feeb 	bl	8001ed8 <ssd1306_WriteCommand>
}
 8002102:	bd10      	pop	{r4, pc}

08002104 <ssd1306_Clear>:
{
 8002104:	b510      	push	{r4, lr}
	memset(SSD1306_Buffer, 0, SSD1306_BUFFER_SIZE);
 8002106:	4803      	ldr	r0, [pc, #12]	@ (8002114 <ssd1306_Clear+0x10>)
 8002108:	2280      	movs	r2, #128	@ 0x80
 800210a:	00d2      	lsls	r2, r2, #3
 800210c:	2100      	movs	r1, #0
 800210e:	f003 f8f9 	bl	8005304 <memset>
}
 8002112:	bd10      	pop	{r4, pc}
 8002114:	20000300 	.word	0x20000300

08002118 <ssd1306_Init>:
{
 8002118:	b510      	push	{r4, lr}
	if (HAL_I2C_IsDeviceReady(&SSD1306_I2C_PORT, SSD1306_I2C_ADDR, 5, 1000) != HAL_OK)
 800211a:	23fa      	movs	r3, #250	@ 0xfa
 800211c:	483d      	ldr	r0, [pc, #244]	@ (8002214 <ssd1306_Init+0xfc>)
 800211e:	009b      	lsls	r3, r3, #2
 8002120:	2205      	movs	r2, #5
 8002122:	2178      	movs	r1, #120	@ 0x78
 8002124:	f001 fe52 	bl	8003dcc <HAL_I2C_IsDeviceReady>
		return 0;
 8002128:	2300      	movs	r3, #0
	if (HAL_I2C_IsDeviceReady(&SSD1306_I2C_PORT, SSD1306_I2C_ADDR, 5, 1000) != HAL_OK)
 800212a:	2800      	cmp	r0, #0
 800212c:	d003      	beq.n	8002136 <ssd1306_Init+0x1e>
		SSD1306.Initialized = 0;
 800212e:	4a3a      	ldr	r2, [pc, #232]	@ (8002218 <ssd1306_Init+0x100>)
 8002130:	7193      	strb	r3, [r2, #6]
}
 8002132:	0018      	movs	r0, r3
 8002134:	bd10      	pop	{r4, pc}
	ssd1306_WriteCommand(DISPLAYOFF);
 8002136:	30ae      	adds	r0, #174	@ 0xae
 8002138:	f7ff fece 	bl	8001ed8 <ssd1306_WriteCommand>
	ssd1306_WriteCommand(SETDISPLAYCLOCKDIV);
 800213c:	20d5      	movs	r0, #213	@ 0xd5
 800213e:	f7ff fecb 	bl	8001ed8 <ssd1306_WriteCommand>
	ssd1306_WriteCommand(0xF0); // Increase speed of the display max ~96Hz
 8002142:	20f0      	movs	r0, #240	@ 0xf0
 8002144:	f7ff fec8 	bl	8001ed8 <ssd1306_WriteCommand>
	ssd1306_WriteCommand(SETMULTIPLEX);
 8002148:	20a8      	movs	r0, #168	@ 0xa8
 800214a:	f7ff fec5 	bl	8001ed8 <ssd1306_WriteCommand>
	ssd1306_WriteCommand(height() - 1);
 800214e:	203f      	movs	r0, #63	@ 0x3f
 8002150:	f7ff fec2 	bl	8001ed8 <ssd1306_WriteCommand>
	ssd1306_WriteCommand(SETDISPLAYOFFSET);
 8002154:	20d3      	movs	r0, #211	@ 0xd3
 8002156:	f7ff febf 	bl	8001ed8 <ssd1306_WriteCommand>
	ssd1306_WriteCommand(0x00);
 800215a:	2000      	movs	r0, #0
 800215c:	f7ff febc 	bl	8001ed8 <ssd1306_WriteCommand>
	ssd1306_WriteCommand(SETSTARTLINE);
 8002160:	2040      	movs	r0, #64	@ 0x40
 8002162:	f7ff feb9 	bl	8001ed8 <ssd1306_WriteCommand>
	ssd1306_WriteCommand(CHARGEPUMP);
 8002166:	208d      	movs	r0, #141	@ 0x8d
 8002168:	f7ff feb6 	bl	8001ed8 <ssd1306_WriteCommand>
	ssd1306_WriteCommand(0x14);
 800216c:	2014      	movs	r0, #20
 800216e:	f7ff feb3 	bl	8001ed8 <ssd1306_WriteCommand>
	ssd1306_WriteCommand(MEMORYMODE);
 8002172:	2020      	movs	r0, #32
 8002174:	f7ff feb0 	bl	8001ed8 <ssd1306_WriteCommand>
	ssd1306_WriteCommand(0x00);
 8002178:	2000      	movs	r0, #0
 800217a:	f7ff fead 	bl	8001ed8 <ssd1306_WriteCommand>
	ssd1306_WriteCommand(SEGREMAP);
 800217e:	20a0      	movs	r0, #160	@ 0xa0
 8002180:	f7ff feaa 	bl	8001ed8 <ssd1306_WriteCommand>
	ssd1306_WriteCommand(COMSCANINC);
 8002184:	20c0      	movs	r0, #192	@ 0xc0
 8002186:	f7ff fea7 	bl	8001ed8 <ssd1306_WriteCommand>
	ssd1306_WriteCommand(SETCOMPINS);
 800218a:	20da      	movs	r0, #218	@ 0xda
 800218c:	f7ff fea4 	bl	8001ed8 <ssd1306_WriteCommand>
	if (display_geometry == GEOMETRY_128_64)
 8002190:	4b22      	ldr	r3, [pc, #136]	@ (800221c <ssd1306_Init+0x104>)
 8002192:	781b      	ldrb	r3, [r3, #0]
 8002194:	2b00      	cmp	r3, #0
 8002196:	d02d      	beq.n	80021f4 <ssd1306_Init+0xdc>
	else if (display_geometry == GEOMETRY_128_32)
 8002198:	2b01      	cmp	r3, #1
 800219a:	d02f      	beq.n	80021fc <ssd1306_Init+0xe4>
	ssd1306_WriteCommand(SETCONTRAST);
 800219c:	2081      	movs	r0, #129	@ 0x81
 800219e:	f7ff fe9b 	bl	8001ed8 <ssd1306_WriteCommand>
	if (display_geometry == GEOMETRY_128_64)
 80021a2:	4b1e      	ldr	r3, [pc, #120]	@ (800221c <ssd1306_Init+0x104>)
 80021a4:	781b      	ldrb	r3, [r3, #0]
 80021a6:	2b00      	cmp	r3, #0
 80021a8:	d02c      	beq.n	8002204 <ssd1306_Init+0xec>
	else if (display_geometry == GEOMETRY_128_32)
 80021aa:	2b01      	cmp	r3, #1
 80021ac:	d02e      	beq.n	800220c <ssd1306_Init+0xf4>
	ssd1306_WriteCommand(SETPRECHARGE);
 80021ae:	20d9      	movs	r0, #217	@ 0xd9
 80021b0:	f7ff fe92 	bl	8001ed8 <ssd1306_WriteCommand>
	ssd1306_WriteCommand(0xF1);
 80021b4:	20f1      	movs	r0, #241	@ 0xf1
 80021b6:	f7ff fe8f 	bl	8001ed8 <ssd1306_WriteCommand>
	ssd1306_WriteCommand(SETVCOMDETECT); //0xDB, (additionally needed to lower the contrast)
 80021ba:	20db      	movs	r0, #219	@ 0xdb
 80021bc:	f7ff fe8c 	bl	8001ed8 <ssd1306_WriteCommand>
	ssd1306_WriteCommand(0x40);	        //0x40 default, to lower the contrast, put 0
 80021c0:	2040      	movs	r0, #64	@ 0x40
 80021c2:	f7ff fe89 	bl	8001ed8 <ssd1306_WriteCommand>
	ssd1306_WriteCommand(DISPLAYALLON_RESUME);
 80021c6:	20a4      	movs	r0, #164	@ 0xa4
 80021c8:	f7ff fe86 	bl	8001ed8 <ssd1306_WriteCommand>
	ssd1306_WriteCommand(NORMALDISPLAY);
 80021cc:	20a6      	movs	r0, #166	@ 0xa6
 80021ce:	f7ff fe83 	bl	8001ed8 <ssd1306_WriteCommand>
	ssd1306_WriteCommand(0x2e);            // stop scroll
 80021d2:	202e      	movs	r0, #46	@ 0x2e
 80021d4:	f7ff fe80 	bl	8001ed8 <ssd1306_WriteCommand>
	ssd1306_WriteCommand(DISPLAYON);
 80021d8:	20af      	movs	r0, #175	@ 0xaf
 80021da:	f7ff fe7d 	bl	8001ed8 <ssd1306_WriteCommand>
	SSD1306.CurrentX = 0;
 80021de:	4b0e      	ldr	r3, [pc, #56]	@ (8002218 <ssd1306_Init+0x100>)
 80021e0:	2200      	movs	r2, #0
 80021e2:	801a      	strh	r2, [r3, #0]
	SSD1306.CurrentY = 0;
 80021e4:	805a      	strh	r2, [r3, #2]
	SSD1306.Color = Black;
 80021e6:	715a      	strb	r2, [r3, #5]
	ssd1306_Clear();
 80021e8:	f7ff ff8c 	bl	8002104 <ssd1306_Clear>
	ssd1306_UpdateScreen();
 80021ec:	f7ff fe8e 	bl	8001f0c <ssd1306_UpdateScreen>
	return 1;
 80021f0:	2301      	movs	r3, #1
 80021f2:	e79c      	b.n	800212e <ssd1306_Init+0x16>
	  ssd1306_WriteCommand(0x12);
 80021f4:	2012      	movs	r0, #18
 80021f6:	f7ff fe6f 	bl	8001ed8 <ssd1306_WriteCommand>
 80021fa:	e7cf      	b.n	800219c <ssd1306_Init+0x84>
	  ssd1306_WriteCommand(0x02);
 80021fc:	2002      	movs	r0, #2
 80021fe:	f7ff fe6b 	bl	8001ed8 <ssd1306_WriteCommand>
 8002202:	e7cb      	b.n	800219c <ssd1306_Init+0x84>
	  ssd1306_WriteCommand(0xCF);
 8002204:	20cf      	movs	r0, #207	@ 0xcf
 8002206:	f7ff fe67 	bl	8001ed8 <ssd1306_WriteCommand>
 800220a:	e7d0      	b.n	80021ae <ssd1306_Init+0x96>
	  ssd1306_WriteCommand(0x8F);
 800220c:	208f      	movs	r0, #143	@ 0x8f
 800220e:	f7ff fe63 	bl	8001ed8 <ssd1306_WriteCommand>
 8002212:	e7cc      	b.n	80021ae <ssd1306_Init+0x96>
 8002214:	200001e8 	.word	0x200001e8
 8002218:	20000700 	.word	0x20000700
 800221c:	200002fc 	.word	0x200002fc

08002220 <HAL_MspInit>:
/* USER CODE END 0 */
/**
  * Initializes the Global MSP.
  */
void HAL_MspInit(void)
{
 8002220:	b082      	sub	sp, #8

  /* USER CODE BEGIN MspInit 0 */

  /* USER CODE END MspInit 0 */

  __HAL_RCC_SYSCFG_CLK_ENABLE();
 8002222:	4b0a      	ldr	r3, [pc, #40]	@ (800224c <HAL_MspInit+0x2c>)
 8002224:	6c19      	ldr	r1, [r3, #64]	@ 0x40
 8002226:	2201      	movs	r2, #1
 8002228:	4311      	orrs	r1, r2
 800222a:	6419      	str	r1, [r3, #64]	@ 0x40
 800222c:	6c19      	ldr	r1, [r3, #64]	@ 0x40
 800222e:	400a      	ands	r2, r1
 8002230:	9200      	str	r2, [sp, #0]
 8002232:	9a00      	ldr	r2, [sp, #0]
  __HAL_RCC_PWR_CLK_ENABLE();
 8002234:	6bda      	ldr	r2, [r3, #60]	@ 0x3c
 8002236:	2180      	movs	r1, #128	@ 0x80
 8002238:	0549      	lsls	r1, r1, #21
 800223a:	430a      	orrs	r2, r1
 800223c:	63da      	str	r2, [r3, #60]	@ 0x3c
 800223e:	6bdb      	ldr	r3, [r3, #60]	@ 0x3c
 8002240:	400b      	ands	r3, r1
 8002242:	9301      	str	r3, [sp, #4]
 8002244:	9b01      	ldr	r3, [sp, #4]
  /* System interrupt init*/

  /* USER CODE BEGIN MspInit 1 */

  /* USER CODE END MspInit 1 */
}
 8002246:	b002      	add	sp, #8
 8002248:	4770      	bx	lr
 800224a:	46c0      	nop			@ (mov r8, r8)
 800224c:	40021000 	.word	0x40021000

08002250 <HAL_ADC_MspInit>:
  * This function configures the hardware resources used in this example
  * @param hadc: ADC handle pointer
  * @retval None
  */
void HAL_ADC_MspInit(ADC_HandleTypeDef* hadc)
{
 8002250:	b530      	push	{r4, r5, lr}
 8002252:	b08f      	sub	sp, #60	@ 0x3c
 8002254:	0004      	movs	r4, r0
  GPIO_InitTypeDef GPIO_InitStruct = {0};
 8002256:	2214      	movs	r2, #20
 8002258:	2100      	movs	r1, #0
 800225a:	a809      	add	r0, sp, #36	@ 0x24
 800225c:	f003 f852 	bl	8005304 <memset>
  RCC_PeriphCLKInitTypeDef PeriphClkInit = {0};
 8002260:	2218      	movs	r2, #24
 8002262:	2100      	movs	r1, #0
 8002264:	a803      	add	r0, sp, #12
 8002266:	f003 f84d 	bl	8005304 <memset>
  if(hadc->Instance==ADC1)
 800226a:	4b2a      	ldr	r3, [pc, #168]	@ (8002314 <HAL_ADC_MspInit+0xc4>)
 800226c:	6822      	ldr	r2, [r4, #0]
 800226e:	429a      	cmp	r2, r3
 8002270:	d001      	beq.n	8002276 <HAL_ADC_MspInit+0x26>

    /* USER CODE END ADC1_MspInit 1 */

  }

}
 8002272:	b00f      	add	sp, #60	@ 0x3c
 8002274:	bd30      	pop	{r4, r5, pc}
    PeriphClkInit.PeriphClockSelection = RCC_PERIPHCLK_ADC;
 8002276:	2380      	movs	r3, #128	@ 0x80
 8002278:	01db      	lsls	r3, r3, #7
 800227a:	9303      	str	r3, [sp, #12]
    PeriphClkInit.AdcClockSelection = RCC_ADCCLKSOURCE_PLLADC;
 800227c:	2380      	movs	r3, #128	@ 0x80
 800227e:	05db      	lsls	r3, r3, #23
 8002280:	9307      	str	r3, [sp, #28]
    if (HAL_RCCEx_PeriphCLKConfig(&PeriphClkInit) != HAL_OK)
 8002282:	a803      	add	r0, sp, #12
 8002284:	f002 fa96 	bl	80047b4 <HAL_RCCEx_PeriphCLKConfig>
 8002288:	2800      	cmp	r0, #0
 800228a:	d13d      	bne.n	8002308 <HAL_ADC_MspInit+0xb8>
    __HAL_RCC_ADC_CLK_ENABLE();
 800228c:	4b22      	ldr	r3, [pc, #136]	@ (8002318 <HAL_ADC_MspInit+0xc8>)
 800228e:	6c1a      	ldr	r2, [r3, #64]	@ 0x40
 8002290:	2180      	movs	r1, #128	@ 0x80
 8002292:	0349      	lsls	r1, r1, #13
 8002294:	430a      	orrs	r2, r1
 8002296:	641a      	str	r2, [r3, #64]	@ 0x40
 8002298:	6c1a      	ldr	r2, [r3, #64]	@ 0x40
 800229a:	400a      	ands	r2, r1
 800229c:	9201      	str	r2, [sp, #4]
 800229e:	9a01      	ldr	r2, [sp, #4]
    __HAL_RCC_GPIOA_CLK_ENABLE();
 80022a0:	6b59      	ldr	r1, [r3, #52]	@ 0x34
 80022a2:	2201      	movs	r2, #1
 80022a4:	4311      	orrs	r1, r2
 80022a6:	6359      	str	r1, [r3, #52]	@ 0x34
 80022a8:	6b5b      	ldr	r3, [r3, #52]	@ 0x34
 80022aa:	401a      	ands	r2, r3
 80022ac:	9202      	str	r2, [sp, #8]
 80022ae:	9b02      	ldr	r3, [sp, #8]
    GPIO_InitStruct.Pin = BAT_Pin|HALL_Pin;
 80022b0:	2328      	movs	r3, #40	@ 0x28
 80022b2:	9309      	str	r3, [sp, #36]	@ 0x24
    GPIO_InitStruct.Mode = GPIO_MODE_ANALOG;
 80022b4:	3b25      	subs	r3, #37	@ 0x25
 80022b6:	930a      	str	r3, [sp, #40]	@ 0x28
    GPIO_InitStruct.Pull = GPIO_NOPULL;
 80022b8:	2500      	movs	r5, #0
 80022ba:	950b      	str	r5, [sp, #44]	@ 0x2c
    HAL_GPIO_Init(GPIOA, &GPIO_InitStruct);
 80022bc:	20a0      	movs	r0, #160	@ 0xa0
 80022be:	a909      	add	r1, sp, #36	@ 0x24
 80022c0:	05c0      	lsls	r0, r0, #23
 80022c2:	f001 f9b7 	bl	8003634 <HAL_GPIO_Init>
    hdma_adc1.Instance = DMA1_Channel1;
 80022c6:	4815      	ldr	r0, [pc, #84]	@ (800231c <HAL_ADC_MspInit+0xcc>)
 80022c8:	4b15      	ldr	r3, [pc, #84]	@ (8002320 <HAL_ADC_MspInit+0xd0>)
 80022ca:	6003      	str	r3, [r0, #0]
    hdma_adc1.Init.Request = DMA_REQUEST_ADC1;
 80022cc:	2305      	movs	r3, #5
 80022ce:	6043      	str	r3, [r0, #4]
    hdma_adc1.Init.Direction = DMA_PERIPH_TO_MEMORY;
 80022d0:	6085      	str	r5, [r0, #8]
    hdma_adc1.Init.PeriphInc = DMA_PINC_DISABLE;
 80022d2:	60c5      	str	r5, [r0, #12]
    hdma_adc1.Init.MemInc = DMA_MINC_ENABLE;
 80022d4:	337b      	adds	r3, #123	@ 0x7b
 80022d6:	6103      	str	r3, [r0, #16]
    hdma_adc1.Init.PeriphDataAlignment = DMA_PDATAALIGN_HALFWORD;
 80022d8:	3380      	adds	r3, #128	@ 0x80
 80022da:	6143      	str	r3, [r0, #20]
    hdma_adc1.Init.MemDataAlignment = DMA_MDATAALIGN_HALFWORD;
 80022dc:	2380      	movs	r3, #128	@ 0x80
 80022de:	00db      	lsls	r3, r3, #3
 80022e0:	6183      	str	r3, [r0, #24]
    hdma_adc1.Init.Mode = DMA_CIRCULAR;
 80022e2:	2320      	movs	r3, #32
 80022e4:	61c3      	str	r3, [r0, #28]
    hdma_adc1.Init.Priority = DMA_PRIORITY_LOW;
 80022e6:	6205      	str	r5, [r0, #32]
    if (HAL_DMA_Init(&hdma_adc1) != HAL_OK)
 80022e8:	f001 f88c 	bl	8003404 <HAL_DMA_Init>
 80022ec:	2800      	cmp	r0, #0
 80022ee:	d10e      	bne.n	800230e <HAL_ADC_MspInit+0xbe>
    __HAL_LINKDMA(hadc,DMA_Handle,hdma_adc1);
 80022f0:	4b0a      	ldr	r3, [pc, #40]	@ (800231c <HAL_ADC_MspInit+0xcc>)
 80022f2:	6523      	str	r3, [r4, #80]	@ 0x50
 80022f4:	629c      	str	r4, [r3, #40]	@ 0x28
    HAL_NVIC_SetPriority(ADC1_IRQn, 0, 0);
 80022f6:	2200      	movs	r2, #0
 80022f8:	2100      	movs	r1, #0
 80022fa:	200c      	movs	r0, #12
 80022fc:	f000 ffea 	bl	80032d4 <HAL_NVIC_SetPriority>
    HAL_NVIC_EnableIRQ(ADC1_IRQn);
 8002300:	200c      	movs	r0, #12
 8002302:	f001 f819 	bl	8003338 <HAL_NVIC_EnableIRQ>
}
 8002306:	e7b4      	b.n	8002272 <HAL_ADC_MspInit+0x22>
      Error_Handler();
 8002308:	f7ff fde4 	bl	8001ed4 <Error_Handler>
 800230c:	e7be      	b.n	800228c <HAL_ADC_MspInit+0x3c>
      Error_Handler();
 800230e:	f7ff fde1 	bl	8001ed4 <Error_Handler>
 8002312:	e7ed      	b.n	80022f0 <HAL_ADC_MspInit+0xa0>
 8002314:	40012400 	.word	0x40012400
 8002318:	40021000 	.word	0x40021000
 800231c:	2000023c 	.word	0x2000023c
 8002320:	40020008 	.word	0x40020008

08002324 <HAL_I2C_MspInit>:
  * This function configures the hardware resources used in this example
  * @param hi2c: I2C handle pointer
  * @retval None
  */
void HAL_I2C_MspInit(I2C_HandleTypeDef* hi2c)
{
 8002324:	b510      	push	{r4, lr}
 8002326:	b08e      	sub	sp, #56	@ 0x38
 8002328:	0004      	movs	r4, r0
  GPIO_InitTypeDef GPIO_InitStruct = {0};
 800232a:	2214      	movs	r2, #20
 800232c:	2100      	movs	r1, #0
 800232e:	a809      	add	r0, sp, #36	@ 0x24
 8002330:	f002 ffe8 	bl	8005304 <memset>
  RCC_PeriphCLKInitTypeDef PeriphClkInit = {0};
 8002334:	2218      	movs	r2, #24
 8002336:	2100      	movs	r1, #0
 8002338:	a803      	add	r0, sp, #12
 800233a:	f002 ffe3 	bl	8005304 <memset>
  if(hi2c->Instance==I2C1)
 800233e:	4b18      	ldr	r3, [pc, #96]	@ (80023a0 <HAL_I2C_MspInit+0x7c>)
 8002340:	6822      	ldr	r2, [r4, #0]
 8002342:	429a      	cmp	r2, r3
 8002344:	d001      	beq.n	800234a <HAL_I2C_MspInit+0x26>

    /* USER CODE END I2C1_MspInit 1 */

  }

}
 8002346:	b00e      	add	sp, #56	@ 0x38
 8002348:	bd10      	pop	{r4, pc}
    PeriphClkInit.PeriphClockSelection = RCC_PERIPHCLK_I2C1;
 800234a:	2320      	movs	r3, #32
 800234c:	9303      	str	r3, [sp, #12]
    if (HAL_RCCEx_PeriphCLKConfig(&PeriphClkInit) != HAL_OK)
 800234e:	a803      	add	r0, sp, #12
 8002350:	f002 fa30 	bl	80047b4 <HAL_RCCEx_PeriphCLKConfig>
 8002354:	2800      	cmp	r0, #0
 8002356:	d11f      	bne.n	8002398 <HAL_I2C_MspInit+0x74>
    __HAL_RCC_GPIOB_CLK_ENABLE();
 8002358:	4c12      	ldr	r4, [pc, #72]	@ (80023a4 <HAL_I2C_MspInit+0x80>)
 800235a:	6b62      	ldr	r2, [r4, #52]	@ 0x34
 800235c:	2302      	movs	r3, #2
 800235e:	431a      	orrs	r2, r3
 8002360:	6362      	str	r2, [r4, #52]	@ 0x34
 8002362:	6b62      	ldr	r2, [r4, #52]	@ 0x34
 8002364:	4013      	ands	r3, r2
 8002366:	9301      	str	r3, [sp, #4]
 8002368:	9b01      	ldr	r3, [sp, #4]
    GPIO_InitStruct.Pin = GPIO_PIN_7|GPIO_PIN_6;
 800236a:	23c0      	movs	r3, #192	@ 0xc0
 800236c:	9309      	str	r3, [sp, #36]	@ 0x24
    GPIO_InitStruct.Mode = GPIO_MODE_AF_OD;
 800236e:	3bae      	subs	r3, #174	@ 0xae
 8002370:	930a      	str	r3, [sp, #40]	@ 0x28
    GPIO_InitStruct.Pull = GPIO_NOPULL;
 8002372:	2300      	movs	r3, #0
 8002374:	930b      	str	r3, [sp, #44]	@ 0x2c
    GPIO_InitStruct.Speed = GPIO_SPEED_FREQ_LOW;
 8002376:	930c      	str	r3, [sp, #48]	@ 0x30
    GPIO_InitStruct.Alternate = GPIO_AF6_I2C1;
 8002378:	3306      	adds	r3, #6
 800237a:	930d      	str	r3, [sp, #52]	@ 0x34
    HAL_GPIO_Init(GPIOB, &GPIO_InitStruct);
 800237c:	a909      	add	r1, sp, #36	@ 0x24
 800237e:	480a      	ldr	r0, [pc, #40]	@ (80023a8 <HAL_I2C_MspInit+0x84>)
 8002380:	f001 f958 	bl	8003634 <HAL_GPIO_Init>
    __HAL_RCC_I2C1_CLK_ENABLE();
 8002384:	6be3      	ldr	r3, [r4, #60]	@ 0x3c
 8002386:	2280      	movs	r2, #128	@ 0x80
 8002388:	0392      	lsls	r2, r2, #14
 800238a:	4313      	orrs	r3, r2
 800238c:	63e3      	str	r3, [r4, #60]	@ 0x3c
 800238e:	6be3      	ldr	r3, [r4, #60]	@ 0x3c
 8002390:	4013      	ands	r3, r2
 8002392:	9302      	str	r3, [sp, #8]
 8002394:	9b02      	ldr	r3, [sp, #8]
}
 8002396:	e7d6      	b.n	8002346 <HAL_I2C_MspInit+0x22>
      Error_Handler();
 8002398:	f7ff fd9c 	bl	8001ed4 <Error_Handler>
 800239c:	e7dc      	b.n	8002358 <HAL_I2C_MspInit+0x34>
 800239e:	46c0      	nop			@ (mov r8, r8)
 80023a0:	40005400 	.word	0x40005400
 80023a4:	40021000 	.word	0x40021000
 80023a8:	50000400 	.word	0x50000400

080023ac <HAL_RTC_MspInit>:
  * This function configures the hardware resources used in this example
  * @param hrtc: RTC handle pointer
  * @retval None
  */
void HAL_RTC_MspInit(RTC_HandleTypeDef* hrtc)
{
 80023ac:	b510      	push	{r4, lr}
 80023ae:	b088      	sub	sp, #32
 80023b0:	0004      	movs	r4, r0
  RCC_PeriphCLKInitTypeDef PeriphClkInit = {0};
 80023b2:	2218      	movs	r2, #24
 80023b4:	2100      	movs	r1, #0
 80023b6:	a802      	add	r0, sp, #8
 80023b8:	f002 ffa4 	bl	8005304 <memset>
  if(hrtc->Instance==RTC)
 80023bc:	4b11      	ldr	r3, [pc, #68]	@ (8002404 <HAL_RTC_MspInit+0x58>)
 80023be:	6822      	ldr	r2, [r4, #0]
 80023c0:	429a      	cmp	r2, r3
 80023c2:	d001      	beq.n	80023c8 <HAL_RTC_MspInit+0x1c>

    /* USER CODE END RTC_MspInit 1 */

  }

}
 80023c4:	b008      	add	sp, #32
 80023c6:	bd10      	pop	{r4, pc}
    PeriphClkInit.PeriphClockSelection = RCC_PERIPHCLK_RTC;
 80023c8:	2380      	movs	r3, #128	@ 0x80
 80023ca:	029b      	lsls	r3, r3, #10
 80023cc:	9302      	str	r3, [sp, #8]
    PeriphClkInit.RTCClockSelection = RCC_RTCCLKSOURCE_LSE;
 80023ce:	2380      	movs	r3, #128	@ 0x80
 80023d0:	005b      	lsls	r3, r3, #1
 80023d2:	9307      	str	r3, [sp, #28]
    if (HAL_RCCEx_PeriphCLKConfig(&PeriphClkInit) != HAL_OK)
 80023d4:	a802      	add	r0, sp, #8
 80023d6:	f002 f9ed 	bl	80047b4 <HAL_RCCEx_PeriphCLKConfig>
 80023da:	2800      	cmp	r0, #0
 80023dc:	d10f      	bne.n	80023fe <HAL_RTC_MspInit+0x52>
    __HAL_RCC_RTC_ENABLE();
 80023de:	4b0a      	ldr	r3, [pc, #40]	@ (8002408 <HAL_RTC_MspInit+0x5c>)
 80023e0:	6dd9      	ldr	r1, [r3, #92]	@ 0x5c
 80023e2:	2280      	movs	r2, #128	@ 0x80
 80023e4:	0212      	lsls	r2, r2, #8
 80023e6:	430a      	orrs	r2, r1
 80023e8:	65da      	str	r2, [r3, #92]	@ 0x5c
    __HAL_RCC_RTCAPB_CLK_ENABLE();
 80023ea:	6bda      	ldr	r2, [r3, #60]	@ 0x3c
 80023ec:	2180      	movs	r1, #128	@ 0x80
 80023ee:	00c9      	lsls	r1, r1, #3
 80023f0:	430a      	orrs	r2, r1
 80023f2:	63da      	str	r2, [r3, #60]	@ 0x3c
 80023f4:	6bdb      	ldr	r3, [r3, #60]	@ 0x3c
 80023f6:	400b      	ands	r3, r1
 80023f8:	9301      	str	r3, [sp, #4]
 80023fa:	9b01      	ldr	r3, [sp, #4]
}
 80023fc:	e7e2      	b.n	80023c4 <HAL_RTC_MspInit+0x18>
      Error_Handler();
 80023fe:	f7ff fd69 	bl	8001ed4 <Error_Handler>
 8002402:	e7ec      	b.n	80023de <HAL_RTC_MspInit+0x32>
 8002404:	40002800 	.word	0x40002800
 8002408:	40021000 	.word	0x40021000

0800240c <HAL_TIM_Base_MspInit>:
  * This function configures the hardware resources used in this example
  * @param htim_base: TIM_Base handle pointer
  * @retval None
  */
void HAL_TIM_Base_MspInit(TIM_HandleTypeDef* htim_base)
{
 800240c:	b500      	push	{lr}
 800240e:	b085      	sub	sp, #20
  if(htim_base->Instance==TIM3)
 8002410:	6803      	ldr	r3, [r0, #0]
 8002412:	4a19      	ldr	r2, [pc, #100]	@ (8002478 <HAL_TIM_Base_MspInit+0x6c>)
 8002414:	4293      	cmp	r3, r2
 8002416:	d007      	beq.n	8002428 <HAL_TIM_Base_MspInit+0x1c>
    HAL_NVIC_EnableIRQ(TIM3_IRQn);
    /* USER CODE BEGIN TIM3_MspInit 1 */

    /* USER CODE END TIM3_MspInit 1 */
  }
  else if(htim_base->Instance==TIM14)
 8002418:	4a18      	ldr	r2, [pc, #96]	@ (800247c <HAL_TIM_Base_MspInit+0x70>)
 800241a:	4293      	cmp	r3, r2
 800241c:	d016      	beq.n	800244c <HAL_TIM_Base_MspInit+0x40>
    __HAL_RCC_TIM14_CLK_ENABLE();
    /* USER CODE BEGIN TIM14_MspInit 1 */

    /* USER CODE END TIM14_MspInit 1 */
  }
  else if(htim_base->Instance==TIM16)
 800241e:	4a18      	ldr	r2, [pc, #96]	@ (8002480 <HAL_TIM_Base_MspInit+0x74>)
 8002420:	4293      	cmp	r3, r2
 8002422:	d01e      	beq.n	8002462 <HAL_TIM_Base_MspInit+0x56>
    /* USER CODE BEGIN TIM16_MspInit 1 */

    /* USER CODE END TIM16_MspInit 1 */
  }

}
 8002424:	b005      	add	sp, #20
 8002426:	bd00      	pop	{pc}
    __HAL_RCC_TIM3_CLK_ENABLE();
 8002428:	4a16      	ldr	r2, [pc, #88]	@ (8002484 <HAL_TIM_Base_MspInit+0x78>)
 800242a:	6bd1      	ldr	r1, [r2, #60]	@ 0x3c
 800242c:	2302      	movs	r3, #2
 800242e:	4319      	orrs	r1, r3
 8002430:	63d1      	str	r1, [r2, #60]	@ 0x3c
 8002432:	6bd2      	ldr	r2, [r2, #60]	@ 0x3c
 8002434:	4013      	ands	r3, r2
 8002436:	9301      	str	r3, [sp, #4]
 8002438:	9b01      	ldr	r3, [sp, #4]
    HAL_NVIC_SetPriority(TIM3_IRQn, 0, 0);
 800243a:	2200      	movs	r2, #0
 800243c:	2100      	movs	r1, #0
 800243e:	2010      	movs	r0, #16
 8002440:	f000 ff48 	bl	80032d4 <HAL_NVIC_SetPriority>
    HAL_NVIC_EnableIRQ(TIM3_IRQn);
 8002444:	2010      	movs	r0, #16
 8002446:	f000 ff77 	bl	8003338 <HAL_NVIC_EnableIRQ>
 800244a:	e7eb      	b.n	8002424 <HAL_TIM_Base_MspInit+0x18>
    __HAL_RCC_TIM14_CLK_ENABLE();
 800244c:	4b0d      	ldr	r3, [pc, #52]	@ (8002484 <HAL_TIM_Base_MspInit+0x78>)
 800244e:	6c1a      	ldr	r2, [r3, #64]	@ 0x40
 8002450:	2180      	movs	r1, #128	@ 0x80
 8002452:	0209      	lsls	r1, r1, #8
 8002454:	430a      	orrs	r2, r1
 8002456:	641a      	str	r2, [r3, #64]	@ 0x40
 8002458:	6c1b      	ldr	r3, [r3, #64]	@ 0x40
 800245a:	400b      	ands	r3, r1
 800245c:	9302      	str	r3, [sp, #8]
 800245e:	9b02      	ldr	r3, [sp, #8]
 8002460:	e7e0      	b.n	8002424 <HAL_TIM_Base_MspInit+0x18>
    __HAL_RCC_TIM16_CLK_ENABLE();
 8002462:	4b08      	ldr	r3, [pc, #32]	@ (8002484 <HAL_TIM_Base_MspInit+0x78>)
 8002464:	6c1a      	ldr	r2, [r3, #64]	@ 0x40
 8002466:	2180      	movs	r1, #128	@ 0x80
 8002468:	0289      	lsls	r1, r1, #10
 800246a:	430a      	orrs	r2, r1
 800246c:	641a      	str	r2, [r3, #64]	@ 0x40
 800246e:	6c1b      	ldr	r3, [r3, #64]	@ 0x40
 8002470:	400b      	ands	r3, r1
 8002472:	9303      	str	r3, [sp, #12]
 8002474:	9b03      	ldr	r3, [sp, #12]
}
 8002476:	e7d5      	b.n	8002424 <HAL_TIM_Base_MspInit+0x18>
 8002478:	40000400 	.word	0x40000400
 800247c:	40002000 	.word	0x40002000
 8002480:	40014400 	.word	0x40014400
 8002484:	40021000 	.word	0x40021000

08002488 <NMI_Handler>:
{
  /* USER CODE BEGIN NonMaskableInt_IRQn 0 */

  /* USER CODE END NonMaskableInt_IRQn 0 */
  /* USER CODE BEGIN NonMaskableInt_IRQn 1 */
   while (1)
 8002488:	e7fe      	b.n	8002488 <NMI_Handler>

0800248a <HardFault_Handler>:
void HardFault_Handler(void)
{
  /* USER CODE BEGIN HardFault_IRQn 0 */

  /* USER CODE END HardFault_IRQn 0 */
  while (1)
 800248a:	e7fe      	b.n	800248a <HardFault_Handler>

0800248c <SVC_Handler>:

  /* USER CODE END SVC_IRQn 0 */
  /* USER CODE BEGIN SVC_IRQn 1 */

  /* USER CODE END SVC_IRQn 1 */
}
 800248c:	4770      	bx	lr

0800248e <PendSV_Handler>:

  /* USER CODE END PendSV_IRQn 0 */
  /* USER CODE BEGIN PendSV_IRQn 1 */

  /* USER CODE END PendSV_IRQn 1 */
}
 800248e:	4770      	bx	lr

08002490 <SysTick_Handler>:

/**
  * @brief This function handles System tick timer.
  */
void SysTick_Handler(void)
{
 8002490:	b510      	push	{r4, lr}
  /* USER CODE BEGIN SysTick_IRQn 0 */

  /* USER CODE END SysTick_IRQn 0 */
  HAL_IncTick();
 8002492:	f000 f8c3 	bl	800261c <HAL_IncTick>
  /* USER CODE BEGIN SysTick_IRQn 1 */

  /* USER CODE END SysTick_IRQn 1 */
}
 8002496:	bd10      	pop	{r4, pc}

08002498 <EXTI0_1_IRQHandler>:

/**
  * @brief This function handles EXTI line 0 and line 1 interrupts.
  */
void EXTI0_1_IRQHandler(void)
{
 8002498:	b510      	push	{r4, lr}
  /* USER CODE BEGIN EXTI0_1_IRQn 0 */

  /* USER CODE END EXTI0_1_IRQn 0 */
  HAL_GPIO_EXTI_IRQHandler(Sw1_Pin);
 800249a:	2001      	movs	r0, #1
 800249c:	f001 f9b6 	bl	800380c <HAL_GPIO_EXTI_IRQHandler>
  /* USER CODE BEGIN EXTI0_1_IRQn 1 */

  /* USER CODE END EXTI0_1_IRQn 1 */
}
 80024a0:	bd10      	pop	{r4, pc}

080024a2 <EXTI4_15_IRQHandler>:

/**
  * @brief This function handles EXTI line 4 to 15 interrupts.
  */
void EXTI4_15_IRQHandler(void)
{
 80024a2:	b510      	push	{r4, lr}
  /* USER CODE BEGIN EXTI4_15_IRQn 0 */

  /* USER CODE END EXTI4_15_IRQn 0 */
  HAL_GPIO_EXTI_IRQHandler(Sw3_Pin);
 80024a4:	2040      	movs	r0, #64	@ 0x40
 80024a6:	f001 f9b1 	bl	800380c <HAL_GPIO_EXTI_IRQHandler>
  HAL_GPIO_EXTI_IRQHandler(Sw2_Pin);
 80024aa:	2080      	movs	r0, #128	@ 0x80
 80024ac:	f001 f9ae 	bl	800380c <HAL_GPIO_EXTI_IRQHandler>
  HAL_GPIO_EXTI_IRQHandler(STDBY_BAT_Pin);
 80024b0:	2080      	movs	r0, #128	@ 0x80
 80024b2:	0100      	lsls	r0, r0, #4
 80024b4:	f001 f9aa 	bl	800380c <HAL_GPIO_EXTI_IRQHandler>
  HAL_GPIO_EXTI_IRQHandler(CHRG_BAT_Pin);
 80024b8:	2080      	movs	r0, #128	@ 0x80
 80024ba:	0140      	lsls	r0, r0, #5
 80024bc:	f001 f9a6 	bl	800380c <HAL_GPIO_EXTI_IRQHandler>
  /* USER CODE BEGIN EXTI4_15_IRQn 1 */

  /* USER CODE END EXTI4_15_IRQn 1 */
}
 80024c0:	bd10      	pop	{r4, pc}
	...

080024c4 <DMA1_Channel1_IRQHandler>:

/**
  * @brief This function handles DMA1 channel 1 interrupt.
  */
void DMA1_Channel1_IRQHandler(void)
{
 80024c4:	b510      	push	{r4, lr}
  /* USER CODE BEGIN DMA1_Channel1_IRQn 0 */

  /* USER CODE END DMA1_Channel1_IRQn 0 */
  HAL_DMA_IRQHandler(&hdma_adc1);
 80024c6:	4802      	ldr	r0, [pc, #8]	@ (80024d0 <DMA1_Channel1_IRQHandler+0xc>)
 80024c8:	f001 f84e 	bl	8003568 <HAL_DMA_IRQHandler>
  /* USER CODE BEGIN DMA1_Channel1_IRQn 1 */

  /* USER CODE END DMA1_Channel1_IRQn 1 */
}
 80024cc:	bd10      	pop	{r4, pc}
 80024ce:	46c0      	nop			@ (mov r8, r8)
 80024d0:	2000023c 	.word	0x2000023c

080024d4 <ADC1_IRQHandler>:

/**
  * @brief This function handles ADC1 interrupt.
  */
void ADC1_IRQHandler(void)
{
 80024d4:	b510      	push	{r4, lr}
  /* USER CODE BEGIN ADC1_IRQn 0 */

  /* USER CODE END ADC1_IRQn 0 */
  HAL_ADC_IRQHandler(&hadc1);
 80024d6:	4802      	ldr	r0, [pc, #8]	@ (80024e0 <ADC1_IRQHandler+0xc>)
 80024d8:	f000 fa22 	bl	8002920 <HAL_ADC_IRQHandler>
  /* USER CODE BEGIN ADC1_IRQn 1 */

  /* USER CODE END ADC1_IRQn 1 */
}
 80024dc:	bd10      	pop	{r4, pc}
 80024de:	46c0      	nop			@ (mov r8, r8)
 80024e0:	20000298 	.word	0x20000298

080024e4 <TIM3_IRQHandler>:

/**
  * @brief This function handles TIM3 global interrupt.
  */
void TIM3_IRQHandler(void)
{
 80024e4:	b510      	push	{r4, lr}
  /* USER CODE BEGIN TIM3_IRQn 0 */
tim3 = 1;
 80024e6:	4b05      	ldr	r3, [pc, #20]	@ (80024fc <TIM3_IRQHandler+0x18>)
 80024e8:	2201      	movs	r2, #1
 80024ea:	701a      	strb	r2, [r3, #0]
//if(tim3 > 1)
HAL_TIM_Base_Stop_IT(&htim3);
 80024ec:	4c04      	ldr	r4, [pc, #16]	@ (8002500 <TIM3_IRQHandler+0x1c>)
 80024ee:	0020      	movs	r0, r4
 80024f0:	f002 fc36 	bl	8004d60 <HAL_TIM_Base_Stop_IT>
  /* USER CODE END TIM3_IRQn 0 */
  HAL_TIM_IRQHandler(&htim3);
 80024f4:	0020      	movs	r0, r4
 80024f6:	f002 fc55 	bl	8004da4 <HAL_TIM_IRQHandler>
  /* USER CODE BEGIN TIM3_IRQn 1 */

  /* USER CODE END TIM3_IRQn 1 */
}
 80024fa:	bd10      	pop	{r4, pc}
 80024fc:	20000014 	.word	0x20000014
 8002500:	20000170 	.word	0x20000170

08002504 <_sbrk>:
 *
 * @param incr Memory size
 * @return Pointer to allocated memory
 */
void *_sbrk(ptrdiff_t incr)
{
 8002504:	b510      	push	{r4, lr}
 8002506:	0003      	movs	r3, r0
  extern uint8_t _end; /* Symbol defined in the linker script */
  extern uint8_t _estack; /* Symbol defined in the linker script */
  extern uint32_t _Min_Stack_Size; /* Symbol defined in the linker script */
  const uint32_t stack_limit = (uint32_t)&_estack - (uint32_t)&_Min_Stack_Size;
 8002508:	4a0c      	ldr	r2, [pc, #48]	@ (800253c <_sbrk+0x38>)
 800250a:	490d      	ldr	r1, [pc, #52]	@ (8002540 <_sbrk+0x3c>)
 800250c:	1a52      	subs	r2, r2, r1
  const uint8_t *max_heap = (uint8_t *)stack_limit;
  uint8_t *prev_heap_end;

  /* Initialize heap end at first call */
  if (NULL == __sbrk_heap_end)
 800250e:	490d      	ldr	r1, [pc, #52]	@ (8002544 <_sbrk+0x40>)
 8002510:	6809      	ldr	r1, [r1, #0]
 8002512:	2900      	cmp	r1, #0
 8002514:	d007      	beq.n	8002526 <_sbrk+0x22>
  {
    __sbrk_heap_end = &_end;
  }

  /* Protect heap from growing into the reserved MSP stack */
  if (__sbrk_heap_end + incr > max_heap)
 8002516:	490b      	ldr	r1, [pc, #44]	@ (8002544 <_sbrk+0x40>)
 8002518:	6808      	ldr	r0, [r1, #0]
 800251a:	18c3      	adds	r3, r0, r3
 800251c:	4293      	cmp	r3, r2
 800251e:	d806      	bhi.n	800252e <_sbrk+0x2a>
    errno = ENOMEM;
    return (void *)-1;
  }

  prev_heap_end = __sbrk_heap_end;
  __sbrk_heap_end += incr;
 8002520:	4a08      	ldr	r2, [pc, #32]	@ (8002544 <_sbrk+0x40>)
 8002522:	6013      	str	r3, [r2, #0]

  return (void *)prev_heap_end;
}
 8002524:	bd10      	pop	{r4, pc}
    __sbrk_heap_end = &_end;
 8002526:	4907      	ldr	r1, [pc, #28]	@ (8002544 <_sbrk+0x40>)
 8002528:	4807      	ldr	r0, [pc, #28]	@ (8002548 <_sbrk+0x44>)
 800252a:	6008      	str	r0, [r1, #0]
 800252c:	e7f3      	b.n	8002516 <_sbrk+0x12>
    errno = ENOMEM;
 800252e:	f002 fef1 	bl	8005314 <__errno>
 8002532:	230c      	movs	r3, #12
 8002534:	6003      	str	r3, [r0, #0]
    return (void *)-1;
 8002536:	2001      	movs	r0, #1
 8002538:	4240      	negs	r0, r0
 800253a:	e7f3      	b.n	8002524 <_sbrk+0x20>
 800253c:	20002000 	.word	0x20002000
 8002540:	00000400 	.word	0x00000400
 8002544:	20000708 	.word	0x20000708
 8002548:	20000858 	.word	0x20000858

0800254c <SystemInit>:
{
  /* Configure the Vector Table location -------------------------------------*/
#if defined(USER_VECT_TAB_ADDRESS)
  SCB->VTOR = VECT_TAB_BASE_ADDRESS | VECT_TAB_OFFSET; /* Vector Table Relocation */
#endif /* USER_VECT_TAB_ADDRESS */
}
 800254c:	4770      	bx	lr
	...

08002550 <Reset_Handler>:

  .section .text.Reset_Handler
  .weak Reset_Handler
  .type Reset_Handler, %function
Reset_Handler:
  ldr   r0, =_estack
 8002550:	480d      	ldr	r0, [pc, #52]	@ (8002588 <LoopForever+0x2>)
  mov   sp, r0          /* set stack pointer */
 8002552:	4685      	mov	sp, r0

/* Call the clock system initialization function.*/
  bl  SystemInit
 8002554:	f7ff fffa 	bl	800254c <SystemInit>

/* Copy the data segment initializers from flash to SRAM */
  ldr r0, =_sdata
 8002558:	480c      	ldr	r0, [pc, #48]	@ (800258c <LoopForever+0x6>)
  ldr r1, =_edata
 800255a:	490d      	ldr	r1, [pc, #52]	@ (8002590 <LoopForever+0xa>)
  ldr r2, =_sidata
 800255c:	4a0d      	ldr	r2, [pc, #52]	@ (8002594 <LoopForever+0xe>)
  movs r3, #0
 800255e:	2300      	movs	r3, #0
  b LoopCopyDataInit
 8002560:	e002      	b.n	8002568 <LoopCopyDataInit>

08002562 <CopyDataInit>:

CopyDataInit:
  ldr r4, [r2, r3]
 8002562:	58d4      	ldr	r4, [r2, r3]
  str r4, [r0, r3]
 8002564:	50c4      	str	r4, [r0, r3]
  adds r3, r3, #4
 8002566:	3304      	adds	r3, #4

08002568 <LoopCopyDataInit>:

LoopCopyDataInit:
  adds r4, r0, r3
 8002568:	18c4      	adds	r4, r0, r3
  cmp r4, r1
 800256a:	428c      	cmp	r4, r1
  bcc CopyDataInit
 800256c:	d3f9      	bcc.n	8002562 <CopyDataInit>

/* Zero fill the bss segment. */
  ldr r2, =_sbss
 800256e:	4a0a      	ldr	r2, [pc, #40]	@ (8002598 <LoopForever+0x12>)
  ldr r4, =_ebss
 8002570:	4c0a      	ldr	r4, [pc, #40]	@ (800259c <LoopForever+0x16>)
  movs r3, #0
 8002572:	2300      	movs	r3, #0
  b LoopFillZerobss
 8002574:	e001      	b.n	800257a <LoopFillZerobss>

08002576 <FillZerobss>:

FillZerobss:
  str  r3, [r2]
 8002576:	6013      	str	r3, [r2, #0]
  adds r2, r2, #4
 8002578:	3204      	adds	r2, #4

0800257a <LoopFillZerobss>:

LoopFillZerobss:
  cmp r2, r4
 800257a:	42a2      	cmp	r2, r4
  bcc FillZerobss
 800257c:	d3fb      	bcc.n	8002576 <FillZerobss>

/* Call static constructors */
  bl __libc_init_array
 800257e:	f002 fecf 	bl	8005320 <__libc_init_array>
/* Call the application s entry point.*/
  bl main
 8002582:	f7fe ffdf 	bl	8001544 <main>

08002586 <LoopForever>:

LoopForever:
  b LoopForever
 8002586:	e7fe      	b.n	8002586 <LoopForever>
  ldr   r0, =_estack
 8002588:	20002000 	.word	0x20002000
  ldr r0, =_sdata
 800258c:	20000000 	.word	0x20000000
  ldr r1, =_edata
 8002590:	20000074 	.word	0x20000074
  ldr r2, =_sidata
 8002594:	08007268 	.word	0x08007268
  ldr r2, =_sbss
 8002598:	20000074 	.word	0x20000074
  ldr r4, =_ebss
 800259c:	20000858 	.word	0x20000858

080025a0 <DMA1_Ch4_5_DMAMUX1_OVR_IRQHandler>:
 * @retval None
*/
  .section .text.Default_Handler,"ax",%progbits
Default_Handler:
Infinite_Loop:
  b Infinite_Loop
 80025a0:	e7fe      	b.n	80025a0 <DMA1_Ch4_5_DMAMUX1_OVR_IRQHandler>
	...

080025a4 <HAL_InitTick>:
  *       implementation  in user file.
  * @param TickPriority Tick interrupt priority.
  * @retval HAL status
  */
__weak HAL_StatusTypeDef HAL_InitTick(uint32_t TickPriority)
{
 80025a4:	b570      	push	{r4, r5, r6, lr}
 80025a6:	0004      	movs	r4, r0
  HAL_StatusTypeDef  status = HAL_OK;

  /* Check uwTickFreq for MisraC 2012 (even if uwTickFreq is a enum type that doesn't take the value zero)*/ 
  if ((uint32_t)uwTickFreq != 0U)
 80025a8:	4b0f      	ldr	r3, [pc, #60]	@ (80025e8 <HAL_InitTick+0x44>)
 80025aa:	7819      	ldrb	r1, [r3, #0]
      status = HAL_ERROR;
    }
  }
  else
  {
    status = HAL_ERROR;
 80025ac:	2001      	movs	r0, #1
  if ((uint32_t)uwTickFreq != 0U)
 80025ae:	2900      	cmp	r1, #0
 80025b0:	d100      	bne.n	80025b4 <HAL_InitTick+0x10>
  }

  /* Return function status */
  return status;
}
 80025b2:	bd70      	pop	{r4, r5, r6, pc}
    if (HAL_SYSTICK_Config(SystemCoreClock / (1000U /(uint32_t)uwTickFreq)) == 0U)
 80025b4:	4d0d      	ldr	r5, [pc, #52]	@ (80025ec <HAL_InitTick+0x48>)
 80025b6:	20fa      	movs	r0, #250	@ 0xfa
 80025b8:	0080      	lsls	r0, r0, #2
 80025ba:	f7fd fdab 	bl	8000114 <__udivsi3>
 80025be:	0001      	movs	r1, r0
 80025c0:	6828      	ldr	r0, [r5, #0]
 80025c2:	f7fd fda7 	bl	8000114 <__udivsi3>
 80025c6:	f000 fec3 	bl	8003350 <HAL_SYSTICK_Config>
 80025ca:	0003      	movs	r3, r0
      status = HAL_ERROR;
 80025cc:	2001      	movs	r0, #1
    if (HAL_SYSTICK_Config(SystemCoreClock / (1000U /(uint32_t)uwTickFreq)) == 0U)
 80025ce:	2b00      	cmp	r3, #0
 80025d0:	d1ef      	bne.n	80025b2 <HAL_InitTick+0xe>
      if (TickPriority < (1UL << __NVIC_PRIO_BITS))
 80025d2:	2c03      	cmp	r4, #3
 80025d4:	d8ed      	bhi.n	80025b2 <HAL_InitTick+0xe>
        HAL_NVIC_SetPriority(SysTick_IRQn, TickPriority, 0U);
 80025d6:	2200      	movs	r2, #0
 80025d8:	0021      	movs	r1, r4
 80025da:	4240      	negs	r0, r0
 80025dc:	f000 fe7a 	bl	80032d4 <HAL_NVIC_SetPriority>
        uwTickPrio = TickPriority;
 80025e0:	4b03      	ldr	r3, [pc, #12]	@ (80025f0 <HAL_InitTick+0x4c>)
 80025e2:	601c      	str	r4, [r3, #0]
  HAL_StatusTypeDef  status = HAL_OK;
 80025e4:	2000      	movs	r0, #0
 80025e6:	e7e4      	b.n	80025b2 <HAL_InitTick+0xe>
 80025e8:	2000001c 	.word	0x2000001c
 80025ec:	20000018 	.word	0x20000018
 80025f0:	20000020 	.word	0x20000020

080025f4 <HAL_Init>:
{
 80025f4:	b510      	push	{r4, lr}
  __HAL_FLASH_PREFETCH_BUFFER_ENABLE();
 80025f6:	4a08      	ldr	r2, [pc, #32]	@ (8002618 <HAL_Init+0x24>)
 80025f8:	6811      	ldr	r1, [r2, #0]
 80025fa:	2380      	movs	r3, #128	@ 0x80
 80025fc:	005b      	lsls	r3, r3, #1
 80025fe:	430b      	orrs	r3, r1
 8002600:	6013      	str	r3, [r2, #0]
  if (HAL_InitTick(TICK_INT_PRIORITY) != HAL_OK)
 8002602:	2003      	movs	r0, #3
 8002604:	f7ff ffce 	bl	80025a4 <HAL_InitTick>
 8002608:	1e04      	subs	r4, r0, #0
 800260a:	d002      	beq.n	8002612 <HAL_Init+0x1e>
    status = HAL_ERROR;
 800260c:	2401      	movs	r4, #1
}
 800260e:	0020      	movs	r0, r4
 8002610:	bd10      	pop	{r4, pc}
  HAL_MspInit();
 8002612:	f7ff fe05 	bl	8002220 <HAL_MspInit>
 8002616:	e7fa      	b.n	800260e <HAL_Init+0x1a>
 8002618:	40022000 	.word	0x40022000

0800261c <HAL_IncTick>:
  *      implementations in user file.
  * @retval None
  */
__weak void HAL_IncTick(void)
{
  uwTick += (uint32_t)uwTickFreq;
 800261c:	4a03      	ldr	r2, [pc, #12]	@ (800262c <HAL_IncTick+0x10>)
 800261e:	6811      	ldr	r1, [r2, #0]
 8002620:	4b03      	ldr	r3, [pc, #12]	@ (8002630 <HAL_IncTick+0x14>)
 8002622:	781b      	ldrb	r3, [r3, #0]
 8002624:	185b      	adds	r3, r3, r1
 8002626:	6013      	str	r3, [r2, #0]
}
 8002628:	4770      	bx	lr
 800262a:	46c0      	nop			@ (mov r8, r8)
 800262c:	2000070c 	.word	0x2000070c
 8002630:	2000001c 	.word	0x2000001c

08002634 <HAL_GetTick>:
  *       implementations in user file.
  * @retval tick value
  */
__weak uint32_t HAL_GetTick(void)
{
  return uwTick;
 8002634:	4b01      	ldr	r3, [pc, #4]	@ (800263c <HAL_GetTick+0x8>)
 8002636:	6818      	ldr	r0, [r3, #0]
}
 8002638:	4770      	bx	lr
 800263a:	46c0      	nop			@ (mov r8, r8)
 800263c:	2000070c 	.word	0x2000070c

08002640 <HAL_ADC_Init>:
  *         of structure "ADC_InitTypeDef".
  * @param hadc ADC handle
  * @retval HAL status
  */
HAL_StatusTypeDef HAL_ADC_Init(ADC_HandleTypeDef *hadc)
{
 8002640:	b5f0      	push	{r4, r5, r6, r7, lr}
 8002642:	b083      	sub	sp, #12
 8002644:	0004      	movs	r4, r0
  HAL_StatusTypeDef tmp_hal_status = HAL_OK;
  uint32_t tmp_cfgr1 = 0UL;
  uint32_t tmp_cfgr2 = 0UL;
  uint32_t tmp_adc_reg_is_conversion_on_going;
  __IO uint32_t wait_loop_index = 0UL;
 8002646:	2300      	movs	r3, #0
 8002648:	9301      	str	r3, [sp, #4]

  /* Check ADC handle */
  if (hadc == NULL)
 800264a:	2800      	cmp	r0, #0
 800264c:	d100      	bne.n	8002650 <HAL_ADC_Init+0x10>
 800264e:	e0ff      	b.n	8002850 <HAL_ADC_Init+0x210>
  /* continuous mode is disabled.                                             */
  assert_param(!((hadc->Init.DiscontinuousConvMode == ENABLE) && (hadc->Init.ContinuousConvMode == ENABLE)));

  /* Actions performed only if ADC is coming from state reset:                */
  /* - Initialization of ADC MSP                                              */
  if (hadc->State == HAL_ADC_STATE_RESET)
 8002650:	6d83      	ldr	r3, [r0, #88]	@ 0x58
 8002652:	2b00      	cmp	r3, #0
 8002654:	d100      	bne.n	8002658 <HAL_ADC_Init+0x18>
 8002656:	e0b6      	b.n	80027c6 <HAL_ADC_Init+0x186>

    /* Initialize Lock */
    hadc->Lock = HAL_UNLOCKED;
  }

  if (LL_ADC_IsInternalRegulatorEnabled(hadc->Instance) == 0UL)
 8002658:	6823      	ldr	r3, [r4, #0]
  * @param  ADCx ADC instance
  * @retval 0: internal regulator is disabled, 1: internal regulator is enabled.
  */
__STATIC_INLINE uint32_t LL_ADC_IsInternalRegulatorEnabled(const ADC_TypeDef *ADCx)
{
  return ((READ_BIT(ADCx->CR, ADC_CR_ADVREGEN) == (ADC_CR_ADVREGEN)) ? 1UL : 0UL);
 800265a:	689a      	ldr	r2, [r3, #8]
 800265c:	00d2      	lsls	r2, r2, #3
 800265e:	d417      	bmi.n	8002690 <HAL_ADC_Init+0x50>
  MODIFY_REG(ADCx->CR,
 8002660:	6899      	ldr	r1, [r3, #8]
 8002662:	4a7c      	ldr	r2, [pc, #496]	@ (8002854 <HAL_ADC_Init+0x214>)
 8002664:	4011      	ands	r1, r2
 8002666:	2280      	movs	r2, #128	@ 0x80
 8002668:	0552      	lsls	r2, r2, #21
 800266a:	430a      	orrs	r2, r1
 800266c:	609a      	str	r2, [r3, #8]
    /* Delay for ADC stabilization time */
    /* Wait loop initialization and execution */
    /* Note: Variable divided by 2 to compensate partially              */
    /*       CPU processing cycles, scaling in us split to not          */
    /*       exceed 32 bits register capacity and handle low frequency. */
    wait_loop_index = ((LL_ADC_DELAY_INTERNAL_REGUL_STAB_US / 10UL) * ((SystemCoreClock / (100000UL * 2UL)) + 1UL));
 800266e:	4b7a      	ldr	r3, [pc, #488]	@ (8002858 <HAL_ADC_Init+0x218>)
 8002670:	6818      	ldr	r0, [r3, #0]
 8002672:	497a      	ldr	r1, [pc, #488]	@ (800285c <HAL_ADC_Init+0x21c>)
 8002674:	f7fd fd4e 	bl	8000114 <__udivsi3>
 8002678:	3001      	adds	r0, #1
 800267a:	0040      	lsls	r0, r0, #1
 800267c:	9001      	str	r0, [sp, #4]
    while (wait_loop_index != 0UL)
 800267e:	9b01      	ldr	r3, [sp, #4]
 8002680:	2b00      	cmp	r3, #0
 8002682:	d005      	beq.n	8002690 <HAL_ADC_Init+0x50>
    {
      wait_loop_index--;
 8002684:	9b01      	ldr	r3, [sp, #4]
 8002686:	3b01      	subs	r3, #1
 8002688:	9301      	str	r3, [sp, #4]
    while (wait_loop_index != 0UL)
 800268a:	9b01      	ldr	r3, [sp, #4]
 800268c:	2b00      	cmp	r3, #0
 800268e:	d1f9      	bne.n	8002684 <HAL_ADC_Init+0x44>
  }

  /* Verification that ADC voltage regulator is correctly enabled, whether    */
  /* or not ADC is coming from state reset (if any potential problem of       */
  /* clocking, voltage regulator would not be enabled).                       */
  if (LL_ADC_IsInternalRegulatorEnabled(hadc->Instance) == 0UL)
 8002690:	6821      	ldr	r1, [r4, #0]
  return ((READ_BIT(ADCx->CR, ADC_CR_ADVREGEN) == (ADC_CR_ADVREGEN)) ? 1UL : 0UL);
 8002692:	688b      	ldr	r3, [r1, #8]
  HAL_StatusTypeDef tmp_hal_status = HAL_OK;
 8002694:	2000      	movs	r0, #0
 8002696:	00db      	lsls	r3, r3, #3
 8002698:	d408      	bmi.n	80026ac <HAL_ADC_Init+0x6c>
  {
    /* Update ADC state machine to error */
    SET_BIT(hadc->State, HAL_ADC_STATE_ERROR_INTERNAL);
 800269a:	6da3      	ldr	r3, [r4, #88]	@ 0x58
 800269c:	2210      	movs	r2, #16
 800269e:	4313      	orrs	r3, r2
 80026a0:	65a3      	str	r3, [r4, #88]	@ 0x58

    /* Set ADC error code to ADC peripheral internal error */
    SET_BIT(hadc->ErrorCode, HAL_ADC_ERROR_INTERNAL);
 80026a2:	6de3      	ldr	r3, [r4, #92]	@ 0x5c
 80026a4:	3a0f      	subs	r2, #15
 80026a6:	4313      	orrs	r3, r2
 80026a8:	65e3      	str	r3, [r4, #92]	@ 0x5c

    tmp_hal_status = HAL_ERROR;
 80026aa:	3001      	adds	r0, #1
  * @param  ADCx ADC instance
  * @retval 0: no conversion is on going on ADC group regular.
  */
__STATIC_INLINE uint32_t LL_ADC_REG_IsConversionOngoing(const ADC_TypeDef *ADCx)
{
  return ((READ_BIT(ADCx->CR, ADC_CR_ADSTART) == (ADC_CR_ADSTART)) ? 1UL : 0UL);
 80026ac:	688d      	ldr	r5, [r1, #8]
  /* correctly completed and if there is no conversion on going on regular    */
  /* group (ADC may already be enabled at this point if HAL_ADC_Init() is     */
  /* called to update a parameter on the fly).                                */
  tmp_adc_reg_is_conversion_on_going = LL_ADC_REG_IsConversionOngoing(hadc->Instance);

  if (((hadc->State & HAL_ADC_STATE_ERROR_INTERNAL) == 0UL)
 80026ae:	6da2      	ldr	r2, [r4, #88]	@ 0x58
 80026b0:	2310      	movs	r3, #16
 80026b2:	4013      	ands	r3, r2
 80026b4:	2204      	movs	r2, #4
 80026b6:	402a      	ands	r2, r5
 80026b8:	4313      	orrs	r3, r2
 80026ba:	d000      	beq.n	80026be <HAL_ADC_Init+0x7e>
 80026bc:	e0c1      	b.n	8002842 <HAL_ADC_Init+0x202>
      && (tmp_adc_reg_is_conversion_on_going == 0UL)
     )
  {
    /* Set ADC state */
    ADC_STATE_CLR_SET(hadc->State,
 80026be:	6da3      	ldr	r3, [r4, #88]	@ 0x58
 80026c0:	4a67      	ldr	r2, [pc, #412]	@ (8002860 <HAL_ADC_Init+0x220>)
 80026c2:	4013      	ands	r3, r2
 80026c4:	3206      	adds	r2, #6
 80026c6:	32ff      	adds	r2, #255	@ 0xff
 80026c8:	4313      	orrs	r3, r2
 80026ca:	65a3      	str	r3, [r4, #88]	@ 0x58
  return ((READ_BIT(ADCx->CR, ADC_CR_ADEN) == (ADC_CR_ADEN)) ? 1UL : 0UL);
 80026cc:	688b      	ldr	r3, [r1, #8]
 80026ce:	07db      	lsls	r3, r3, #31
 80026d0:	d44f      	bmi.n	8002772 <HAL_ADC_Init+0x132>
      /*     (set into HAL_ADC_ConfigChannel() )                              */

      tmp_cfgr1 |= (hadc->Init.Resolution                                          |
                    ADC_CFGR1_AUTOWAIT((uint32_t)hadc->Init.LowPowerAutoWait)      |
                    ADC_CFGR1_AUTOOFF((uint32_t)hadc->Init.LowPowerAutoPowerOff)   |
                    ADC_CFGR1_CONTINUOUS((uint32_t)hadc->Init.ContinuousConvMode)  |
 80026d2:	7ea5      	ldrb	r5, [r4, #26]
                    ADC_CFGR1_OVERRUN(hadc->Init.Overrun)                          |
 80026d4:	6b26      	ldr	r6, [r4, #48]	@ 0x30
 80026d6:	1e73      	subs	r3, r6, #1
 80026d8:	419e      	sbcs	r6, r3
 80026da:	0336      	lsls	r6, r6, #12
 80026dc:	68a2      	ldr	r2, [r4, #8]
 80026de:	68e3      	ldr	r3, [r4, #12]
 80026e0:	431a      	orrs	r2, r3
                    ADC_CFGR1_AUTOWAIT((uint32_t)hadc->Init.LowPowerAutoWait)      |
 80026e2:	7e23      	ldrb	r3, [r4, #24]
 80026e4:	039b      	lsls	r3, r3, #14
 80026e6:	431a      	orrs	r2, r3
                    ADC_CFGR1_AUTOOFF((uint32_t)hadc->Init.LowPowerAutoPowerOff)   |
 80026e8:	7e63      	ldrb	r3, [r4, #25]
 80026ea:	03db      	lsls	r3, r3, #15
 80026ec:	431a      	orrs	r2, r3
                    ADC_CFGR1_CONTINUOUS((uint32_t)hadc->Init.ContinuousConvMode)  |
 80026ee:	036b      	lsls	r3, r5, #13
 80026f0:	431a      	orrs	r2, r3
                    hadc->Init.DataAlign                                           |
                    ADC_SCAN_SEQ_MODE(hadc->Init.ScanConvMode)                     |
 80026f2:	6923      	ldr	r3, [r4, #16]
 80026f4:	2b00      	cmp	r3, #0
 80026f6:	db6d      	blt.n	80027d4 <HAL_ADC_Init+0x194>
 80026f8:	2780      	movs	r7, #128	@ 0x80
 80026fa:	03bf      	lsls	r7, r7, #14
                    ADC_CFGR1_DMACONTREQ((uint32_t)hadc->Init.DMAContinuousRequests));
 80026fc:	232c      	movs	r3, #44	@ 0x2c
 80026fe:	5ce3      	ldrb	r3, [r4, r3]
 8002700:	005b      	lsls	r3, r3, #1
                    ADC_SCAN_SEQ_MODE(hadc->Init.ScanConvMode)                     |
 8002702:	4313      	orrs	r3, r2
 8002704:	4333      	orrs	r3, r6
 8002706:	433b      	orrs	r3, r7

      /* Update setting of discontinuous mode only if continuous mode is disabled */
      if (hadc->Init.DiscontinuousConvMode == ENABLE)
 8002708:	2220      	movs	r2, #32
 800270a:	5ca2      	ldrb	r2, [r4, r2]
 800270c:	2a01      	cmp	r2, #1
 800270e:	d064      	beq.n	80027da <HAL_ADC_Init+0x19a>
      /* Enable external trigger if trigger selection is different of software  */
      /* start.                                                                 */
      /* Note: This configuration keeps the hardware feature of parameter       */
      /*       ExternalTrigConvEdge "trigger edge none" equivalent to           */
      /*       software start.                                                  */
      if (hadc->Init.ExternalTrigConv != ADC_SOFTWARE_START)
 8002710:	6a62      	ldr	r2, [r4, #36]	@ 0x24
 8002712:	2a00      	cmp	r2, #0
 8002714:	d005      	beq.n	8002722 <HAL_ADC_Init+0xe2>
      {
        tmp_cfgr1 |= ((hadc->Init.ExternalTrigConv & ADC_CFGR1_EXTSEL) |
 8002716:	25e0      	movs	r5, #224	@ 0xe0
 8002718:	006d      	lsls	r5, r5, #1
 800271a:	402a      	ands	r2, r5
 800271c:	6aa5      	ldr	r5, [r4, #40]	@ 0x28
 800271e:	432a      	orrs	r2, r5
 8002720:	4313      	orrs	r3, r2
                      hadc->Init.ExternalTrigConvEdge);
      }

      /* Update ADC configuration register with previous settings */
      MODIFY_REG(hadc->Instance->CFGR1,
 8002722:	68ca      	ldr	r2, [r1, #12]
 8002724:	4d4f      	ldr	r5, [pc, #316]	@ (8002864 <HAL_ADC_Init+0x224>)
 8002726:	402a      	ands	r2, r5
 8002728:	4313      	orrs	r3, r2
 800272a:	60cb      	str	r3, [r1, #12]
                 ADC_CFGR1_ALIGN     |
                 ADC_CFGR1_SCANDIR   |
                 ADC_CFGR1_DMACFG,
                 tmp_cfgr1);

      tmp_cfgr2 |= ((hadc->Init.ClockPrescaler & ADC_CFGR2_CKMODE) |
 800272c:	6863      	ldr	r3, [r4, #4]
 800272e:	0f9b      	lsrs	r3, r3, #30
 8002730:	079b      	lsls	r3, r3, #30
 8002732:	6ce2      	ldr	r2, [r4, #76]	@ 0x4c
 8002734:	431a      	orrs	r2, r3
                    hadc->Init.TriggerFrequencyMode
                   );

      if (hadc->Init.OversamplingMode == ENABLE)
 8002736:	213c      	movs	r1, #60	@ 0x3c
 8002738:	5c61      	ldrb	r1, [r4, r1]
 800273a:	2901      	cmp	r1, #1
 800273c:	d05c      	beq.n	80027f8 <HAL_ADC_Init+0x1b8>
                      hadc->Init.Oversampling.RightBitShift |
                      hadc->Init.Oversampling.TriggeredMode
                     );
      }

      MODIFY_REG(hadc->Instance->CFGR2,
 800273e:	6821      	ldr	r1, [r4, #0]
 8002740:	690b      	ldr	r3, [r1, #16]
 8002742:	4d49      	ldr	r5, [pc, #292]	@ (8002868 <HAL_ADC_Init+0x228>)
 8002744:	402b      	ands	r3, r5
 8002746:	4313      	orrs	r3, r2
 8002748:	610b      	str	r3, [r1, #16]
                 ADC_CFGR2_TOVS,
                 tmp_cfgr2);

      /* Configuration of ADC clock mode: asynchronous clock source           */
      /* with selectable prescaler.                                           */
      if (((hadc->Init.ClockPrescaler) != ADC_CLOCK_SYNC_PCLK_DIV1) &&
 800274a:	6862      	ldr	r2, [r4, #4]
 800274c:	0053      	lsls	r3, r2, #1
 800274e:	085b      	lsrs	r3, r3, #1
 8002750:	2180      	movs	r1, #128	@ 0x80
 8002752:	05c9      	lsls	r1, r1, #23
 8002754:	428b      	cmp	r3, r1
 8002756:	d00c      	beq.n	8002772 <HAL_ADC_Init+0x132>
          ((hadc->Init.ClockPrescaler) != ADC_CLOCK_SYNC_PCLK_DIV2) &&
 8002758:	2380      	movs	r3, #128	@ 0x80
 800275a:	061b      	lsls	r3, r3, #24
 800275c:	429a      	cmp	r2, r3
 800275e:	d008      	beq.n	8002772 <HAL_ADC_Init+0x132>
          ((hadc->Init.ClockPrescaler) != ADC_CLOCK_SYNC_PCLK_DIV4))
      {
        MODIFY_REG(ADC1_COMMON->CCR,
 8002760:	4942      	ldr	r1, [pc, #264]	@ (800286c <HAL_ADC_Init+0x22c>)
 8002762:	680b      	ldr	r3, [r1, #0]
 8002764:	4d42      	ldr	r5, [pc, #264]	@ (8002870 <HAL_ADC_Init+0x230>)
 8002766:	402b      	ands	r3, r5
 8002768:	25f0      	movs	r5, #240	@ 0xf0
 800276a:	03ad      	lsls	r5, r5, #14
 800276c:	402a      	ands	r2, r5
 800276e:	4313      	orrs	r3, r2
 8002770:	600b      	str	r3, [r1, #0]
                   hadc->Init.ClockPrescaler & ADC_CCR_PRESC);
      }
    }

    /* Channel sampling time configuration */
    LL_ADC_SetSamplingTimeCommonChannels(hadc->Instance, LL_ADC_SAMPLINGTIME_COMMON_1, hadc->Init.SamplingTimeCommon1);
 8002772:	6822      	ldr	r2, [r4, #0]
  MODIFY_REG(ADCx->SMPR,
 8002774:	6953      	ldr	r3, [r2, #20]
 8002776:	2107      	movs	r1, #7
 8002778:	438b      	bics	r3, r1
 800277a:	6b61      	ldr	r1, [r4, #52]	@ 0x34
 800277c:	430b      	orrs	r3, r1
 800277e:	6153      	str	r3, [r2, #20]
    LL_ADC_SetSamplingTimeCommonChannels(hadc->Instance, LL_ADC_SAMPLINGTIME_COMMON_2, hadc->Init.SamplingTimeCommon2);
 8002780:	6821      	ldr	r1, [r4, #0]
 8002782:	694a      	ldr	r2, [r1, #20]
 8002784:	6ba3      	ldr	r3, [r4, #56]	@ 0x38
 8002786:	011b      	lsls	r3, r3, #4
 8002788:	2570      	movs	r5, #112	@ 0x70
 800278a:	43aa      	bics	r2, r5
 800278c:	4313      	orrs	r3, r2
 800278e:	614b      	str	r3, [r1, #20]
    /*   emulated by software for alignment over all STM32 devices.           */
    /* - if scan mode is enabled, regular channels sequence length is set to  */
    /*   parameter "NbrOfConversion".                                         */
    /*   Channels must be configured into each rank using function            */
    /*   "HAL_ADC_ConfigChannel()".                                           */
    if (hadc->Init.ScanConvMode == ADC_SCAN_DISABLE)
 8002790:	6923      	ldr	r3, [r4, #16]
 8002792:	2b00      	cmp	r3, #0
 8002794:	d13a      	bne.n	800280c <HAL_ADC_Init+0x1cc>
    {
      /* Set sequencer scan length by clearing ranks above rank 1             */
      /* and do not modify rank 1 value.                                      */
      SET_BIT(hadc->Instance->CHSELR,
 8002796:	6822      	ldr	r2, [r4, #0]
 8002798:	6a91      	ldr	r1, [r2, #40]	@ 0x28
 800279a:	3b10      	subs	r3, #16
 800279c:	430b      	orrs	r3, r1
 800279e:	6293      	str	r3, [r2, #40]	@ 0x28
      /* Nothing to do */
    }

    /* Check back that ADC registers have effectively been configured to      */
    /* ensure of no potential problem of ADC core peripheral clocking.        */
    if (LL_ADC_GetSamplingTimeCommonChannels(hadc->Instance, LL_ADC_SAMPLINGTIME_COMMON_1)
 80027a0:	6823      	ldr	r3, [r4, #0]
  return (uint32_t)((READ_BIT(ADCx->SMPR, ADC_SMPR_SMP1 << (SamplingTimeY & ADC_SAMPLING_TIME_SMP_SHIFT_MASK)))
 80027a2:	695a      	ldr	r2, [r3, #20]
 80027a4:	2307      	movs	r3, #7
 80027a6:	4013      	ands	r3, r2
 80027a8:	6b62      	ldr	r2, [r4, #52]	@ 0x34
 80027aa:	429a      	cmp	r2, r3
 80027ac:	d040      	beq.n	8002830 <HAL_ADC_Init+0x1f0>
                        HAL_ADC_STATE_READY);
    }
    else
    {
      /* Update ADC state machine to error */
      ADC_STATE_CLR_SET(hadc->State,
 80027ae:	6da3      	ldr	r3, [r4, #88]	@ 0x58
 80027b0:	2212      	movs	r2, #18
 80027b2:	4393      	bics	r3, r2
 80027b4:	3a02      	subs	r2, #2
 80027b6:	4313      	orrs	r3, r2
 80027b8:	65a3      	str	r3, [r4, #88]	@ 0x58
                        HAL_ADC_STATE_BUSY_INTERNAL,
                        HAL_ADC_STATE_ERROR_INTERNAL);

      /* Set ADC error code to ADC peripheral internal error */
      SET_BIT(hadc->ErrorCode, HAL_ADC_ERROR_INTERNAL);
 80027ba:	6de3      	ldr	r3, [r4, #92]	@ 0x5c
 80027bc:	3a0f      	subs	r2, #15
 80027be:	4313      	orrs	r3, r2
 80027c0:	65e3      	str	r3, [r4, #92]	@ 0x5c

      tmp_hal_status = HAL_ERROR;
 80027c2:	2001      	movs	r0, #1
 80027c4:	e042      	b.n	800284c <HAL_ADC_Init+0x20c>
    HAL_ADC_MspInit(hadc);
 80027c6:	f7ff fd43 	bl	8002250 <HAL_ADC_MspInit>
    ADC_CLEAR_ERRORCODE(hadc);
 80027ca:	2300      	movs	r3, #0
 80027cc:	65e3      	str	r3, [r4, #92]	@ 0x5c
    hadc->Lock = HAL_UNLOCKED;
 80027ce:	2254      	movs	r2, #84	@ 0x54
 80027d0:	54a3      	strb	r3, [r4, r2]
 80027d2:	e741      	b.n	8002658 <HAL_ADC_Init+0x18>
                    ADC_SCAN_SEQ_MODE(hadc->Init.ScanConvMode)                     |
 80027d4:	005b      	lsls	r3, r3, #1
 80027d6:	085f      	lsrs	r7, r3, #1
 80027d8:	e790      	b.n	80026fc <HAL_ADC_Init+0xbc>
        if (hadc->Init.ContinuousConvMode == DISABLE)
 80027da:	2d00      	cmp	r5, #0
 80027dc:	d103      	bne.n	80027e6 <HAL_ADC_Init+0x1a6>
          tmp_cfgr1 |= ADC_CFGR1_DISCEN;
 80027de:	2280      	movs	r2, #128	@ 0x80
 80027e0:	0252      	lsls	r2, r2, #9
 80027e2:	4313      	orrs	r3, r2
 80027e4:	e794      	b.n	8002710 <HAL_ADC_Init+0xd0>
          SET_BIT(hadc->State, HAL_ADC_STATE_ERROR_CONFIG);
 80027e6:	6da2      	ldr	r2, [r4, #88]	@ 0x58
 80027e8:	2520      	movs	r5, #32
 80027ea:	432a      	orrs	r2, r5
 80027ec:	65a2      	str	r2, [r4, #88]	@ 0x58
          SET_BIT(hadc->ErrorCode, HAL_ADC_ERROR_INTERNAL);
 80027ee:	6de2      	ldr	r2, [r4, #92]	@ 0x5c
 80027f0:	3d1f      	subs	r5, #31
 80027f2:	432a      	orrs	r2, r5
 80027f4:	65e2      	str	r2, [r4, #92]	@ 0x5c
 80027f6:	e78b      	b.n	8002710 <HAL_ADC_Init+0xd0>
        tmp_cfgr2 |= (ADC_CFGR2_OVSE |
 80027f8:	6c21      	ldr	r1, [r4, #64]	@ 0x40
 80027fa:	6c65      	ldr	r5, [r4, #68]	@ 0x44
 80027fc:	4329      	orrs	r1, r5
 80027fe:	430a      	orrs	r2, r1
 8002800:	6ca1      	ldr	r1, [r4, #72]	@ 0x48
 8002802:	430a      	orrs	r2, r1
 8002804:	4313      	orrs	r3, r2
 8002806:	2201      	movs	r2, #1
 8002808:	431a      	orrs	r2, r3
 800280a:	e798      	b.n	800273e <HAL_ADC_Init+0xfe>
    else if (hadc->Init.ScanConvMode == ADC_SCAN_ENABLE)
 800280c:	2280      	movs	r2, #128	@ 0x80
 800280e:	0392      	lsls	r2, r2, #14
 8002810:	4293      	cmp	r3, r2
 8002812:	d1c5      	bne.n	80027a0 <HAL_ADC_Init+0x160>
      MODIFY_REG(hadc->Instance->CHSELR,
 8002814:	6821      	ldr	r1, [r4, #0]
 8002816:	6a8b      	ldr	r3, [r1, #40]	@ 0x28
 8002818:	69e3      	ldr	r3, [r4, #28]
 800281a:	3b01      	subs	r3, #1
 800281c:	009b      	lsls	r3, r3, #2
 800281e:	221c      	movs	r2, #28
 8002820:	401a      	ands	r2, r3
 8002822:	2310      	movs	r3, #16
 8002824:	425b      	negs	r3, r3
 8002826:	4093      	lsls	r3, r2
 8002828:	6e22      	ldr	r2, [r4, #96]	@ 0x60
 800282a:	4313      	orrs	r3, r2
 800282c:	628b      	str	r3, [r1, #40]	@ 0x28
 800282e:	e7b7      	b.n	80027a0 <HAL_ADC_Init+0x160>
      ADC_CLEAR_ERRORCODE(hadc);
 8002830:	2300      	movs	r3, #0
 8002832:	65e3      	str	r3, [r4, #92]	@ 0x5c
      ADC_STATE_CLR_SET(hadc->State,
 8002834:	6da3      	ldr	r3, [r4, #88]	@ 0x58
 8002836:	2203      	movs	r2, #3
 8002838:	4393      	bics	r3, r2
 800283a:	3a02      	subs	r2, #2
 800283c:	4313      	orrs	r3, r2
 800283e:	65a3      	str	r3, [r4, #88]	@ 0x58
 8002840:	e004      	b.n	800284c <HAL_ADC_Init+0x20c>

  }
  else
  {
    /* Update ADC state machine to error */
    SET_BIT(hadc->State, HAL_ADC_STATE_ERROR_INTERNAL);
 8002842:	6da3      	ldr	r3, [r4, #88]	@ 0x58
 8002844:	2210      	movs	r2, #16
 8002846:	4313      	orrs	r3, r2
 8002848:	65a3      	str	r3, [r4, #88]	@ 0x58

    tmp_hal_status = HAL_ERROR;
 800284a:	2001      	movs	r0, #1
  }

  return tmp_hal_status;
}
 800284c:	b003      	add	sp, #12
 800284e:	bdf0      	pop	{r4, r5, r6, r7, pc}
    return HAL_ERROR;
 8002850:	2001      	movs	r0, #1
 8002852:	e7fb      	b.n	800284c <HAL_ADC_Init+0x20c>
 8002854:	6fffffe8 	.word	0x6fffffe8
 8002858:	20000018 	.word	0x20000018
 800285c:	00030d40 	.word	0x00030d40
 8002860:	fffffefd 	.word	0xfffffefd
 8002864:	ffde0201 	.word	0xffde0201
 8002868:	1ffffc02 	.word	0x1ffffc02
 800286c:	40012708 	.word	0x40012708
 8002870:	ffc3ffff 	.word	0xffc3ffff

08002874 <HAL_ADC_ConvCpltCallback>:
  UNUSED(hadc);

  /* NOTE : This function should not be modified. When the callback is needed,
            function HAL_ADC_ConvCpltCallback must be implemented in the user file.
   */
}
 8002874:	4770      	bx	lr

08002876 <HAL_ADC_ConvHalfCpltCallback>:
  UNUSED(hadc);

  /* NOTE : This function should not be modified. When the callback is needed,
            function HAL_ADC_ConvHalfCpltCallback must be implemented in the user file.
  */
}
 8002876:	4770      	bx	lr

08002878 <ADC_DMAHalfConvCplt>:
  * @brief  DMA half transfer complete callback.
  * @param hdma pointer to DMA handle.
  * @retval None
  */
static void ADC_DMAHalfConvCplt(DMA_HandleTypeDef *hdma)
{
 8002878:	b510      	push	{r4, lr}

  /* Half conversion callback */
#if (USE_HAL_ADC_REGISTER_CALLBACKS == 1)
  hadc->ConvHalfCpltCallback(hadc);
#else
  HAL_ADC_ConvHalfCpltCallback(hadc);
 800287a:	6a80      	ldr	r0, [r0, #40]	@ 0x28
 800287c:	f7ff fffb 	bl	8002876 <HAL_ADC_ConvHalfCpltCallback>
#endif /* USE_HAL_ADC_REGISTER_CALLBACKS */
}
 8002880:	bd10      	pop	{r4, pc}

08002882 <HAL_ADC_ErrorCallback>:
}
 8002882:	4770      	bx	lr

08002884 <ADC_DMAError>:
  * @brief  DMA error callback.
  * @param hdma pointer to DMA handle.
  * @retval None
  */
static void ADC_DMAError(DMA_HandleTypeDef *hdma)
{
 8002884:	b510      	push	{r4, lr}
  /* Retrieve ADC handle corresponding to current DMA handle */
  ADC_HandleTypeDef *hadc = (ADC_HandleTypeDef *)((DMA_HandleTypeDef *)hdma)->Parent;
 8002886:	6a80      	ldr	r0, [r0, #40]	@ 0x28

  /* Set ADC state */
  SET_BIT(hadc->State, HAL_ADC_STATE_ERROR_DMA);
 8002888:	6d83      	ldr	r3, [r0, #88]	@ 0x58
 800288a:	2240      	movs	r2, #64	@ 0x40
 800288c:	4313      	orrs	r3, r2
 800288e:	6583      	str	r3, [r0, #88]	@ 0x58

  /* Set ADC error code to DMA error */
  SET_BIT(hadc->ErrorCode, HAL_ADC_ERROR_DMA);
 8002890:	6dc3      	ldr	r3, [r0, #92]	@ 0x5c
 8002892:	3a3c      	subs	r2, #60	@ 0x3c
 8002894:	4313      	orrs	r3, r2
 8002896:	65c3      	str	r3, [r0, #92]	@ 0x5c

  /* Error callback */
#if (USE_HAL_ADC_REGISTER_CALLBACKS == 1)
  hadc->ErrorCallback(hadc);
#else
  HAL_ADC_ErrorCallback(hadc);
 8002898:	f7ff fff3 	bl	8002882 <HAL_ADC_ErrorCallback>
#endif /* USE_HAL_ADC_REGISTER_CALLBACKS */
}
 800289c:	bd10      	pop	{r4, pc}
	...

080028a0 <ADC_DMAConvCplt>:
{
 80028a0:	b510      	push	{r4, lr}
 80028a2:	0003      	movs	r3, r0
  ADC_HandleTypeDef *hadc = (ADC_HandleTypeDef *)((DMA_HandleTypeDef *)hdma)->Parent;
 80028a4:	6a80      	ldr	r0, [r0, #40]	@ 0x28
  if ((hadc->State & (HAL_ADC_STATE_ERROR_INTERNAL | HAL_ADC_STATE_ERROR_DMA)) == 0UL)
 80028a6:	6d82      	ldr	r2, [r0, #88]	@ 0x58
 80028a8:	2150      	movs	r1, #80	@ 0x50
 80028aa:	4211      	tst	r1, r2
 80028ac:	d12a      	bne.n	8002904 <ADC_DMAConvCplt+0x64>
    SET_BIT(hadc->State, HAL_ADC_STATE_REG_EOC);
 80028ae:	6d82      	ldr	r2, [r0, #88]	@ 0x58
 80028b0:	2380      	movs	r3, #128	@ 0x80
 80028b2:	009b      	lsls	r3, r3, #2
 80028b4:	4313      	orrs	r3, r2
 80028b6:	6583      	str	r3, [r0, #88]	@ 0x58
    if ((LL_ADC_REG_IsTriggerSourceSWStart(hadc->Instance) != 0UL)
 80028b8:	6803      	ldr	r3, [r0, #0]
  return ((READ_BIT(ADCx->CFGR1, ADC_CFGR1_EXTEN) == (LL_ADC_REG_TRIG_SOFTWARE & ADC_CFGR1_EXTEN)) ? 1UL : 0UL);
 80028ba:	68d9      	ldr	r1, [r3, #12]
 80028bc:	22c0      	movs	r2, #192	@ 0xc0
 80028be:	0112      	lsls	r2, r2, #4
 80028c0:	4211      	tst	r1, r2
 80028c2:	d113      	bne.n	80028ec <ADC_DMAConvCplt+0x4c>
        && (hadc->Init.ContinuousConvMode == DISABLE)
 80028c4:	7e82      	ldrb	r2, [r0, #26]
 80028c6:	2a00      	cmp	r2, #0
 80028c8:	d110      	bne.n	80028ec <ADC_DMAConvCplt+0x4c>
      if (__HAL_ADC_GET_FLAG(hadc, ADC_FLAG_EOS))
 80028ca:	681a      	ldr	r2, [r3, #0]
 80028cc:	0712      	lsls	r2, r2, #28
 80028ce:	d50d      	bpl.n	80028ec <ADC_DMAConvCplt+0x4c>
  return ((READ_BIT(ADCx->CR, ADC_CR_ADSTART) == (ADC_CR_ADSTART)) ? 1UL : 0UL);
 80028d0:	689a      	ldr	r2, [r3, #8]
 80028d2:	0752      	lsls	r2, r2, #29
 80028d4:	d40d      	bmi.n	80028f2 <ADC_DMAConvCplt+0x52>
          __HAL_ADC_DISABLE_IT(hadc, ADC_IT_EOC | ADC_IT_EOS);
 80028d6:	685a      	ldr	r2, [r3, #4]
 80028d8:	210c      	movs	r1, #12
 80028da:	438a      	bics	r2, r1
 80028dc:	605a      	str	r2, [r3, #4]
          ADC_STATE_CLR_SET(hadc->State,
 80028de:	6d83      	ldr	r3, [r0, #88]	@ 0x58
 80028e0:	4a0e      	ldr	r2, [pc, #56]	@ (800291c <ADC_DMAConvCplt+0x7c>)
 80028e2:	4013      	ands	r3, r2
 80028e4:	3204      	adds	r2, #4
 80028e6:	32ff      	adds	r2, #255	@ 0xff
 80028e8:	4313      	orrs	r3, r2
 80028ea:	6583      	str	r3, [r0, #88]	@ 0x58
    HAL_ADC_ConvCpltCallback(hadc);
 80028ec:	f7ff ffc2 	bl	8002874 <HAL_ADC_ConvCpltCallback>
}
 80028f0:	bd10      	pop	{r4, pc}
          SET_BIT(hadc->State, HAL_ADC_STATE_ERROR_CONFIG);
 80028f2:	6d83      	ldr	r3, [r0, #88]	@ 0x58
 80028f4:	2220      	movs	r2, #32
 80028f6:	4313      	orrs	r3, r2
 80028f8:	6583      	str	r3, [r0, #88]	@ 0x58
          SET_BIT(hadc->ErrorCode, HAL_ADC_ERROR_INTERNAL);
 80028fa:	6dc3      	ldr	r3, [r0, #92]	@ 0x5c
 80028fc:	3a1f      	subs	r2, #31
 80028fe:	4313      	orrs	r3, r2
 8002900:	65c3      	str	r3, [r0, #92]	@ 0x5c
 8002902:	e7f3      	b.n	80028ec <ADC_DMAConvCplt+0x4c>
    if ((hadc->State & HAL_ADC_STATE_ERROR_INTERNAL) != 0UL)
 8002904:	6d82      	ldr	r2, [r0, #88]	@ 0x58
 8002906:	06d2      	lsls	r2, r2, #27
 8002908:	d404      	bmi.n	8002914 <ADC_DMAConvCplt+0x74>
      hadc->DMA_Handle->XferErrorCallback(hdma);
 800290a:	6d02      	ldr	r2, [r0, #80]	@ 0x50
 800290c:	6b52      	ldr	r2, [r2, #52]	@ 0x34
 800290e:	0018      	movs	r0, r3
 8002910:	4790      	blx	r2
}
 8002912:	e7ed      	b.n	80028f0 <ADC_DMAConvCplt+0x50>
      HAL_ADC_ErrorCallback(hadc);
 8002914:	f7ff ffb5 	bl	8002882 <HAL_ADC_ErrorCallback>
 8002918:	e7ea      	b.n	80028f0 <ADC_DMAConvCplt+0x50>
 800291a:	46c0      	nop			@ (mov r8, r8)
 800291c:	fffffefe 	.word	0xfffffefe

08002920 <HAL_ADC_IRQHandler>:
{
 8002920:	b570      	push	{r4, r5, r6, lr}
 8002922:	0004      	movs	r4, r0
  uint32_t tmp_isr = hadc->Instance->ISR;
 8002924:	6803      	ldr	r3, [r0, #0]
 8002926:	681d      	ldr	r5, [r3, #0]
  uint32_t tmp_ier = hadc->Instance->IER;
 8002928:	685e      	ldr	r6, [r3, #4]
  if (((tmp_isr & ADC_FLAG_EOSMP) == ADC_FLAG_EOSMP) && ((tmp_ier & ADC_IT_EOSMP) == ADC_IT_EOSMP))
 800292a:	07ab      	lsls	r3, r5, #30
 800292c:	d50f      	bpl.n	800294e <HAL_ADC_IRQHandler+0x2e>
 800292e:	07b3      	lsls	r3, r6, #30
 8002930:	d50d      	bpl.n	800294e <HAL_ADC_IRQHandler+0x2e>
    if ((hadc->State & HAL_ADC_STATE_ERROR_INTERNAL) == 0UL)
 8002932:	6d83      	ldr	r3, [r0, #88]	@ 0x58
 8002934:	06db      	lsls	r3, r3, #27
 8002936:	d404      	bmi.n	8002942 <HAL_ADC_IRQHandler+0x22>
      SET_BIT(hadc->State, HAL_ADC_STATE_REG_EOSMP);
 8002938:	6d82      	ldr	r2, [r0, #88]	@ 0x58
 800293a:	2380      	movs	r3, #128	@ 0x80
 800293c:	011b      	lsls	r3, r3, #4
 800293e:	4313      	orrs	r3, r2
 8002940:	6583      	str	r3, [r0, #88]	@ 0x58
    HAL_ADCEx_EndOfSamplingCallback(hadc);
 8002942:	0020      	movs	r0, r4
 8002944:	f000 fcc4 	bl	80032d0 <HAL_ADCEx_EndOfSamplingCallback>
    __HAL_ADC_CLEAR_FLAG(hadc, ADC_FLAG_EOSMP);
 8002948:	6823      	ldr	r3, [r4, #0]
 800294a:	2202      	movs	r2, #2
 800294c:	601a      	str	r2, [r3, #0]
  if ((((tmp_isr & ADC_FLAG_EOC) == ADC_FLAG_EOC) && ((tmp_ier & ADC_IT_EOC) == ADC_IT_EOC)) ||
 800294e:	076b      	lsls	r3, r5, #29
 8002950:	d501      	bpl.n	8002956 <HAL_ADC_IRQHandler+0x36>
 8002952:	0773      	lsls	r3, r6, #29
 8002954:	d403      	bmi.n	800295e <HAL_ADC_IRQHandler+0x3e>
 8002956:	072b      	lsls	r3, r5, #28
 8002958:	d529      	bpl.n	80029ae <HAL_ADC_IRQHandler+0x8e>
      (((tmp_isr & ADC_FLAG_EOS) == ADC_FLAG_EOS) && ((tmp_ier & ADC_IT_EOS) == ADC_IT_EOS)))
 800295a:	0733      	lsls	r3, r6, #28
 800295c:	d527      	bpl.n	80029ae <HAL_ADC_IRQHandler+0x8e>
    if ((hadc->State & HAL_ADC_STATE_ERROR_INTERNAL) == 0UL)
 800295e:	6da3      	ldr	r3, [r4, #88]	@ 0x58
 8002960:	06db      	lsls	r3, r3, #27
 8002962:	d404      	bmi.n	800296e <HAL_ADC_IRQHandler+0x4e>
      SET_BIT(hadc->State, HAL_ADC_STATE_REG_EOC);
 8002964:	6da2      	ldr	r2, [r4, #88]	@ 0x58
 8002966:	2380      	movs	r3, #128	@ 0x80
 8002968:	009b      	lsls	r3, r3, #2
 800296a:	4313      	orrs	r3, r2
 800296c:	65a3      	str	r3, [r4, #88]	@ 0x58
    if ((LL_ADC_REG_IsTriggerSourceSWStart(hadc->Instance) != 0UL)
 800296e:	6823      	ldr	r3, [r4, #0]
  return ((READ_BIT(ADCx->CFGR1, ADC_CFGR1_EXTEN) == (LL_ADC_REG_TRIG_SOFTWARE & ADC_CFGR1_EXTEN)) ? 1UL : 0UL);
 8002970:	68d9      	ldr	r1, [r3, #12]
 8002972:	22c0      	movs	r2, #192	@ 0xc0
 8002974:	0112      	lsls	r2, r2, #4
 8002976:	4211      	tst	r1, r2
 8002978:	d113      	bne.n	80029a2 <HAL_ADC_IRQHandler+0x82>
        && (hadc->Init.ContinuousConvMode == DISABLE)
 800297a:	7ea2      	ldrb	r2, [r4, #26]
 800297c:	2a00      	cmp	r2, #0
 800297e:	d110      	bne.n	80029a2 <HAL_ADC_IRQHandler+0x82>
      if (__HAL_ADC_GET_FLAG(hadc, ADC_FLAG_EOS))
 8002980:	681a      	ldr	r2, [r3, #0]
 8002982:	0712      	lsls	r2, r2, #28
 8002984:	d50d      	bpl.n	80029a2 <HAL_ADC_IRQHandler+0x82>
  return ((READ_BIT(ADCx->CR, ADC_CR_ADSTART) == (ADC_CR_ADSTART)) ? 1UL : 0UL);
 8002986:	689a      	ldr	r2, [r3, #8]
 8002988:	0752      	lsls	r2, r2, #29
 800298a:	d43b      	bmi.n	8002a04 <HAL_ADC_IRQHandler+0xe4>
          __HAL_ADC_DISABLE_IT(hadc, ADC_IT_EOC | ADC_IT_EOS);
 800298c:	685a      	ldr	r2, [r3, #4]
 800298e:	210c      	movs	r1, #12
 8002990:	438a      	bics	r2, r1
 8002992:	605a      	str	r2, [r3, #4]
          ADC_STATE_CLR_SET(hadc->State,
 8002994:	6da3      	ldr	r3, [r4, #88]	@ 0x58
 8002996:	4a37      	ldr	r2, [pc, #220]	@ (8002a74 <HAL_ADC_IRQHandler+0x154>)
 8002998:	4013      	ands	r3, r2
 800299a:	3204      	adds	r2, #4
 800299c:	32ff      	adds	r2, #255	@ 0xff
 800299e:	4313      	orrs	r3, r2
 80029a0:	65a3      	str	r3, [r4, #88]	@ 0x58
    HAL_ADC_ConvCpltCallback(hadc);
 80029a2:	0020      	movs	r0, r4
 80029a4:	f7ff ff66 	bl	8002874 <HAL_ADC_ConvCpltCallback>
    __HAL_ADC_CLEAR_FLAG(hadc, (ADC_FLAG_EOC | ADC_FLAG_EOS));
 80029a8:	6823      	ldr	r3, [r4, #0]
 80029aa:	220c      	movs	r2, #12
 80029ac:	601a      	str	r2, [r3, #0]
  if (((tmp_isr & ADC_FLAG_AWD1) == ADC_FLAG_AWD1) && ((tmp_ier & ADC_IT_AWD1) == ADC_IT_AWD1))
 80029ae:	062b      	lsls	r3, r5, #24
 80029b0:	d501      	bpl.n	80029b6 <HAL_ADC_IRQHandler+0x96>
 80029b2:	0633      	lsls	r3, r6, #24
 80029b4:	d42f      	bmi.n	8002a16 <HAL_ADC_IRQHandler+0xf6>
  if (((tmp_isr & ADC_FLAG_AWD2) == ADC_FLAG_AWD2) && ((tmp_ier & ADC_IT_AWD2) == ADC_IT_AWD2))
 80029b6:	05eb      	lsls	r3, r5, #23
 80029b8:	d501      	bpl.n	80029be <HAL_ADC_IRQHandler+0x9e>
 80029ba:	05f3      	lsls	r3, r6, #23
 80029bc:	d437      	bmi.n	8002a2e <HAL_ADC_IRQHandler+0x10e>
  if (((tmp_isr & ADC_FLAG_AWD3) == ADC_FLAG_AWD3) && ((tmp_ier & ADC_IT_AWD3) == ADC_IT_AWD3))
 80029be:	05ab      	lsls	r3, r5, #22
 80029c0:	d501      	bpl.n	80029c6 <HAL_ADC_IRQHandler+0xa6>
 80029c2:	05b3      	lsls	r3, r6, #22
 80029c4:	d440      	bmi.n	8002a48 <HAL_ADC_IRQHandler+0x128>
  if (((tmp_isr & ADC_FLAG_OVR) == ADC_FLAG_OVR) && ((tmp_ier & ADC_IT_OVR) == ADC_IT_OVR))
 80029c6:	06eb      	lsls	r3, r5, #27
 80029c8:	d517      	bpl.n	80029fa <HAL_ADC_IRQHandler+0xda>
 80029ca:	06f3      	lsls	r3, r6, #27
 80029cc:	d515      	bpl.n	80029fa <HAL_ADC_IRQHandler+0xda>
    if (hadc->Init.Overrun == ADC_OVR_DATA_PRESERVED)
 80029ce:	6b23      	ldr	r3, [r4, #48]	@ 0x30
 80029d0:	2b00      	cmp	r3, #0
 80029d2:	d003      	beq.n	80029dc <HAL_ADC_IRQHandler+0xbc>
      if (LL_ADC_REG_GetDMATransfer(hadc->Instance) != LL_ADC_REG_DMA_TRANSFER_NONE)
 80029d4:	6823      	ldr	r3, [r4, #0]
  return (uint32_t)(READ_BIT(ADCx->CFGR1, ADC_CFGR1_DMAEN | ADC_CFGR1_DMACFG));
 80029d6:	68db      	ldr	r3, [r3, #12]
 80029d8:	079b      	lsls	r3, r3, #30
 80029da:	d00b      	beq.n	80029f4 <HAL_ADC_IRQHandler+0xd4>
      SET_BIT(hadc->State, HAL_ADC_STATE_REG_OVR);
 80029dc:	6da2      	ldr	r2, [r4, #88]	@ 0x58
 80029de:	2380      	movs	r3, #128	@ 0x80
 80029e0:	00db      	lsls	r3, r3, #3
 80029e2:	4313      	orrs	r3, r2
 80029e4:	65a3      	str	r3, [r4, #88]	@ 0x58
      SET_BIT(hadc->ErrorCode, HAL_ADC_ERROR_OVR);
 80029e6:	6de3      	ldr	r3, [r4, #92]	@ 0x5c
 80029e8:	2202      	movs	r2, #2
 80029ea:	4313      	orrs	r3, r2
 80029ec:	65e3      	str	r3, [r4, #92]	@ 0x5c
      HAL_ADC_ErrorCallback(hadc);
 80029ee:	0020      	movs	r0, r4
 80029f0:	f7ff ff47 	bl	8002882 <HAL_ADC_ErrorCallback>
    __HAL_ADC_CLEAR_FLAG(hadc, ADC_FLAG_OVR);
 80029f4:	6823      	ldr	r3, [r4, #0]
 80029f6:	2210      	movs	r2, #16
 80029f8:	601a      	str	r2, [r3, #0]
  if (((tmp_isr & ADC_FLAG_CCRDY) == ADC_FLAG_CCRDY) && ((tmp_ier & ADC_IT_CCRDY) == ADC_IT_CCRDY))
 80029fa:	04ad      	lsls	r5, r5, #18
 80029fc:	d501      	bpl.n	8002a02 <HAL_ADC_IRQHandler+0xe2>
 80029fe:	04b6      	lsls	r6, r6, #18
 8002a00:	d42f      	bmi.n	8002a62 <HAL_ADC_IRQHandler+0x142>
}
 8002a02:	bd70      	pop	{r4, r5, r6, pc}
          SET_BIT(hadc->State, HAL_ADC_STATE_ERROR_CONFIG);
 8002a04:	6da3      	ldr	r3, [r4, #88]	@ 0x58
 8002a06:	2220      	movs	r2, #32
 8002a08:	4313      	orrs	r3, r2
 8002a0a:	65a3      	str	r3, [r4, #88]	@ 0x58
          SET_BIT(hadc->ErrorCode, HAL_ADC_ERROR_INTERNAL);
 8002a0c:	6de3      	ldr	r3, [r4, #92]	@ 0x5c
 8002a0e:	3a1f      	subs	r2, #31
 8002a10:	4313      	orrs	r3, r2
 8002a12:	65e3      	str	r3, [r4, #92]	@ 0x5c
 8002a14:	e7c5      	b.n	80029a2 <HAL_ADC_IRQHandler+0x82>
    SET_BIT(hadc->State, HAL_ADC_STATE_AWD1);
 8002a16:	6da2      	ldr	r2, [r4, #88]	@ 0x58
 8002a18:	2380      	movs	r3, #128	@ 0x80
 8002a1a:	025b      	lsls	r3, r3, #9
 8002a1c:	4313      	orrs	r3, r2
 8002a1e:	65a3      	str	r3, [r4, #88]	@ 0x58
    HAL_ADC_LevelOutOfWindowCallback(hadc);
 8002a20:	0020      	movs	r0, r4
 8002a22:	f7fe fa73 	bl	8000f0c <HAL_ADC_LevelOutOfWindowCallback>
    __HAL_ADC_CLEAR_FLAG(hadc, ADC_FLAG_AWD1);
 8002a26:	6823      	ldr	r3, [r4, #0]
 8002a28:	2280      	movs	r2, #128	@ 0x80
 8002a2a:	601a      	str	r2, [r3, #0]
 8002a2c:	e7c3      	b.n	80029b6 <HAL_ADC_IRQHandler+0x96>
    SET_BIT(hadc->State, HAL_ADC_STATE_AWD2);
 8002a2e:	6da2      	ldr	r2, [r4, #88]	@ 0x58
 8002a30:	2380      	movs	r3, #128	@ 0x80
 8002a32:	029b      	lsls	r3, r3, #10
 8002a34:	4313      	orrs	r3, r2
 8002a36:	65a3      	str	r3, [r4, #88]	@ 0x58
    HAL_ADCEx_LevelOutOfWindow2Callback(hadc);
 8002a38:	0020      	movs	r0, r4
 8002a3a:	f000 fc47 	bl	80032cc <HAL_ADCEx_LevelOutOfWindow2Callback>
    __HAL_ADC_CLEAR_FLAG(hadc, ADC_FLAG_AWD2);
 8002a3e:	6823      	ldr	r3, [r4, #0]
 8002a40:	2280      	movs	r2, #128	@ 0x80
 8002a42:	0052      	lsls	r2, r2, #1
 8002a44:	601a      	str	r2, [r3, #0]
 8002a46:	e7ba      	b.n	80029be <HAL_ADC_IRQHandler+0x9e>
    SET_BIT(hadc->State, HAL_ADC_STATE_AWD3);
 8002a48:	6da2      	ldr	r2, [r4, #88]	@ 0x58
 8002a4a:	2380      	movs	r3, #128	@ 0x80
 8002a4c:	02db      	lsls	r3, r3, #11
 8002a4e:	4313      	orrs	r3, r2
 8002a50:	65a3      	str	r3, [r4, #88]	@ 0x58
    HAL_ADCEx_LevelOutOfWindow3Callback(hadc);
 8002a52:	0020      	movs	r0, r4
 8002a54:	f000 fc3b 	bl	80032ce <HAL_ADCEx_LevelOutOfWindow3Callback>
    __HAL_ADC_CLEAR_FLAG(hadc, ADC_FLAG_AWD3);
 8002a58:	6823      	ldr	r3, [r4, #0]
 8002a5a:	2280      	movs	r2, #128	@ 0x80
 8002a5c:	0092      	lsls	r2, r2, #2
 8002a5e:	601a      	str	r2, [r3, #0]
 8002a60:	e7b1      	b.n	80029c6 <HAL_ADC_IRQHandler+0xa6>
    HAL_ADCEx_ChannelConfigReadyCallback(hadc);
 8002a62:	0020      	movs	r0, r4
 8002a64:	f000 fc35 	bl	80032d2 <HAL_ADCEx_ChannelConfigReadyCallback>
    __HAL_ADC_CLEAR_FLAG(hadc, ADC_FLAG_CCRDY);
 8002a68:	6823      	ldr	r3, [r4, #0]
 8002a6a:	2280      	movs	r2, #128	@ 0x80
 8002a6c:	0192      	lsls	r2, r2, #6
 8002a6e:	601a      	str	r2, [r3, #0]
}
 8002a70:	e7c7      	b.n	8002a02 <HAL_ADC_IRQHandler+0xe2>
 8002a72:	46c0      	nop			@ (mov r8, r8)
 8002a74:	fffffefe 	.word	0xfffffefe

08002a78 <HAL_ADC_ConfigChannel>:
{
 8002a78:	b5f0      	push	{r4, r5, r6, r7, lr}
 8002a7a:	b083      	sub	sp, #12
 8002a7c:	0004      	movs	r4, r0
  __IO uint32_t wait_loop_index = 0UL;
 8002a7e:	2300      	movs	r3, #0
 8002a80:	9301      	str	r3, [sp, #4]
  if ((hadc->Init.ScanConvMode == ADC_SCAN_SEQ_FIXED)       ||
 8002a82:	6905      	ldr	r5, [r0, #16]
  __HAL_LOCK(hadc);
 8002a84:	3354      	adds	r3, #84	@ 0x54
 8002a86:	5cc3      	ldrb	r3, [r0, r3]
 8002a88:	2b01      	cmp	r3, #1
 8002a8a:	d100      	bne.n	8002a8e <HAL_ADC_ConfigChannel+0x16>
 8002a8c:	e11e      	b.n	8002ccc <HAL_ADC_ConfigChannel+0x254>
 8002a8e:	2354      	movs	r3, #84	@ 0x54
 8002a90:	2201      	movs	r2, #1
 8002a92:	54c2      	strb	r2, [r0, r3]
  if (LL_ADC_REG_IsConversionOngoing(hadc->Instance) == 0UL)
 8002a94:	6800      	ldr	r0, [r0, #0]
  return ((READ_BIT(ADCx->CR, ADC_CR_ADSTART) == (ADC_CR_ADSTART)) ? 1UL : 0UL);
 8002a96:	6883      	ldr	r3, [r0, #8]
 8002a98:	3203      	adds	r2, #3
 8002a9a:	0017      	movs	r7, r2
 8002a9c:	401f      	ands	r7, r3
 8002a9e:	421a      	tst	r2, r3
 8002aa0:	d009      	beq.n	8002ab6 <HAL_ADC_ConfigChannel+0x3e>
    SET_BIT(hadc->State, HAL_ADC_STATE_ERROR_CONFIG);
 8002aa2:	6da3      	ldr	r3, [r4, #88]	@ 0x58
 8002aa4:	321c      	adds	r2, #28
 8002aa6:	4313      	orrs	r3, r2
 8002aa8:	65a3      	str	r3, [r4, #88]	@ 0x58
    tmp_hal_status = HAL_ERROR;
 8002aaa:	2001      	movs	r0, #1
  __HAL_UNLOCK(hadc);
 8002aac:	2354      	movs	r3, #84	@ 0x54
 8002aae:	2200      	movs	r2, #0
 8002ab0:	54e2      	strb	r2, [r4, r3]
}
 8002ab2:	b003      	add	sp, #12
 8002ab4:	bdf0      	pop	{r4, r5, r6, r7, pc}
    if (pConfig->Rank != ADC_RANK_NONE)
 8002ab6:	684a      	ldr	r2, [r1, #4]
 8002ab8:	2a02      	cmp	r2, #2
 8002aba:	d100      	bne.n	8002abe <HAL_ADC_ConfigChannel+0x46>
 8002abc:	e0c4      	b.n	8002c48 <HAL_ADC_ConfigChannel+0x1d0>
      if ((hadc->Init.ScanConvMode == ADC_SCAN_SEQ_FIXED)       ||
 8002abe:	2304      	movs	r3, #4
 8002ac0:	439d      	bics	r5, r3
 8002ac2:	2680      	movs	r6, #128	@ 0x80
 8002ac4:	0636      	lsls	r6, r6, #24
 8002ac6:	42b5      	cmp	r5, r6
 8002ac8:	d021      	beq.n	8002b0e <HAL_ADC_ConfigChannel+0x96>
        MODIFY_REG(hadc->ADCGroupRegularSequencerRanks,
 8002aca:	231f      	movs	r3, #31
 8002acc:	401a      	ands	r2, r3
 8002ace:	3b10      	subs	r3, #16
 8002ad0:	4093      	lsls	r3, r2
 8002ad2:	6e26      	ldr	r6, [r4, #96]	@ 0x60
 8002ad4:	439e      	bics	r6, r3
 8002ad6:	680b      	ldr	r3, [r1, #0]
 8002ad8:	035d      	lsls	r5, r3, #13
 8002ada:	d148      	bne.n	8002b6e <HAL_ADC_ConfigChannel+0xf6>
 8002adc:	005b      	lsls	r3, r3, #1
 8002ade:	0edf      	lsrs	r7, r3, #27
 8002ae0:	003b      	movs	r3, r7
 8002ae2:	4093      	lsls	r3, r2
 8002ae4:	4333      	orrs	r3, r6
 8002ae6:	6623      	str	r3, [r4, #96]	@ 0x60
        if (((pConfig->Rank >> 2UL) + 1UL) <= hadc->Init.NbrOfConversion)
 8002ae8:	684a      	ldr	r2, [r1, #4]
 8002aea:	0893      	lsrs	r3, r2, #2
 8002aec:	3301      	adds	r3, #1
 8002aee:	69e5      	ldr	r5, [r4, #28]
 8002af0:	42ab      	cmp	r3, r5
 8002af2:	d812      	bhi.n	8002b1a <HAL_ADC_ConfigChannel+0xa2>
  MODIFY_REG(ADCx->CHSELR,
 8002af4:	6a86      	ldr	r6, [r0, #40]	@ 0x28
 8002af6:	251f      	movs	r5, #31
 8002af8:	4015      	ands	r5, r2
 8002afa:	680b      	ldr	r3, [r1, #0]
 8002afc:	0e9b      	lsrs	r3, r3, #26
 8002afe:	220f      	movs	r2, #15
 8002b00:	4013      	ands	r3, r2
 8002b02:	40ab      	lsls	r3, r5
 8002b04:	40aa      	lsls	r2, r5
 8002b06:	4396      	bics	r6, r2
 8002b08:	4333      	orrs	r3, r6
 8002b0a:	6283      	str	r3, [r0, #40]	@ 0x28
}
 8002b0c:	e005      	b.n	8002b1a <HAL_ADC_ConfigChannel+0xa2>
  SET_BIT(ADCx->CHSELR, (Channel & ADC_CHANNEL_ID_BITFIELD_MASK));
 8002b0e:	6a82      	ldr	r2, [r0, #40]	@ 0x28
 8002b10:	680b      	ldr	r3, [r1, #0]
 8002b12:	035b      	lsls	r3, r3, #13
 8002b14:	0b5b      	lsrs	r3, r3, #13
 8002b16:	4313      	orrs	r3, r2
 8002b18:	6283      	str	r3, [r0, #40]	@ 0x28
      LL_ADC_SetChannelSamplingTime(hadc->Instance, pConfig->Channel, pConfig->SamplingTime);
 8002b1a:	6825      	ldr	r5, [r4, #0]
  MODIFY_REG(ADCx->SMPR,
 8002b1c:	6968      	ldr	r0, [r5, #20]
 8002b1e:	680a      	ldr	r2, [r1, #0]
 8002b20:	0212      	lsls	r2, r2, #8
 8002b22:	688b      	ldr	r3, [r1, #8]
 8002b24:	4013      	ands	r3, r2
 8002b26:	4e6a      	ldr	r6, [pc, #424]	@ (8002cd0 <HAL_ADC_ConfigChannel+0x258>)
 8002b28:	4033      	ands	r3, r6
 8002b2a:	4390      	bics	r0, r2
 8002b2c:	4303      	orrs	r3, r0
 8002b2e:	616b      	str	r3, [r5, #20]
      if (__LL_ADC_IS_CHANNEL_INTERNAL(pConfig->Channel))
 8002b30:	680b      	ldr	r3, [r1, #0]
  HAL_StatusTypeDef tmp_hal_status = HAL_OK;
 8002b32:	2000      	movs	r0, #0
      if (__LL_ADC_IS_CHANNEL_INTERNAL(pConfig->Channel))
 8002b34:	2b00      	cmp	r3, #0
 8002b36:	dab9      	bge.n	8002aac <HAL_ADC_ConfigChannel+0x34>
  return (uint32_t)(READ_BIT(ADCxy_COMMON->CCR, ADC_CCR_VREFEN | ADC_CCR_TSEN | ADC_CCR_VBATEN));
 8002b38:	4a66      	ldr	r2, [pc, #408]	@ (8002cd4 <HAL_ADC_ConfigChannel+0x25c>)
 8002b3a:	6812      	ldr	r2, [r2, #0]
 8002b3c:	25e0      	movs	r5, #224	@ 0xe0
 8002b3e:	046d      	lsls	r5, r5, #17
 8002b40:	4015      	ands	r5, r2
        if ((pConfig->Channel == ADC_CHANNEL_TEMPSENSOR) &&
 8002b42:	4965      	ldr	r1, [pc, #404]	@ (8002cd8 <HAL_ADC_ConfigChannel+0x260>)
 8002b44:	428b      	cmp	r3, r1
 8002b46:	d050      	beq.n	8002bea <HAL_ADC_ConfigChannel+0x172>
        else if ((pConfig->Channel == ADC_CHANNEL_VBAT)
 8002b48:	4864      	ldr	r0, [pc, #400]	@ (8002cdc <HAL_ADC_ConfigChannel+0x264>)
 8002b4a:	4283      	cmp	r3, r0
 8002b4c:	d06e      	beq.n	8002c2c <HAL_ADC_ConfigChannel+0x1b4>
        else if ((pConfig->Channel == ADC_CHANNEL_VREFINT) &&
 8002b4e:	4964      	ldr	r1, [pc, #400]	@ (8002ce0 <HAL_ADC_ConfigChannel+0x268>)
  HAL_StatusTypeDef tmp_hal_status = HAL_OK;
 8002b50:	2000      	movs	r0, #0
        else if ((pConfig->Channel == ADC_CHANNEL_VREFINT) &&
 8002b52:	428b      	cmp	r3, r1
 8002b54:	d1aa      	bne.n	8002aac <HAL_ADC_ConfigChannel+0x34>
 8002b56:	0252      	lsls	r2, r2, #9
 8002b58:	d4a8      	bmi.n	8002aac <HAL_ADC_ConfigChannel+0x34>
  MODIFY_REG(ADCxy_COMMON->CCR, ADC_CCR_VREFEN | ADC_CCR_TSEN | ADC_CCR_VBATEN, PathInternal);
 8002b5a:	495e      	ldr	r1, [pc, #376]	@ (8002cd4 <HAL_ADC_ConfigChannel+0x25c>)
 8002b5c:	680b      	ldr	r3, [r1, #0]
 8002b5e:	4a61      	ldr	r2, [pc, #388]	@ (8002ce4 <HAL_ADC_ConfigChannel+0x26c>)
 8002b60:	4013      	ands	r3, r2
 8002b62:	432b      	orrs	r3, r5
 8002b64:	2280      	movs	r2, #128	@ 0x80
 8002b66:	03d2      	lsls	r2, r2, #15
 8002b68:	4313      	orrs	r3, r2
 8002b6a:	600b      	str	r3, [r1, #0]
}
 8002b6c:	e79e      	b.n	8002aac <HAL_ADC_ConfigChannel+0x34>
        MODIFY_REG(hadc->ADCGroupRegularSequencerRanks,
 8002b6e:	07dd      	lsls	r5, r3, #31
 8002b70:	d4b6      	bmi.n	8002ae0 <HAL_ADC_ConfigChannel+0x68>
 8002b72:	2701      	movs	r7, #1
 8002b74:	079d      	lsls	r5, r3, #30
 8002b76:	d4b3      	bmi.n	8002ae0 <HAL_ADC_ConfigChannel+0x68>
 8002b78:	3701      	adds	r7, #1
 8002b7a:	075d      	lsls	r5, r3, #29
 8002b7c:	d4b0      	bmi.n	8002ae0 <HAL_ADC_ConfigChannel+0x68>
 8002b7e:	3701      	adds	r7, #1
 8002b80:	071d      	lsls	r5, r3, #28
 8002b82:	d4ad      	bmi.n	8002ae0 <HAL_ADC_ConfigChannel+0x68>
 8002b84:	3701      	adds	r7, #1
 8002b86:	06dd      	lsls	r5, r3, #27
 8002b88:	d4aa      	bmi.n	8002ae0 <HAL_ADC_ConfigChannel+0x68>
 8002b8a:	3701      	adds	r7, #1
 8002b8c:	069d      	lsls	r5, r3, #26
 8002b8e:	d4a7      	bmi.n	8002ae0 <HAL_ADC_ConfigChannel+0x68>
 8002b90:	3701      	adds	r7, #1
 8002b92:	065d      	lsls	r5, r3, #25
 8002b94:	d4a4      	bmi.n	8002ae0 <HAL_ADC_ConfigChannel+0x68>
 8002b96:	3701      	adds	r7, #1
 8002b98:	061d      	lsls	r5, r3, #24
 8002b9a:	d4a1      	bmi.n	8002ae0 <HAL_ADC_ConfigChannel+0x68>
 8002b9c:	3701      	adds	r7, #1
 8002b9e:	05dd      	lsls	r5, r3, #23
 8002ba0:	d49e      	bmi.n	8002ae0 <HAL_ADC_ConfigChannel+0x68>
 8002ba2:	3701      	adds	r7, #1
 8002ba4:	059d      	lsls	r5, r3, #22
 8002ba6:	d49b      	bmi.n	8002ae0 <HAL_ADC_ConfigChannel+0x68>
 8002ba8:	3701      	adds	r7, #1
 8002baa:	055d      	lsls	r5, r3, #21
 8002bac:	d498      	bmi.n	8002ae0 <HAL_ADC_ConfigChannel+0x68>
 8002bae:	3701      	adds	r7, #1
 8002bb0:	051d      	lsls	r5, r3, #20
 8002bb2:	d495      	bmi.n	8002ae0 <HAL_ADC_ConfigChannel+0x68>
 8002bb4:	3701      	adds	r7, #1
 8002bb6:	04dd      	lsls	r5, r3, #19
 8002bb8:	d492      	bmi.n	8002ae0 <HAL_ADC_ConfigChannel+0x68>
 8002bba:	3701      	adds	r7, #1
 8002bbc:	049d      	lsls	r5, r3, #18
 8002bbe:	d48f      	bmi.n	8002ae0 <HAL_ADC_ConfigChannel+0x68>
 8002bc0:	3701      	adds	r7, #1
 8002bc2:	045d      	lsls	r5, r3, #17
 8002bc4:	d48c      	bmi.n	8002ae0 <HAL_ADC_ConfigChannel+0x68>
 8002bc6:	3701      	adds	r7, #1
 8002bc8:	041d      	lsls	r5, r3, #16
 8002bca:	d489      	bmi.n	8002ae0 <HAL_ADC_ConfigChannel+0x68>
 8002bcc:	3701      	adds	r7, #1
 8002bce:	03dd      	lsls	r5, r3, #15
 8002bd0:	d486      	bmi.n	8002ae0 <HAL_ADC_ConfigChannel+0x68>
 8002bd2:	3701      	adds	r7, #1
 8002bd4:	039d      	lsls	r5, r3, #14
 8002bd6:	d483      	bmi.n	8002ae0 <HAL_ADC_ConfigChannel+0x68>
 8002bd8:	2580      	movs	r5, #128	@ 0x80
 8002bda:	02ed      	lsls	r5, r5, #11
 8002bdc:	001f      	movs	r7, r3
 8002bde:	402f      	ands	r7, r5
 8002be0:	422b      	tst	r3, r5
 8002be2:	d100      	bne.n	8002be6 <HAL_ADC_ConfigChannel+0x16e>
 8002be4:	e77c      	b.n	8002ae0 <HAL_ADC_ConfigChannel+0x68>
 8002be6:	2712      	movs	r7, #18
 8002be8:	e77a      	b.n	8002ae0 <HAL_ADC_ConfigChannel+0x68>
        if ((pConfig->Channel == ADC_CHANNEL_TEMPSENSOR) &&
 8002bea:	0212      	lsls	r2, r2, #8
 8002bec:	d500      	bpl.n	8002bf0 <HAL_ADC_ConfigChannel+0x178>
 8002bee:	e75d      	b.n	8002aac <HAL_ADC_ConfigChannel+0x34>
  MODIFY_REG(ADCxy_COMMON->CCR, ADC_CCR_VREFEN | ADC_CCR_TSEN | ADC_CCR_VBATEN, PathInternal);
 8002bf0:	4938      	ldr	r1, [pc, #224]	@ (8002cd4 <HAL_ADC_ConfigChannel+0x25c>)
 8002bf2:	680b      	ldr	r3, [r1, #0]
 8002bf4:	4a3b      	ldr	r2, [pc, #236]	@ (8002ce4 <HAL_ADC_ConfigChannel+0x26c>)
 8002bf6:	4013      	ands	r3, r2
 8002bf8:	432b      	orrs	r3, r5
 8002bfa:	2280      	movs	r2, #128	@ 0x80
 8002bfc:	0412      	lsls	r2, r2, #16
 8002bfe:	4313      	orrs	r3, r2
 8002c00:	600b      	str	r3, [r1, #0]
          wait_loop_index = ((LL_ADC_DELAY_TEMPSENSOR_STAB_US / 10UL) * ((SystemCoreClock / (100000UL * 2UL)) + 1UL));
 8002c02:	4b39      	ldr	r3, [pc, #228]	@ (8002ce8 <HAL_ADC_ConfigChannel+0x270>)
 8002c04:	6818      	ldr	r0, [r3, #0]
 8002c06:	4939      	ldr	r1, [pc, #228]	@ (8002cec <HAL_ADC_ConfigChannel+0x274>)
 8002c08:	f7fd fa84 	bl	8000114 <__udivsi3>
 8002c0c:	3001      	adds	r0, #1
 8002c0e:	0043      	lsls	r3, r0, #1
 8002c10:	181b      	adds	r3, r3, r0
 8002c12:	009b      	lsls	r3, r3, #2
 8002c14:	9301      	str	r3, [sp, #4]
          while (wait_loop_index != 0UL)
 8002c16:	9b01      	ldr	r3, [sp, #4]
 8002c18:	2b00      	cmp	r3, #0
 8002c1a:	d055      	beq.n	8002cc8 <HAL_ADC_ConfigChannel+0x250>
            wait_loop_index--;
 8002c1c:	9b01      	ldr	r3, [sp, #4]
 8002c1e:	3b01      	subs	r3, #1
 8002c20:	9301      	str	r3, [sp, #4]
          while (wait_loop_index != 0UL)
 8002c22:	9b01      	ldr	r3, [sp, #4]
 8002c24:	2b00      	cmp	r3, #0
 8002c26:	d1f9      	bne.n	8002c1c <HAL_ADC_ConfigChannel+0x1a4>
  HAL_StatusTypeDef tmp_hal_status = HAL_OK;
 8002c28:	2000      	movs	r0, #0
 8002c2a:	e73f      	b.n	8002aac <HAL_ADC_ConfigChannel+0x34>
 8002c2c:	2000      	movs	r0, #0
                 && ((tmp_config_internal_channel & LL_ADC_PATH_INTERNAL_VBAT) == 0UL))
 8002c2e:	01d2      	lsls	r2, r2, #7
 8002c30:	d500      	bpl.n	8002c34 <HAL_ADC_ConfigChannel+0x1bc>
 8002c32:	e73b      	b.n	8002aac <HAL_ADC_ConfigChannel+0x34>
 8002c34:	4927      	ldr	r1, [pc, #156]	@ (8002cd4 <HAL_ADC_ConfigChannel+0x25c>)
 8002c36:	680b      	ldr	r3, [r1, #0]
 8002c38:	4a2a      	ldr	r2, [pc, #168]	@ (8002ce4 <HAL_ADC_ConfigChannel+0x26c>)
 8002c3a:	4013      	ands	r3, r2
 8002c3c:	432b      	orrs	r3, r5
 8002c3e:	2280      	movs	r2, #128	@ 0x80
 8002c40:	0452      	lsls	r2, r2, #17
 8002c42:	4313      	orrs	r3, r2
 8002c44:	600b      	str	r3, [r1, #0]
}
 8002c46:	e731      	b.n	8002aac <HAL_ADC_ConfigChannel+0x34>
      if ((hadc->Init.ScanConvMode == ADC_SCAN_SEQ_FIXED)       ||
 8002c48:	2304      	movs	r3, #4
 8002c4a:	439d      	bics	r5, r3
 8002c4c:	2380      	movs	r3, #128	@ 0x80
 8002c4e:	061b      	lsls	r3, r3, #24
 8002c50:	429d      	cmp	r5, r3
 8002c52:	d01c      	beq.n	8002c8e <HAL_ADC_ConfigChannel+0x216>
      if (__LL_ADC_IS_CHANNEL_INTERNAL(pConfig->Channel))
 8002c54:	680b      	ldr	r3, [r1, #0]
  HAL_StatusTypeDef tmp_hal_status = HAL_OK;
 8002c56:	2000      	movs	r0, #0
      if (__LL_ADC_IS_CHANNEL_INTERNAL(pConfig->Channel))
 8002c58:	2b00      	cmp	r3, #0
 8002c5a:	db00      	blt.n	8002c5e <HAL_ADC_ConfigChannel+0x1e6>
 8002c5c:	e726      	b.n	8002aac <HAL_ADC_ConfigChannel+0x34>
  return (uint32_t)(READ_BIT(ADCxy_COMMON->CCR, ADC_CCR_VREFEN | ADC_CCR_TSEN | ADC_CCR_VBATEN));
 8002c5e:	4a1d      	ldr	r2, [pc, #116]	@ (8002cd4 <HAL_ADC_ConfigChannel+0x25c>)
 8002c60:	6812      	ldr	r2, [r2, #0]
        if (pConfig->Channel == ADC_CHANNEL_TEMPSENSOR)
 8002c62:	491d      	ldr	r1, [pc, #116]	@ (8002cd8 <HAL_ADC_ConfigChannel+0x260>)
 8002c64:	428b      	cmp	r3, r1
 8002c66:	d019      	beq.n	8002c9c <HAL_ADC_ConfigChannel+0x224>
        else if (pConfig->Channel == ADC_CHANNEL_VBAT)
 8002c68:	491c      	ldr	r1, [pc, #112]	@ (8002cdc <HAL_ADC_ConfigChannel+0x264>)
 8002c6a:	428b      	cmp	r3, r1
 8002c6c:	d021      	beq.n	8002cb2 <HAL_ADC_ConfigChannel+0x23a>
        else if (pConfig->Channel == ADC_CHANNEL_VREFINT)
 8002c6e:	491c      	ldr	r1, [pc, #112]	@ (8002ce0 <HAL_ADC_ConfigChannel+0x268>)
  HAL_StatusTypeDef tmp_hal_status = HAL_OK;
 8002c70:	2000      	movs	r0, #0
        else if (pConfig->Channel == ADC_CHANNEL_VREFINT)
 8002c72:	428b      	cmp	r3, r1
 8002c74:	d000      	beq.n	8002c78 <HAL_ADC_ConfigChannel+0x200>
 8002c76:	e719      	b.n	8002aac <HAL_ADC_ConfigChannel+0x34>
  MODIFY_REG(ADCxy_COMMON->CCR, ADC_CCR_VREFEN | ADC_CCR_TSEN | ADC_CCR_VBATEN, PathInternal);
 8002c78:	4816      	ldr	r0, [pc, #88]	@ (8002cd4 <HAL_ADC_ConfigChannel+0x25c>)
 8002c7a:	6801      	ldr	r1, [r0, #0]
          LL_ADC_SetCommonPathInternalCh(__LL_ADC_COMMON_INSTANCE(hadc->Instance),
 8002c7c:	23c0      	movs	r3, #192	@ 0xc0
 8002c7e:	045b      	lsls	r3, r3, #17
 8002c80:	4013      	ands	r3, r2
 8002c82:	4a18      	ldr	r2, [pc, #96]	@ (8002ce4 <HAL_ADC_ConfigChannel+0x26c>)
 8002c84:	400a      	ands	r2, r1
 8002c86:	4313      	orrs	r3, r2
 8002c88:	6003      	str	r3, [r0, #0]
  HAL_StatusTypeDef tmp_hal_status = HAL_OK;
 8002c8a:	2000      	movs	r0, #0
}
 8002c8c:	e70e      	b.n	8002aac <HAL_ADC_ConfigChannel+0x34>
  CLEAR_BIT(ADCx->CHSELR, (Channel & ADC_CHANNEL_ID_BITFIELD_MASK));
 8002c8e:	6a82      	ldr	r2, [r0, #40]	@ 0x28
 8002c90:	680b      	ldr	r3, [r1, #0]
 8002c92:	035b      	lsls	r3, r3, #13
 8002c94:	0b5b      	lsrs	r3, r3, #13
 8002c96:	439a      	bics	r2, r3
 8002c98:	6282      	str	r2, [r0, #40]	@ 0x28
}
 8002c9a:	e7db      	b.n	8002c54 <HAL_ADC_ConfigChannel+0x1dc>
  MODIFY_REG(ADCxy_COMMON->CCR, ADC_CCR_VREFEN | ADC_CCR_TSEN | ADC_CCR_VBATEN, PathInternal);
 8002c9c:	480d      	ldr	r0, [pc, #52]	@ (8002cd4 <HAL_ADC_ConfigChannel+0x25c>)
 8002c9e:	6801      	ldr	r1, [r0, #0]
          LL_ADC_SetCommonPathInternalCh(__LL_ADC_COMMON_INSTANCE(hadc->Instance),
 8002ca0:	23a0      	movs	r3, #160	@ 0xa0
 8002ca2:	045b      	lsls	r3, r3, #17
 8002ca4:	4013      	ands	r3, r2
 8002ca6:	4a0f      	ldr	r2, [pc, #60]	@ (8002ce4 <HAL_ADC_ConfigChannel+0x26c>)
 8002ca8:	400a      	ands	r2, r1
 8002caa:	4313      	orrs	r3, r2
 8002cac:	6003      	str	r3, [r0, #0]
  HAL_StatusTypeDef tmp_hal_status = HAL_OK;
 8002cae:	2000      	movs	r0, #0
}
 8002cb0:	e6fc      	b.n	8002aac <HAL_ADC_ConfigChannel+0x34>
  MODIFY_REG(ADCxy_COMMON->CCR, ADC_CCR_VREFEN | ADC_CCR_TSEN | ADC_CCR_VBATEN, PathInternal);
 8002cb2:	4808      	ldr	r0, [pc, #32]	@ (8002cd4 <HAL_ADC_ConfigChannel+0x25c>)
 8002cb4:	6801      	ldr	r1, [r0, #0]
          LL_ADC_SetCommonPathInternalCh(__LL_ADC_COMMON_INSTANCE(hadc->Instance),
 8002cb6:	23c0      	movs	r3, #192	@ 0xc0
 8002cb8:	041b      	lsls	r3, r3, #16
 8002cba:	4013      	ands	r3, r2
 8002cbc:	4a09      	ldr	r2, [pc, #36]	@ (8002ce4 <HAL_ADC_ConfigChannel+0x26c>)
 8002cbe:	400a      	ands	r2, r1
 8002cc0:	4313      	orrs	r3, r2
 8002cc2:	6003      	str	r3, [r0, #0]
  HAL_StatusTypeDef tmp_hal_status = HAL_OK;
 8002cc4:	2000      	movs	r0, #0
}
 8002cc6:	e6f1      	b.n	8002aac <HAL_ADC_ConfigChannel+0x34>
 8002cc8:	2000      	movs	r0, #0
 8002cca:	e6ef      	b.n	8002aac <HAL_ADC_ConfigChannel+0x34>
  __HAL_LOCK(hadc);
 8002ccc:	2002      	movs	r0, #2
 8002cce:	e6f0      	b.n	8002ab2 <HAL_ADC_ConfigChannel+0x3a>
 8002cd0:	07ffff00 	.word	0x07ffff00
 8002cd4:	40012708 	.word	0x40012708
 8002cd8:	b0001000 	.word	0xb0001000
 8002cdc:	b8004000 	.word	0xb8004000
 8002ce0:	b4002000 	.word	0xb4002000
 8002ce4:	fe3fffff 	.word	0xfe3fffff
 8002ce8:	20000018 	.word	0x20000018
 8002cec:	00030d40 	.word	0x00030d40

08002cf0 <ADC_Enable>:
{
 8002cf0:	b5f0      	push	{r4, r5, r6, r7, lr}
 8002cf2:	b083      	sub	sp, #12
 8002cf4:	0004      	movs	r4, r0
  __IO uint32_t wait_loop_index = 0UL;
 8002cf6:	2300      	movs	r3, #0
 8002cf8:	9301      	str	r3, [sp, #4]
  if (LL_ADC_IsEnabled(hadc->Instance) == 0UL)
 8002cfa:	6803      	ldr	r3, [r0, #0]
  return ((READ_BIT(ADCx->CR, ADC_CR_ADEN) == (ADC_CR_ADEN)) ? 1UL : 0UL);
 8002cfc:	689a      	ldr	r2, [r3, #8]
  return HAL_OK;
 8002cfe:	2000      	movs	r0, #0
 8002d00:	07d2      	lsls	r2, r2, #31
 8002d02:	d434      	bmi.n	8002d6e <ADC_Enable+0x7e>
    if ((hadc->Instance->CR & (ADC_CR_ADCAL | ADC_CR_ADSTP | ADC_CR_ADSTART | ADC_CR_ADDIS | ADC_CR_ADEN)) != 0UL)
 8002d04:	6899      	ldr	r1, [r3, #8]
 8002d06:	4a2c      	ldr	r2, [pc, #176]	@ (8002db8 <ADC_Enable+0xc8>)
 8002d08:	4211      	tst	r1, r2
 8002d0a:	d127      	bne.n	8002d5c <ADC_Enable+0x6c>
  MODIFY_REG(ADCx->CR,
 8002d0c:	689a      	ldr	r2, [r3, #8]
 8002d0e:	492b      	ldr	r1, [pc, #172]	@ (8002dbc <ADC_Enable+0xcc>)
 8002d10:	400a      	ands	r2, r1
 8002d12:	2101      	movs	r1, #1
 8002d14:	430a      	orrs	r2, r1
 8002d16:	609a      	str	r2, [r3, #8]
  return (uint32_t)(READ_BIT(ADCxy_COMMON->CCR, ADC_CCR_VREFEN | ADC_CCR_TSEN | ADC_CCR_VBATEN));
 8002d18:	4b29      	ldr	r3, [pc, #164]	@ (8002dc0 <ADC_Enable+0xd0>)
 8002d1a:	681b      	ldr	r3, [r3, #0]
    if ((LL_ADC_GetCommonPathInternalCh(__LL_ADC_COMMON_INSTANCE(hadc->Instance)) & LL_ADC_PATH_INTERNAL_TEMPSENSOR)
 8002d1c:	021b      	lsls	r3, r3, #8
 8002d1e:	d50f      	bpl.n	8002d40 <ADC_Enable+0x50>
                         * ((SystemCoreClock / (100000UL * 2UL)) + 1UL));
 8002d20:	4b28      	ldr	r3, [pc, #160]	@ (8002dc4 <ADC_Enable+0xd4>)
 8002d22:	6818      	ldr	r0, [r3, #0]
 8002d24:	4928      	ldr	r1, [pc, #160]	@ (8002dc8 <ADC_Enable+0xd8>)
 8002d26:	f7fd f9f5 	bl	8000114 <__udivsi3>
 8002d2a:	3001      	adds	r0, #1
      wait_loop_index = ((LL_ADC_DELAY_TEMPSENSOR_BUFFER_STAB_US / 10UL)
 8002d2c:	9001      	str	r0, [sp, #4]
      while (wait_loop_index != 0UL)
 8002d2e:	9b01      	ldr	r3, [sp, #4]
 8002d30:	2b00      	cmp	r3, #0
 8002d32:	d005      	beq.n	8002d40 <ADC_Enable+0x50>
        wait_loop_index--;
 8002d34:	9b01      	ldr	r3, [sp, #4]
 8002d36:	3b01      	subs	r3, #1
 8002d38:	9301      	str	r3, [sp, #4]
      while (wait_loop_index != 0UL)
 8002d3a:	9b01      	ldr	r3, [sp, #4]
 8002d3c:	2b00      	cmp	r3, #0
 8002d3e:	d1f9      	bne.n	8002d34 <ADC_Enable+0x44>
    if (hadc->Init.LowPowerAutoPowerOff != ENABLE)
 8002d40:	7e63      	ldrb	r3, [r4, #25]
  return HAL_OK;
 8002d42:	2000      	movs	r0, #0
    if (hadc->Init.LowPowerAutoPowerOff != ENABLE)
 8002d44:	2b01      	cmp	r3, #1
 8002d46:	d012      	beq.n	8002d6e <ADC_Enable+0x7e>
      tickstart = HAL_GetTick();
 8002d48:	f7ff fc74 	bl	8002634 <HAL_GetTick>
 8002d4c:	0006      	movs	r6, r0
      while (__HAL_ADC_GET_FLAG(hadc, ADC_FLAG_RDY) == 0UL)
 8002d4e:	6823      	ldr	r3, [r4, #0]
 8002d50:	681a      	ldr	r2, [r3, #0]
 8002d52:	07d2      	lsls	r2, r2, #31
 8002d54:	d42d      	bmi.n	8002db2 <ADC_Enable+0xc2>
  return ((READ_BIT(ADCx->CR, ADC_CR_ADEN) == (ADC_CR_ADEN)) ? 1UL : 0UL);
 8002d56:	2501      	movs	r5, #1
  MODIFY_REG(ADCx->CR,
 8002d58:	4f18      	ldr	r7, [pc, #96]	@ (8002dbc <ADC_Enable+0xcc>)
 8002d5a:	e00e      	b.n	8002d7a <ADC_Enable+0x8a>
      SET_BIT(hadc->State, HAL_ADC_STATE_ERROR_INTERNAL);
 8002d5c:	6da3      	ldr	r3, [r4, #88]	@ 0x58
 8002d5e:	2210      	movs	r2, #16
 8002d60:	4313      	orrs	r3, r2
 8002d62:	65a3      	str	r3, [r4, #88]	@ 0x58
      SET_BIT(hadc->ErrorCode, HAL_ADC_ERROR_INTERNAL);
 8002d64:	6de3      	ldr	r3, [r4, #92]	@ 0x5c
 8002d66:	3a0f      	subs	r2, #15
 8002d68:	4313      	orrs	r3, r2
 8002d6a:	65e3      	str	r3, [r4, #92]	@ 0x5c
      return HAL_ERROR;
 8002d6c:	3001      	adds	r0, #1
}
 8002d6e:	b003      	add	sp, #12
 8002d70:	bdf0      	pop	{r4, r5, r6, r7, pc}
      while (__HAL_ADC_GET_FLAG(hadc, ADC_FLAG_RDY) == 0UL)
 8002d72:	6823      	ldr	r3, [r4, #0]
 8002d74:	681a      	ldr	r2, [r3, #0]
 8002d76:	4215      	tst	r5, r2
 8002d78:	d119      	bne.n	8002dae <ADC_Enable+0xbe>
  return ((READ_BIT(ADCx->CR, ADC_CR_ADEN) == (ADC_CR_ADEN)) ? 1UL : 0UL);
 8002d7a:	689a      	ldr	r2, [r3, #8]
 8002d7c:	4215      	tst	r5, r2
 8002d7e:	d103      	bne.n	8002d88 <ADC_Enable+0x98>
  MODIFY_REG(ADCx->CR,
 8002d80:	689a      	ldr	r2, [r3, #8]
 8002d82:	403a      	ands	r2, r7
 8002d84:	432a      	orrs	r2, r5
 8002d86:	609a      	str	r2, [r3, #8]
        if ((HAL_GetTick() - tickstart) > ADC_ENABLE_TIMEOUT)
 8002d88:	f7ff fc54 	bl	8002634 <HAL_GetTick>
 8002d8c:	1b80      	subs	r0, r0, r6
 8002d8e:	2802      	cmp	r0, #2
 8002d90:	d9ef      	bls.n	8002d72 <ADC_Enable+0x82>
          if (__HAL_ADC_GET_FLAG(hadc, ADC_FLAG_RDY) == 0UL)
 8002d92:	6823      	ldr	r3, [r4, #0]
 8002d94:	681b      	ldr	r3, [r3, #0]
 8002d96:	421d      	tst	r5, r3
 8002d98:	d1eb      	bne.n	8002d72 <ADC_Enable+0x82>
            SET_BIT(hadc->State, HAL_ADC_STATE_ERROR_INTERNAL);
 8002d9a:	6da3      	ldr	r3, [r4, #88]	@ 0x58
 8002d9c:	2210      	movs	r2, #16
 8002d9e:	4313      	orrs	r3, r2
 8002da0:	65a3      	str	r3, [r4, #88]	@ 0x58
            SET_BIT(hadc->ErrorCode, HAL_ADC_ERROR_INTERNAL);
 8002da2:	6de3      	ldr	r3, [r4, #92]	@ 0x5c
 8002da4:	3a0f      	subs	r2, #15
 8002da6:	4313      	orrs	r3, r2
 8002da8:	65e3      	str	r3, [r4, #92]	@ 0x5c
            return HAL_ERROR;
 8002daa:	2001      	movs	r0, #1
 8002dac:	e7df      	b.n	8002d6e <ADC_Enable+0x7e>
  return HAL_OK;
 8002dae:	2000      	movs	r0, #0
 8002db0:	e7dd      	b.n	8002d6e <ADC_Enable+0x7e>
 8002db2:	2000      	movs	r0, #0
 8002db4:	e7db      	b.n	8002d6e <ADC_Enable+0x7e>
 8002db6:	46c0      	nop			@ (mov r8, r8)
 8002db8:	80000017 	.word	0x80000017
 8002dbc:	7fffffe8 	.word	0x7fffffe8
 8002dc0:	40012708 	.word	0x40012708
 8002dc4:	20000018 	.word	0x20000018
 8002dc8:	00030d40 	.word	0x00030d40

08002dcc <HAL_ADC_Start_DMA>:
{
 8002dcc:	b570      	push	{r4, r5, r6, lr}
 8002dce:	0004      	movs	r4, r0
 8002dd0:	000d      	movs	r5, r1
 8002dd2:	0016      	movs	r6, r2
  if (LL_ADC_REG_IsConversionOngoing(hadc->Instance) == 0UL)
 8002dd4:	6802      	ldr	r2, [r0, #0]
  return ((READ_BIT(ADCx->CR, ADC_CR_ADSTART) == (ADC_CR_ADSTART)) ? 1UL : 0UL);
 8002dd6:	6893      	ldr	r3, [r2, #8]
    tmp_hal_status = HAL_BUSY;
 8002dd8:	2002      	movs	r0, #2
 8002dda:	075b      	lsls	r3, r3, #29
 8002ddc:	d41c      	bmi.n	8002e18 <HAL_ADC_Start_DMA+0x4c>
    __HAL_LOCK(hadc);
 8002dde:	2354      	movs	r3, #84	@ 0x54
 8002de0:	5ce3      	ldrb	r3, [r4, r3]
 8002de2:	2b01      	cmp	r3, #1
 8002de4:	d044      	beq.n	8002e70 <HAL_ADC_Start_DMA+0xa4>
 8002de6:	2301      	movs	r3, #1
 8002de8:	2154      	movs	r1, #84	@ 0x54
 8002dea:	5463      	strb	r3, [r4, r1]
    if ((hadc->Instance->CFGR1 & ADC_CFGR1_DMAEN) == 0UL)
 8002dec:	68d1      	ldr	r1, [r2, #12]
 8002dee:	420b      	tst	r3, r1
 8002df0:	d10d      	bne.n	8002e0e <HAL_ADC_Start_DMA+0x42>
  return ((READ_BIT(ADCx->CR, ADC_CR_ADEN) == (ADC_CR_ADEN)) ? 1UL : 0UL);
 8002df2:	6893      	ldr	r3, [r2, #8]
 8002df4:	07db      	lsls	r3, r3, #31
 8002df6:	d505      	bpl.n	8002e04 <HAL_ADC_Start_DMA+0x38>
  MODIFY_REG(ADCx->CR,
 8002df8:	6893      	ldr	r3, [r2, #8]
 8002dfa:	491e      	ldr	r1, [pc, #120]	@ (8002e74 <HAL_ADC_Start_DMA+0xa8>)
 8002dfc:	400b      	ands	r3, r1
 8002dfe:	2102      	movs	r1, #2
 8002e00:	430b      	orrs	r3, r1
 8002e02:	6093      	str	r3, [r2, #8]
      hadc->Instance->CFGR1 |= ADC_CFGR1_DMAEN;
 8002e04:	6822      	ldr	r2, [r4, #0]
 8002e06:	68d3      	ldr	r3, [r2, #12]
 8002e08:	2101      	movs	r1, #1
 8002e0a:	430b      	orrs	r3, r1
 8002e0c:	60d3      	str	r3, [r2, #12]
    tmp_hal_status = ADC_Enable(hadc);
 8002e0e:	0020      	movs	r0, r4
 8002e10:	f7ff ff6e 	bl	8002cf0 <ADC_Enable>
    if (tmp_hal_status == HAL_OK)
 8002e14:	2800      	cmp	r0, #0
 8002e16:	d000      	beq.n	8002e1a <HAL_ADC_Start_DMA+0x4e>
}
 8002e18:	bd70      	pop	{r4, r5, r6, pc}
      ADC_STATE_CLR_SET(hadc->State,
 8002e1a:	6da2      	ldr	r2, [r4, #88]	@ 0x58
 8002e1c:	4b16      	ldr	r3, [pc, #88]	@ (8002e78 <HAL_ADC_Start_DMA+0xac>)
 8002e1e:	401a      	ands	r2, r3
 8002e20:	2380      	movs	r3, #128	@ 0x80
 8002e22:	005b      	lsls	r3, r3, #1
 8002e24:	4313      	orrs	r3, r2
 8002e26:	65a3      	str	r3, [r4, #88]	@ 0x58
      ADC_CLEAR_ERRORCODE(hadc);
 8002e28:	2300      	movs	r3, #0
 8002e2a:	65e3      	str	r3, [r4, #92]	@ 0x5c
      hadc->DMA_Handle->XferCpltCallback = ADC_DMAConvCplt;
 8002e2c:	6d22      	ldr	r2, [r4, #80]	@ 0x50
 8002e2e:	4913      	ldr	r1, [pc, #76]	@ (8002e7c <HAL_ADC_Start_DMA+0xb0>)
 8002e30:	62d1      	str	r1, [r2, #44]	@ 0x2c
      hadc->DMA_Handle->XferHalfCpltCallback = ADC_DMAHalfConvCplt;
 8002e32:	6d22      	ldr	r2, [r4, #80]	@ 0x50
 8002e34:	4912      	ldr	r1, [pc, #72]	@ (8002e80 <HAL_ADC_Start_DMA+0xb4>)
 8002e36:	6311      	str	r1, [r2, #48]	@ 0x30
      hadc->DMA_Handle->XferErrorCallback = ADC_DMAError;
 8002e38:	6d22      	ldr	r2, [r4, #80]	@ 0x50
 8002e3a:	4912      	ldr	r1, [pc, #72]	@ (8002e84 <HAL_ADC_Start_DMA+0xb8>)
 8002e3c:	6351      	str	r1, [r2, #52]	@ 0x34
      __HAL_ADC_CLEAR_FLAG(hadc, (ADC_FLAG_EOC | ADC_FLAG_EOS | ADC_FLAG_OVR));
 8002e3e:	6822      	ldr	r2, [r4, #0]
 8002e40:	211c      	movs	r1, #28
 8002e42:	6011      	str	r1, [r2, #0]
      __HAL_UNLOCK(hadc);
 8002e44:	2254      	movs	r2, #84	@ 0x54
 8002e46:	54a3      	strb	r3, [r4, r2]
      __HAL_ADC_ENABLE_IT(hadc, ADC_IT_OVR);
 8002e48:	6822      	ldr	r2, [r4, #0]
 8002e4a:	6853      	ldr	r3, [r2, #4]
 8002e4c:	390c      	subs	r1, #12
 8002e4e:	430b      	orrs	r3, r1
 8002e50:	6053      	str	r3, [r2, #4]
      tmp_hal_status = HAL_DMA_Start_IT(hadc->DMA_Handle, (uint32_t)&hadc->Instance->DR, (uint32_t)pData, Length);
 8002e52:	6821      	ldr	r1, [r4, #0]
 8002e54:	3140      	adds	r1, #64	@ 0x40
 8002e56:	6d20      	ldr	r0, [r4, #80]	@ 0x50
 8002e58:	0033      	movs	r3, r6
 8002e5a:	002a      	movs	r2, r5
 8002e5c:	f000 fb36 	bl	80034cc <HAL_DMA_Start_IT>
      LL_ADC_REG_StartConversion(hadc->Instance);
 8002e60:	6822      	ldr	r2, [r4, #0]
  MODIFY_REG(ADCx->CR,
 8002e62:	6893      	ldr	r3, [r2, #8]
 8002e64:	4903      	ldr	r1, [pc, #12]	@ (8002e74 <HAL_ADC_Start_DMA+0xa8>)
 8002e66:	400b      	ands	r3, r1
 8002e68:	2104      	movs	r1, #4
 8002e6a:	430b      	orrs	r3, r1
 8002e6c:	6093      	str	r3, [r2, #8]
}
 8002e6e:	e7d3      	b.n	8002e18 <HAL_ADC_Start_DMA+0x4c>
    __HAL_LOCK(hadc);
 8002e70:	2002      	movs	r0, #2
 8002e72:	e7d1      	b.n	8002e18 <HAL_ADC_Start_DMA+0x4c>
 8002e74:	7fffffe8 	.word	0x7fffffe8
 8002e78:	fffff0fe 	.word	0xfffff0fe
 8002e7c:	080028a1 	.word	0x080028a1
 8002e80:	08002879 	.word	0x08002879
 8002e84:	08002885 	.word	0x08002885

08002e88 <ADC_Disable>:
{
 8002e88:	b570      	push	{r4, r5, r6, lr}
 8002e8a:	0004      	movs	r4, r0
  const uint32_t tmp_adc_is_disable_on_going = LL_ADC_IsDisableOngoing(hadc->Instance);
 8002e8c:	6803      	ldr	r3, [r0, #0]
  return ((READ_BIT(ADCx->CR, ADC_CR_ADDIS) == (ADC_CR_ADDIS)) ? 1UL : 0UL);
 8002e8e:	6899      	ldr	r1, [r3, #8]
  return ((READ_BIT(ADCx->CR, ADC_CR_ADEN) == (ADC_CR_ADEN)) ? 1UL : 0UL);
 8002e90:	689a      	ldr	r2, [r3, #8]
  return HAL_OK;
 8002e92:	2000      	movs	r0, #0
 8002e94:	07d2      	lsls	r2, r2, #31
 8002e96:	d50f      	bpl.n	8002eb8 <ADC_Disable+0x30>
      && (tmp_adc_is_disable_on_going == 0UL)
 8002e98:	0789      	lsls	r1, r1, #30
 8002e9a:	d40d      	bmi.n	8002eb8 <ADC_Disable+0x30>
    if ((hadc->Instance->CR & (ADC_CR_ADSTART | ADC_CR_ADEN)) == ADC_CR_ADEN)
 8002e9c:	6899      	ldr	r1, [r3, #8]
 8002e9e:	2205      	movs	r2, #5
 8002ea0:	400a      	ands	r2, r1
 8002ea2:	2a01      	cmp	r2, #1
 8002ea4:	d009      	beq.n	8002eba <ADC_Disable+0x32>
      SET_BIT(hadc->State, HAL_ADC_STATE_ERROR_INTERNAL);
 8002ea6:	6da3      	ldr	r3, [r4, #88]	@ 0x58
 8002ea8:	2210      	movs	r2, #16
 8002eaa:	4313      	orrs	r3, r2
 8002eac:	65a3      	str	r3, [r4, #88]	@ 0x58
      SET_BIT(hadc->ErrorCode, HAL_ADC_ERROR_INTERNAL);
 8002eae:	6de3      	ldr	r3, [r4, #92]	@ 0x5c
 8002eb0:	3a0f      	subs	r2, #15
 8002eb2:	4313      	orrs	r3, r2
 8002eb4:	65e3      	str	r3, [r4, #92]	@ 0x5c
      return HAL_ERROR;
 8002eb6:	2001      	movs	r0, #1
}
 8002eb8:	bd70      	pop	{r4, r5, r6, pc}
  MODIFY_REG(ADCx->CR,
 8002eba:	689a      	ldr	r2, [r3, #8]
 8002ebc:	4915      	ldr	r1, [pc, #84]	@ (8002f14 <ADC_Disable+0x8c>)
 8002ebe:	400a      	ands	r2, r1
 8002ec0:	2102      	movs	r1, #2
 8002ec2:	430a      	orrs	r2, r1
 8002ec4:	609a      	str	r2, [r3, #8]
      __HAL_ADC_CLEAR_FLAG(hadc, (ADC_FLAG_EOSMP | ADC_FLAG_RDY));
 8002ec6:	6823      	ldr	r3, [r4, #0]
 8002ec8:	2203      	movs	r2, #3
 8002eca:	601a      	str	r2, [r3, #0]
    tickstart = HAL_GetTick();
 8002ecc:	f7ff fbb2 	bl	8002634 <HAL_GetTick>
 8002ed0:	0006      	movs	r6, r0
    while ((hadc->Instance->CR & ADC_CR_ADEN) != 0UL)
 8002ed2:	6823      	ldr	r3, [r4, #0]
 8002ed4:	689b      	ldr	r3, [r3, #8]
        if ((hadc->Instance->CR & ADC_CR_ADEN) != 0UL)
 8002ed6:	2501      	movs	r5, #1
  return HAL_OK;
 8002ed8:	2000      	movs	r0, #0
    while ((hadc->Instance->CR & ADC_CR_ADEN) != 0UL)
 8002eda:	07db      	lsls	r3, r3, #31
 8002edc:	d404      	bmi.n	8002ee8 <ADC_Disable+0x60>
 8002ede:	e7eb      	b.n	8002eb8 <ADC_Disable+0x30>
 8002ee0:	6823      	ldr	r3, [r4, #0]
 8002ee2:	689b      	ldr	r3, [r3, #8]
 8002ee4:	421d      	tst	r5, r3
 8002ee6:	d012      	beq.n	8002f0e <ADC_Disable+0x86>
      if ((HAL_GetTick() - tickstart) > ADC_DISABLE_TIMEOUT)
 8002ee8:	f7ff fba4 	bl	8002634 <HAL_GetTick>
 8002eec:	1b80      	subs	r0, r0, r6
 8002eee:	2802      	cmp	r0, #2
 8002ef0:	d9f6      	bls.n	8002ee0 <ADC_Disable+0x58>
        if ((hadc->Instance->CR & ADC_CR_ADEN) != 0UL)
 8002ef2:	6823      	ldr	r3, [r4, #0]
 8002ef4:	689b      	ldr	r3, [r3, #8]
 8002ef6:	421d      	tst	r5, r3
 8002ef8:	d0f2      	beq.n	8002ee0 <ADC_Disable+0x58>
          SET_BIT(hadc->State, HAL_ADC_STATE_ERROR_INTERNAL);
 8002efa:	6da3      	ldr	r3, [r4, #88]	@ 0x58
 8002efc:	2210      	movs	r2, #16
 8002efe:	4313      	orrs	r3, r2
 8002f00:	65a3      	str	r3, [r4, #88]	@ 0x58
          SET_BIT(hadc->ErrorCode, HAL_ADC_ERROR_INTERNAL);
 8002f02:	6de3      	ldr	r3, [r4, #92]	@ 0x5c
 8002f04:	3a0f      	subs	r2, #15
 8002f06:	4313      	orrs	r3, r2
 8002f08:	65e3      	str	r3, [r4, #92]	@ 0x5c
          return HAL_ERROR;
 8002f0a:	2001      	movs	r0, #1
 8002f0c:	e7d4      	b.n	8002eb8 <ADC_Disable+0x30>
  return HAL_OK;
 8002f0e:	2000      	movs	r0, #0
 8002f10:	e7d2      	b.n	8002eb8 <ADC_Disable+0x30>
 8002f12:	46c0      	nop			@ (mov r8, r8)
 8002f14:	7fffffe8 	.word	0x7fffffe8

08002f18 <HAL_ADC_AnalogWDGConfig>:
{
 8002f18:	b5f8      	push	{r3, r4, r5, r6, r7, lr}
 8002f1a:	0004      	movs	r4, r0
 8002f1c:	000d      	movs	r5, r1
  __HAL_LOCK(hadc);
 8002f1e:	2354      	movs	r3, #84	@ 0x54
 8002f20:	5cc3      	ldrb	r3, [r0, r3]
 8002f22:	2b01      	cmp	r3, #1
 8002f24:	d100      	bne.n	8002f28 <HAL_ADC_AnalogWDGConfig+0x10>
 8002f26:	e1bc      	b.n	80032a2 <HAL_ADC_AnalogWDGConfig+0x38a>
 8002f28:	2354      	movs	r3, #84	@ 0x54
 8002f2a:	2201      	movs	r2, #1
 8002f2c:	54c2      	strb	r2, [r0, r3]
  if (LL_ADC_REG_IsConversionOngoing(hadc->Instance) == 0UL)
 8002f2e:	6803      	ldr	r3, [r0, #0]
  return ((READ_BIT(ADCx->CR, ADC_CR_ADSTART) == (ADC_CR_ADSTART)) ? 1UL : 0UL);
 8002f30:	689a      	ldr	r2, [r3, #8]
  HAL_StatusTypeDef tmp_hal_status = HAL_OK;
 8002f32:	2000      	movs	r0, #0
 8002f34:	0752      	lsls	r2, r2, #29
 8002f36:	d500      	bpl.n	8002f3a <HAL_ADC_AnalogWDGConfig+0x22>
 8002f38:	e15e      	b.n	80031f8 <HAL_ADC_AnalogWDGConfig+0x2e0>
    if (pAnalogWDGConfig->WatchdogNumber == ADC_ANALOGWATCHDOG_1)
 8002f3a:	680a      	ldr	r2, [r1, #0]
 8002f3c:	4998      	ldr	r1, [pc, #608]	@ (80031a0 <HAL_ADC_AnalogWDGConfig+0x288>)
 8002f3e:	428a      	cmp	r2, r1
 8002f40:	d01b      	beq.n	8002f7a <HAL_ADC_AnalogWDGConfig+0x62>
      switch (pAnalogWDGConfig->WatchdogMode)
 8002f42:	6869      	ldr	r1, [r5, #4]
 8002f44:	2080      	movs	r0, #128	@ 0x80
 8002f46:	0400      	lsls	r0, r0, #16
 8002f48:	4281      	cmp	r1, r0
 8002f4a:	d100      	bne.n	8002f4e <HAL_ADC_AnalogWDGConfig+0x36>
 8002f4c:	e132      	b.n	80031b4 <HAL_ADC_AnalogWDGConfig+0x29c>
 8002f4e:	20c0      	movs	r0, #192	@ 0xc0
 8002f50:	0400      	lsls	r0, r0, #16
 8002f52:	4281      	cmp	r1, r0
 8002f54:	d000      	beq.n	8002f58 <HAL_ADC_AnalogWDGConfig+0x40>
 8002f56:	e169      	b.n	800322c <HAL_ADC_AnalogWDGConfig+0x314>
          if (pAnalogWDGConfig->WatchdogNumber == ADC_ANALOGWATCHDOG_2)
 8002f58:	4992      	ldr	r1, [pc, #584]	@ (80031a4 <HAL_ADC_AnalogWDGConfig+0x28c>)
 8002f5a:	428a      	cmp	r2, r1
 8002f5c:	d059      	beq.n	8003012 <HAL_ADC_AnalogWDGConfig+0xfa>
            SET_BIT(hadc->Instance->AWD3CR, (1UL << __LL_ADC_CHANNEL_TO_DECIMAL_NB(pAnalogWDGConfig->Channel)));
 8002f5e:	22a4      	movs	r2, #164	@ 0xa4
 8002f60:	589e      	ldr	r6, [r3, r2]
 8002f62:	68aa      	ldr	r2, [r5, #8]
 8002f64:	0351      	lsls	r1, r2, #13
 8002f66:	d000      	beq.n	8002f6a <HAL_ADC_AnalogWDGConfig+0x52>
 8002f68:	e0b9      	b.n	80030de <HAL_ADC_AnalogWDGConfig+0x1c6>
 8002f6a:	0050      	lsls	r0, r2, #1
 8002f6c:	0ec0      	lsrs	r0, r0, #27
 8002f6e:	3101      	adds	r1, #1
 8002f70:	4081      	lsls	r1, r0
 8002f72:	430e      	orrs	r6, r1
 8002f74:	21a4      	movs	r1, #164	@ 0xa4
 8002f76:	505e      	str	r6, [r3, r1]
 8002f78:	e129      	b.n	80031ce <HAL_ADC_AnalogWDGConfig+0x2b6>
  return ((READ_BIT(ADCx->CR, ADC_CR_ADEN) == (ADC_CR_ADEN)) ? 1UL : 0UL);
 8002f7a:	689b      	ldr	r3, [r3, #8]
 8002f7c:	2201      	movs	r2, #1
 8002f7e:	0016      	movs	r6, r2
 8002f80:	401e      	ands	r6, r3
 8002f82:	421a      	tst	r2, r3
 8002f84:	d002      	beq.n	8002f8c <HAL_ADC_AnalogWDGConfig+0x74>
        tmp_hal_status = ADC_Disable(hadc);
 8002f86:	0020      	movs	r0, r4
 8002f88:	f7ff ff7e 	bl	8002e88 <ADC_Disable>
      switch (pAnalogWDGConfig->WatchdogMode)
 8002f8c:	686b      	ldr	r3, [r5, #4]
 8002f8e:	2280      	movs	r2, #128	@ 0x80
 8002f90:	0412      	lsls	r2, r2, #16
 8002f92:	4293      	cmp	r3, r2
 8002f94:	d022      	beq.n	8002fdc <HAL_ADC_AnalogWDGConfig+0xc4>
 8002f96:	22c0      	movs	r2, #192	@ 0xc0
 8002f98:	0412      	lsls	r2, r2, #16
 8002f9a:	4293      	cmp	r3, r2
 8002f9c:	d127      	bne.n	8002fee <HAL_ADC_AnalogWDGConfig+0xd6>
          LL_ADC_SetAnalogWDMonitChannels(hadc->Instance, LL_ADC_AWD1,
 8002f9e:	6821      	ldr	r1, [r4, #0]
  MODIFY_REG(*preg,
 8002fa0:	68ca      	ldr	r2, [r1, #12]
 8002fa2:	68ab      	ldr	r3, [r5, #8]
 8002fa4:	27f8      	movs	r7, #248	@ 0xf8
 8002fa6:	05ff      	lsls	r7, r7, #23
 8002fa8:	403b      	ands	r3, r7
 8002faa:	4f7f      	ldr	r7, [pc, #508]	@ (80031a8 <HAL_ADC_AnalogWDGConfig+0x290>)
 8002fac:	403a      	ands	r2, r7
 8002fae:	4313      	orrs	r3, r2
 8002fb0:	22c0      	movs	r2, #192	@ 0xc0
 8002fb2:	0412      	lsls	r2, r2, #16
 8002fb4:	4313      	orrs	r3, r2
 8002fb6:	60cb      	str	r3, [r1, #12]
      if (backup_setting_adc_enable_state == 1UL)
 8002fb8:	2e01      	cmp	r6, #1
 8002fba:	d01e      	beq.n	8002ffa <HAL_ADC_AnalogWDGConfig+0xe2>
      CLEAR_BIT(hadc->State, HAL_ADC_STATE_AWD1);
 8002fbc:	6da3      	ldr	r3, [r4, #88]	@ 0x58
 8002fbe:	4a7b      	ldr	r2, [pc, #492]	@ (80031ac <HAL_ADC_AnalogWDGConfig+0x294>)
 8002fc0:	4013      	ands	r3, r2
 8002fc2:	65a3      	str	r3, [r4, #88]	@ 0x58
      LL_ADC_ClearFlag_AWD1(hadc->Instance);
 8002fc4:	6823      	ldr	r3, [r4, #0]
  * @param  ADCx ADC instance
  * @retval None
  */
__STATIC_INLINE void LL_ADC_ClearFlag_AWD1(ADC_TypeDef *ADCx)
{
  WRITE_REG(ADCx->ISR, LL_ADC_FLAG_AWD1);
 8002fc6:	2280      	movs	r2, #128	@ 0x80
 8002fc8:	601a      	str	r2, [r3, #0]
      if (pAnalogWDGConfig->ITMode == ENABLE)
 8002fca:	7b2b      	ldrb	r3, [r5, #12]
 8002fcc:	2b01      	cmp	r3, #1
 8002fce:	d01a      	beq.n	8003006 <HAL_ADC_AnalogWDGConfig+0xee>
        LL_ADC_DisableIT_AWD1(hadc->Instance);
 8002fd0:	6822      	ldr	r2, [r4, #0]
  * @param  ADCx ADC instance
  * @retval None
  */
__STATIC_INLINE void LL_ADC_DisableIT_AWD1(ADC_TypeDef *ADCx)
{
  CLEAR_BIT(ADCx->IER, LL_ADC_IT_AWD1);
 8002fd2:	6853      	ldr	r3, [r2, #4]
 8002fd4:	2180      	movs	r1, #128	@ 0x80
 8002fd6:	438b      	bics	r3, r1
 8002fd8:	6053      	str	r3, [r2, #4]
}
 8002fda:	e10d      	b.n	80031f8 <HAL_ADC_AnalogWDGConfig+0x2e0>
          LL_ADC_SetAnalogWDMonitChannels(hadc->Instance, LL_ADC_AWD1, LL_ADC_AWD_ALL_CHANNELS_REG);
 8002fdc:	6821      	ldr	r1, [r4, #0]
  MODIFY_REG(*preg,
 8002fde:	68ca      	ldr	r2, [r1, #12]
 8002fe0:	4b71      	ldr	r3, [pc, #452]	@ (80031a8 <HAL_ADC_AnalogWDGConfig+0x290>)
 8002fe2:	401a      	ands	r2, r3
 8002fe4:	2380      	movs	r3, #128	@ 0x80
 8002fe6:	041b      	lsls	r3, r3, #16
 8002fe8:	4313      	orrs	r3, r2
 8002fea:	60cb      	str	r3, [r1, #12]
}
 8002fec:	e7e4      	b.n	8002fb8 <HAL_ADC_AnalogWDGConfig+0xa0>
          LL_ADC_SetAnalogWDMonitChannels(hadc->Instance, LL_ADC_AWD1, LL_ADC_AWD_DISABLE);
 8002fee:	6822      	ldr	r2, [r4, #0]
  MODIFY_REG(*preg,
 8002ff0:	68d3      	ldr	r3, [r2, #12]
 8002ff2:	496d      	ldr	r1, [pc, #436]	@ (80031a8 <HAL_ADC_AnalogWDGConfig+0x290>)
 8002ff4:	400b      	ands	r3, r1
 8002ff6:	60d3      	str	r3, [r2, #12]
}
 8002ff8:	e7de      	b.n	8002fb8 <HAL_ADC_AnalogWDGConfig+0xa0>
        if (tmp_hal_status == HAL_OK)
 8002ffa:	2800      	cmp	r0, #0
 8002ffc:	d1de      	bne.n	8002fbc <HAL_ADC_AnalogWDGConfig+0xa4>
          tmp_hal_status = ADC_Enable(hadc);
 8002ffe:	0020      	movs	r0, r4
 8003000:	f7ff fe76 	bl	8002cf0 <ADC_Enable>
 8003004:	e7da      	b.n	8002fbc <HAL_ADC_AnalogWDGConfig+0xa4>
        LL_ADC_EnableIT_AWD1(hadc->Instance);
 8003006:	6822      	ldr	r2, [r4, #0]
  SET_BIT(ADCx->IER, LL_ADC_IT_AWD1);
 8003008:	6853      	ldr	r3, [r2, #4]
 800300a:	2180      	movs	r1, #128	@ 0x80
 800300c:	430b      	orrs	r3, r1
 800300e:	6053      	str	r3, [r2, #4]
}
 8003010:	e0f2      	b.n	80031f8 <HAL_ADC_AnalogWDGConfig+0x2e0>
            SET_BIT(hadc->Instance->AWD2CR, (1UL << __LL_ADC_CHANNEL_TO_DECIMAL_NB(pAnalogWDGConfig->Channel)));
 8003012:	22a0      	movs	r2, #160	@ 0xa0
 8003014:	589e      	ldr	r6, [r3, r2]
 8003016:	68aa      	ldr	r2, [r5, #8]
 8003018:	0351      	lsls	r1, r2, #13
 800301a:	d107      	bne.n	800302c <HAL_ADC_AnalogWDGConfig+0x114>
 800301c:	0050      	lsls	r0, r2, #1
 800301e:	0ec0      	lsrs	r0, r0, #27
 8003020:	3101      	adds	r1, #1
 8003022:	4081      	lsls	r1, r0
 8003024:	430e      	orrs	r6, r1
 8003026:	21a0      	movs	r1, #160	@ 0xa0
 8003028:	505e      	str	r6, [r3, r1]
 800302a:	e0d0      	b.n	80031ce <HAL_ADC_AnalogWDGConfig+0x2b6>
 800302c:	2001      	movs	r0, #1
 800302e:	0001      	movs	r1, r0
 8003030:	4011      	ands	r1, r2
 8003032:	4210      	tst	r0, r2
 8003034:	d1f6      	bne.n	8003024 <HAL_ADC_AnalogWDGConfig+0x10c>
 8003036:	2102      	movs	r1, #2
 8003038:	0790      	lsls	r0, r2, #30
 800303a:	d4f3      	bmi.n	8003024 <HAL_ADC_AnalogWDGConfig+0x10c>
 800303c:	3102      	adds	r1, #2
 800303e:	0750      	lsls	r0, r2, #29
 8003040:	d4f0      	bmi.n	8003024 <HAL_ADC_AnalogWDGConfig+0x10c>
 8003042:	3104      	adds	r1, #4
 8003044:	0710      	lsls	r0, r2, #28
 8003046:	d4ed      	bmi.n	8003024 <HAL_ADC_AnalogWDGConfig+0x10c>
 8003048:	3108      	adds	r1, #8
 800304a:	06d0      	lsls	r0, r2, #27
 800304c:	d4ea      	bmi.n	8003024 <HAL_ADC_AnalogWDGConfig+0x10c>
 800304e:	3110      	adds	r1, #16
 8003050:	0690      	lsls	r0, r2, #26
 8003052:	d4e7      	bmi.n	8003024 <HAL_ADC_AnalogWDGConfig+0x10c>
 8003054:	3120      	adds	r1, #32
 8003056:	0650      	lsls	r0, r2, #25
 8003058:	d4e4      	bmi.n	8003024 <HAL_ADC_AnalogWDGConfig+0x10c>
 800305a:	3140      	adds	r1, #64	@ 0x40
 800305c:	0610      	lsls	r0, r2, #24
 800305e:	d4e1      	bmi.n	8003024 <HAL_ADC_AnalogWDGConfig+0x10c>
 8003060:	05d1      	lsls	r1, r2, #23
 8003062:	d41e      	bmi.n	80030a2 <HAL_ADC_AnalogWDGConfig+0x18a>
 8003064:	0591      	lsls	r1, r2, #22
 8003066:	d41f      	bmi.n	80030a8 <HAL_ADC_AnalogWDGConfig+0x190>
 8003068:	0551      	lsls	r1, r2, #21
 800306a:	d420      	bmi.n	80030ae <HAL_ADC_AnalogWDGConfig+0x196>
 800306c:	0511      	lsls	r1, r2, #20
 800306e:	d421      	bmi.n	80030b4 <HAL_ADC_AnalogWDGConfig+0x19c>
 8003070:	04d1      	lsls	r1, r2, #19
 8003072:	d422      	bmi.n	80030ba <HAL_ADC_AnalogWDGConfig+0x1a2>
 8003074:	0491      	lsls	r1, r2, #18
 8003076:	d423      	bmi.n	80030c0 <HAL_ADC_AnalogWDGConfig+0x1a8>
 8003078:	0451      	lsls	r1, r2, #17
 800307a:	d424      	bmi.n	80030c6 <HAL_ADC_AnalogWDGConfig+0x1ae>
 800307c:	0411      	lsls	r1, r2, #16
 800307e:	d425      	bmi.n	80030cc <HAL_ADC_AnalogWDGConfig+0x1b4>
 8003080:	03d1      	lsls	r1, r2, #15
 8003082:	d426      	bmi.n	80030d2 <HAL_ADC_AnalogWDGConfig+0x1ba>
 8003084:	0391      	lsls	r1, r2, #14
 8003086:	d427      	bmi.n	80030d8 <HAL_ADC_AnalogWDGConfig+0x1c0>
 8003088:	2180      	movs	r1, #128	@ 0x80
 800308a:	02c9      	lsls	r1, r1, #11
 800308c:	400a      	ands	r2, r1
 800308e:	4251      	negs	r1, r2
 8003090:	414a      	adcs	r2, r1
 8003092:	4252      	negs	r2, r2
 8003094:	4946      	ldr	r1, [pc, #280]	@ (80031b0 <HAL_ADC_AnalogWDGConfig+0x298>)
 8003096:	4011      	ands	r1, r2
 8003098:	2280      	movs	r2, #128	@ 0x80
 800309a:	02d2      	lsls	r2, r2, #11
 800309c:	4694      	mov	ip, r2
 800309e:	4461      	add	r1, ip
 80030a0:	e7c0      	b.n	8003024 <HAL_ADC_AnalogWDGConfig+0x10c>
 80030a2:	2180      	movs	r1, #128	@ 0x80
 80030a4:	0049      	lsls	r1, r1, #1
 80030a6:	e7bd      	b.n	8003024 <HAL_ADC_AnalogWDGConfig+0x10c>
 80030a8:	2180      	movs	r1, #128	@ 0x80
 80030aa:	0089      	lsls	r1, r1, #2
 80030ac:	e7ba      	b.n	8003024 <HAL_ADC_AnalogWDGConfig+0x10c>
 80030ae:	2180      	movs	r1, #128	@ 0x80
 80030b0:	00c9      	lsls	r1, r1, #3
 80030b2:	e7b7      	b.n	8003024 <HAL_ADC_AnalogWDGConfig+0x10c>
 80030b4:	2180      	movs	r1, #128	@ 0x80
 80030b6:	0109      	lsls	r1, r1, #4
 80030b8:	e7b4      	b.n	8003024 <HAL_ADC_AnalogWDGConfig+0x10c>
 80030ba:	2180      	movs	r1, #128	@ 0x80
 80030bc:	0149      	lsls	r1, r1, #5
 80030be:	e7b1      	b.n	8003024 <HAL_ADC_AnalogWDGConfig+0x10c>
 80030c0:	2180      	movs	r1, #128	@ 0x80
 80030c2:	0189      	lsls	r1, r1, #6
 80030c4:	e7ae      	b.n	8003024 <HAL_ADC_AnalogWDGConfig+0x10c>
 80030c6:	2180      	movs	r1, #128	@ 0x80
 80030c8:	01c9      	lsls	r1, r1, #7
 80030ca:	e7ab      	b.n	8003024 <HAL_ADC_AnalogWDGConfig+0x10c>
 80030cc:	2180      	movs	r1, #128	@ 0x80
 80030ce:	0209      	lsls	r1, r1, #8
 80030d0:	e7a8      	b.n	8003024 <HAL_ADC_AnalogWDGConfig+0x10c>
 80030d2:	2180      	movs	r1, #128	@ 0x80
 80030d4:	0249      	lsls	r1, r1, #9
 80030d6:	e7a5      	b.n	8003024 <HAL_ADC_AnalogWDGConfig+0x10c>
 80030d8:	2180      	movs	r1, #128	@ 0x80
 80030da:	0289      	lsls	r1, r1, #10
 80030dc:	e7a2      	b.n	8003024 <HAL_ADC_AnalogWDGConfig+0x10c>
            SET_BIT(hadc->Instance->AWD3CR, (1UL << __LL_ADC_CHANNEL_TO_DECIMAL_NB(pAnalogWDGConfig->Channel)));
 80030de:	2001      	movs	r0, #1
 80030e0:	0001      	movs	r1, r0
 80030e2:	4011      	ands	r1, r2
 80030e4:	4210      	tst	r0, r2
 80030e6:	d000      	beq.n	80030ea <HAL_ADC_AnalogWDGConfig+0x1d2>
 80030e8:	e743      	b.n	8002f72 <HAL_ADC_AnalogWDGConfig+0x5a>
 80030ea:	2102      	movs	r1, #2
 80030ec:	0790      	lsls	r0, r2, #30
 80030ee:	d500      	bpl.n	80030f2 <HAL_ADC_AnalogWDGConfig+0x1da>
 80030f0:	e73f      	b.n	8002f72 <HAL_ADC_AnalogWDGConfig+0x5a>
 80030f2:	3102      	adds	r1, #2
 80030f4:	0750      	lsls	r0, r2, #29
 80030f6:	d500      	bpl.n	80030fa <HAL_ADC_AnalogWDGConfig+0x1e2>
 80030f8:	e73b      	b.n	8002f72 <HAL_ADC_AnalogWDGConfig+0x5a>
 80030fa:	3104      	adds	r1, #4
 80030fc:	0710      	lsls	r0, r2, #28
 80030fe:	d500      	bpl.n	8003102 <HAL_ADC_AnalogWDGConfig+0x1ea>
 8003100:	e737      	b.n	8002f72 <HAL_ADC_AnalogWDGConfig+0x5a>
 8003102:	3108      	adds	r1, #8
 8003104:	06d0      	lsls	r0, r2, #27
 8003106:	d500      	bpl.n	800310a <HAL_ADC_AnalogWDGConfig+0x1f2>
 8003108:	e733      	b.n	8002f72 <HAL_ADC_AnalogWDGConfig+0x5a>
 800310a:	3110      	adds	r1, #16
 800310c:	0690      	lsls	r0, r2, #26
 800310e:	d500      	bpl.n	8003112 <HAL_ADC_AnalogWDGConfig+0x1fa>
 8003110:	e72f      	b.n	8002f72 <HAL_ADC_AnalogWDGConfig+0x5a>
 8003112:	3120      	adds	r1, #32
 8003114:	0650      	lsls	r0, r2, #25
 8003116:	d500      	bpl.n	800311a <HAL_ADC_AnalogWDGConfig+0x202>
 8003118:	e72b      	b.n	8002f72 <HAL_ADC_AnalogWDGConfig+0x5a>
 800311a:	3140      	adds	r1, #64	@ 0x40
 800311c:	0610      	lsls	r0, r2, #24
 800311e:	d500      	bpl.n	8003122 <HAL_ADC_AnalogWDGConfig+0x20a>
 8003120:	e727      	b.n	8002f72 <HAL_ADC_AnalogWDGConfig+0x5a>
 8003122:	05d1      	lsls	r1, r2, #23
 8003124:	d41e      	bmi.n	8003164 <HAL_ADC_AnalogWDGConfig+0x24c>
 8003126:	0591      	lsls	r1, r2, #22
 8003128:	d41f      	bmi.n	800316a <HAL_ADC_AnalogWDGConfig+0x252>
 800312a:	0551      	lsls	r1, r2, #21
 800312c:	d420      	bmi.n	8003170 <HAL_ADC_AnalogWDGConfig+0x258>
 800312e:	0511      	lsls	r1, r2, #20
 8003130:	d421      	bmi.n	8003176 <HAL_ADC_AnalogWDGConfig+0x25e>
 8003132:	04d1      	lsls	r1, r2, #19
 8003134:	d422      	bmi.n	800317c <HAL_ADC_AnalogWDGConfig+0x264>
 8003136:	0491      	lsls	r1, r2, #18
 8003138:	d423      	bmi.n	8003182 <HAL_ADC_AnalogWDGConfig+0x26a>
 800313a:	0451      	lsls	r1, r2, #17
 800313c:	d424      	bmi.n	8003188 <HAL_ADC_AnalogWDGConfig+0x270>
 800313e:	0411      	lsls	r1, r2, #16
 8003140:	d425      	bmi.n	800318e <HAL_ADC_AnalogWDGConfig+0x276>
 8003142:	03d1      	lsls	r1, r2, #15
 8003144:	d426      	bmi.n	8003194 <HAL_ADC_AnalogWDGConfig+0x27c>
 8003146:	0391      	lsls	r1, r2, #14
 8003148:	d427      	bmi.n	800319a <HAL_ADC_AnalogWDGConfig+0x282>
 800314a:	2180      	movs	r1, #128	@ 0x80
 800314c:	02c9      	lsls	r1, r1, #11
 800314e:	400a      	ands	r2, r1
 8003150:	4251      	negs	r1, r2
 8003152:	414a      	adcs	r2, r1
 8003154:	4252      	negs	r2, r2
 8003156:	4916      	ldr	r1, [pc, #88]	@ (80031b0 <HAL_ADC_AnalogWDGConfig+0x298>)
 8003158:	4011      	ands	r1, r2
 800315a:	2280      	movs	r2, #128	@ 0x80
 800315c:	02d2      	lsls	r2, r2, #11
 800315e:	4694      	mov	ip, r2
 8003160:	4461      	add	r1, ip
 8003162:	e706      	b.n	8002f72 <HAL_ADC_AnalogWDGConfig+0x5a>
 8003164:	2180      	movs	r1, #128	@ 0x80
 8003166:	0049      	lsls	r1, r1, #1
 8003168:	e703      	b.n	8002f72 <HAL_ADC_AnalogWDGConfig+0x5a>
 800316a:	2180      	movs	r1, #128	@ 0x80
 800316c:	0089      	lsls	r1, r1, #2
 800316e:	e700      	b.n	8002f72 <HAL_ADC_AnalogWDGConfig+0x5a>
 8003170:	2180      	movs	r1, #128	@ 0x80
 8003172:	00c9      	lsls	r1, r1, #3
 8003174:	e6fd      	b.n	8002f72 <HAL_ADC_AnalogWDGConfig+0x5a>
 8003176:	2180      	movs	r1, #128	@ 0x80
 8003178:	0109      	lsls	r1, r1, #4
 800317a:	e6fa      	b.n	8002f72 <HAL_ADC_AnalogWDGConfig+0x5a>
 800317c:	2180      	movs	r1, #128	@ 0x80
 800317e:	0149      	lsls	r1, r1, #5
 8003180:	e6f7      	b.n	8002f72 <HAL_ADC_AnalogWDGConfig+0x5a>
 8003182:	2180      	movs	r1, #128	@ 0x80
 8003184:	0189      	lsls	r1, r1, #6
 8003186:	e6f4      	b.n	8002f72 <HAL_ADC_AnalogWDGConfig+0x5a>
 8003188:	2180      	movs	r1, #128	@ 0x80
 800318a:	01c9      	lsls	r1, r1, #7
 800318c:	e6f1      	b.n	8002f72 <HAL_ADC_AnalogWDGConfig+0x5a>
 800318e:	2180      	movs	r1, #128	@ 0x80
 8003190:	0209      	lsls	r1, r1, #8
 8003192:	e6ee      	b.n	8002f72 <HAL_ADC_AnalogWDGConfig+0x5a>
 8003194:	2180      	movs	r1, #128	@ 0x80
 8003196:	0249      	lsls	r1, r1, #9
 8003198:	e6eb      	b.n	8002f72 <HAL_ADC_AnalogWDGConfig+0x5a>
 800319a:	2180      	movs	r1, #128	@ 0x80
 800319c:	0289      	lsls	r1, r1, #10
 800319e:	e6e8      	b.n	8002f72 <HAL_ADC_AnalogWDGConfig+0x5a>
 80031a0:	7cc00000 	.word	0x7cc00000
 80031a4:	0017ffff 	.word	0x0017ffff
 80031a8:	833fffff 	.word	0x833fffff
 80031ac:	fffeffff 	.word	0xfffeffff
 80031b0:	fffc0001 	.word	0xfffc0001
    preg = __ADC_PTR_REG_OFFSET(ADCx->AWD2CR,
 80031b4:	0cd1      	lsrs	r1, r2, #19
 80031b6:	2004      	movs	r0, #4
 80031b8:	4001      	ands	r1, r0
 80031ba:	33a0      	adds	r3, #160	@ 0xa0
 80031bc:	18cb      	adds	r3, r1, r3
  MODIFY_REG(*preg,
 80031be:	6819      	ldr	r1, [r3, #0]
 80031c0:	4839      	ldr	r0, [pc, #228]	@ (80032a8 <HAL_ADC_AnalogWDGConfig+0x390>)
 80031c2:	4010      	ands	r0, r2
 80031c4:	4381      	bics	r1, r0
 80031c6:	4839      	ldr	r0, [pc, #228]	@ (80032ac <HAL_ADC_AnalogWDGConfig+0x394>)
 80031c8:	4002      	ands	r2, r0
 80031ca:	430a      	orrs	r2, r1
 80031cc:	601a      	str	r2, [r3, #0]
      if (pAnalogWDGConfig->WatchdogNumber == ADC_ANALOGWATCHDOG_2)
 80031ce:	4b38      	ldr	r3, [pc, #224]	@ (80032b0 <HAL_ADC_AnalogWDGConfig+0x398>)
 80031d0:	682a      	ldr	r2, [r5, #0]
 80031d2:	429a      	cmp	r2, r3
 80031d4:	d035      	beq.n	8003242 <HAL_ADC_AnalogWDGConfig+0x32a>
        CLEAR_BIT(hadc->State, HAL_ADC_STATE_AWD3);
 80031d6:	6da3      	ldr	r3, [r4, #88]	@ 0x58
 80031d8:	4a36      	ldr	r2, [pc, #216]	@ (80032b4 <HAL_ADC_AnalogWDGConfig+0x39c>)
 80031da:	4013      	ands	r3, r2
 80031dc:	65a3      	str	r3, [r4, #88]	@ 0x58
        LL_ADC_ClearFlag_AWD3(hadc->Instance);
 80031de:	6823      	ldr	r3, [r4, #0]
  WRITE_REG(ADCx->ISR, LL_ADC_FLAG_AWD3);
 80031e0:	2280      	movs	r2, #128	@ 0x80
 80031e2:	0092      	lsls	r2, r2, #2
 80031e4:	601a      	str	r2, [r3, #0]
        if (pAnalogWDGConfig->ITMode == ENABLE)
 80031e6:	7b2b      	ldrb	r3, [r5, #12]
 80031e8:	2b01      	cmp	r3, #1
 80031ea:	d043      	beq.n	8003274 <HAL_ADC_AnalogWDGConfig+0x35c>
          LL_ADC_DisableIT_AWD3(hadc->Instance);
 80031ec:	6822      	ldr	r2, [r4, #0]
  * @param  ADCx ADC instance
  * @retval None
  */
__STATIC_INLINE void LL_ADC_DisableIT_AWD3(ADC_TypeDef *ADCx)
{
  CLEAR_BIT(ADCx->IER, LL_ADC_IT_AWD3);
 80031ee:	6853      	ldr	r3, [r2, #4]
 80031f0:	4931      	ldr	r1, [pc, #196]	@ (80032b8 <HAL_ADC_AnalogWDGConfig+0x3a0>)
 80031f2:	400b      	ands	r3, r1
 80031f4:	6053      	str	r3, [r2, #4]
  HAL_StatusTypeDef tmp_hal_status = HAL_OK;
 80031f6:	2000      	movs	r0, #0
  if (pAnalogWDGConfig->WatchdogNumber == ADC_ANALOGWATCHDOG_1)
 80031f8:	682a      	ldr	r2, [r5, #0]
 80031fa:	4b30      	ldr	r3, [pc, #192]	@ (80032bc <HAL_ADC_AnalogWDGConfig+0x3a4>)
 80031fc:	429a      	cmp	r2, r3
 80031fe:	d041      	beq.n	8003284 <HAL_ADC_AnalogWDGConfig+0x36c>
    tmp_awd_high_threshold_shifted = pAnalogWDGConfig->HighThreshold;
 8003200:	6929      	ldr	r1, [r5, #16]
    tmp_awd_low_threshold_shifted  = pAnalogWDGConfig->LowThreshold;
 8003202:	696d      	ldr	r5, [r5, #20]
  __IO uint32_t *preg = __ADC_PTR_REG_OFFSET(ADCx->AWD1TR,
 8003204:	0293      	lsls	r3, r2, #10
 8003206:	0f9b      	lsrs	r3, r3, #30
 8003208:	0292      	lsls	r2, r2, #10
 800320a:	0fd2      	lsrs	r2, r2, #31
 800320c:	189b      	adds	r3, r3, r2
 800320e:	009b      	lsls	r3, r3, #2
 8003210:	6822      	ldr	r2, [r4, #0]
 8003212:	3220      	adds	r2, #32
 8003214:	189b      	adds	r3, r3, r2
  MODIFY_REG(*preg,
 8003216:	681a      	ldr	r2, [r3, #0]
 8003218:	4e29      	ldr	r6, [pc, #164]	@ (80032c0 <HAL_ADC_AnalogWDGConfig+0x3a8>)
 800321a:	4032      	ands	r2, r6
 800321c:	432a      	orrs	r2, r5
 800321e:	0409      	lsls	r1, r1, #16
 8003220:	430a      	orrs	r2, r1
 8003222:	601a      	str	r2, [r3, #0]
  __HAL_UNLOCK(hadc);
 8003224:	2354      	movs	r3, #84	@ 0x54
 8003226:	2200      	movs	r2, #0
 8003228:	54e2      	strb	r2, [r4, r3]
}
 800322a:	bdf8      	pop	{r3, r4, r5, r6, r7, pc}
    preg = __ADC_PTR_REG_OFFSET(ADCx->AWD2CR,
 800322c:	0cd1      	lsrs	r1, r2, #19
 800322e:	2004      	movs	r0, #4
 8003230:	4001      	ands	r1, r0
 8003232:	33a0      	adds	r3, #160	@ 0xa0
 8003234:	18cb      	adds	r3, r1, r3
  MODIFY_REG(*preg,
 8003236:	6819      	ldr	r1, [r3, #0]
 8003238:	481b      	ldr	r0, [pc, #108]	@ (80032a8 <HAL_ADC_AnalogWDGConfig+0x390>)
 800323a:	4002      	ands	r2, r0
 800323c:	4391      	bics	r1, r2
 800323e:	6019      	str	r1, [r3, #0]
}
 8003240:	e7c5      	b.n	80031ce <HAL_ADC_AnalogWDGConfig+0x2b6>
        CLEAR_BIT(hadc->State, HAL_ADC_STATE_AWD2);
 8003242:	6da3      	ldr	r3, [r4, #88]	@ 0x58
 8003244:	4a1f      	ldr	r2, [pc, #124]	@ (80032c4 <HAL_ADC_AnalogWDGConfig+0x3ac>)
 8003246:	4013      	ands	r3, r2
 8003248:	65a3      	str	r3, [r4, #88]	@ 0x58
        LL_ADC_ClearFlag_AWD2(hadc->Instance);
 800324a:	6823      	ldr	r3, [r4, #0]
  WRITE_REG(ADCx->ISR, LL_ADC_FLAG_AWD2);
 800324c:	2280      	movs	r2, #128	@ 0x80
 800324e:	0052      	lsls	r2, r2, #1
 8003250:	601a      	str	r2, [r3, #0]
        if (pAnalogWDGConfig->ITMode == ENABLE)
 8003252:	7b2b      	ldrb	r3, [r5, #12]
 8003254:	2b01      	cmp	r3, #1
 8003256:	d006      	beq.n	8003266 <HAL_ADC_AnalogWDGConfig+0x34e>
          LL_ADC_DisableIT_AWD2(hadc->Instance);
 8003258:	6822      	ldr	r2, [r4, #0]
  CLEAR_BIT(ADCx->IER, LL_ADC_IT_AWD2);
 800325a:	6853      	ldr	r3, [r2, #4]
 800325c:	491a      	ldr	r1, [pc, #104]	@ (80032c8 <HAL_ADC_AnalogWDGConfig+0x3b0>)
 800325e:	400b      	ands	r3, r1
 8003260:	6053      	str	r3, [r2, #4]
  HAL_StatusTypeDef tmp_hal_status = HAL_OK;
 8003262:	2000      	movs	r0, #0
}
 8003264:	e7c8      	b.n	80031f8 <HAL_ADC_AnalogWDGConfig+0x2e0>
          LL_ADC_EnableIT_AWD2(hadc->Instance);
 8003266:	6822      	ldr	r2, [r4, #0]
  SET_BIT(ADCx->IER, LL_ADC_IT_AWD2);
 8003268:	6851      	ldr	r1, [r2, #4]
 800326a:	33ff      	adds	r3, #255	@ 0xff
 800326c:	430b      	orrs	r3, r1
 800326e:	6053      	str	r3, [r2, #4]
  HAL_StatusTypeDef tmp_hal_status = HAL_OK;
 8003270:	2000      	movs	r0, #0
}
 8003272:	e7c1      	b.n	80031f8 <HAL_ADC_AnalogWDGConfig+0x2e0>
          LL_ADC_EnableIT_AWD3(hadc->Instance);
 8003274:	6822      	ldr	r2, [r4, #0]
  SET_BIT(ADCx->IER, LL_ADC_IT_AWD3);
 8003276:	6851      	ldr	r1, [r2, #4]
 8003278:	2380      	movs	r3, #128	@ 0x80
 800327a:	009b      	lsls	r3, r3, #2
 800327c:	430b      	orrs	r3, r1
 800327e:	6053      	str	r3, [r2, #4]
  HAL_StatusTypeDef tmp_hal_status = HAL_OK;
 8003280:	2000      	movs	r0, #0
}
 8003282:	e7b9      	b.n	80031f8 <HAL_ADC_AnalogWDGConfig+0x2e0>
    tmp_awd_high_threshold_shifted = ADC_AWD1THRESHOLD_SHIFT_RESOLUTION(hadc, pAnalogWDGConfig->HighThreshold);
 8003284:	6827      	ldr	r7, [r4, #0]
 8003286:	68fb      	ldr	r3, [r7, #12]
 8003288:	08db      	lsrs	r3, r3, #3
 800328a:	2603      	movs	r6, #3
 800328c:	4033      	ands	r3, r6
 800328e:	005b      	lsls	r3, r3, #1
 8003290:	6929      	ldr	r1, [r5, #16]
 8003292:	4099      	lsls	r1, r3
    tmp_awd_low_threshold_shifted  = ADC_AWD1THRESHOLD_SHIFT_RESOLUTION(hadc, pAnalogWDGConfig->LowThreshold);
 8003294:	68fb      	ldr	r3, [r7, #12]
 8003296:	08db      	lsrs	r3, r3, #3
 8003298:	401e      	ands	r6, r3
 800329a:	0076      	lsls	r6, r6, #1
 800329c:	696d      	ldr	r5, [r5, #20]
 800329e:	40b5      	lsls	r5, r6
 80032a0:	e7b0      	b.n	8003204 <HAL_ADC_AnalogWDGConfig+0x2ec>
  __HAL_LOCK(hadc);
 80032a2:	2002      	movs	r0, #2
 80032a4:	e7c1      	b.n	800322a <HAL_ADC_AnalogWDGConfig+0x312>
 80032a6:	46c0      	nop			@ (mov r8, r8)
 80032a8:	7cc7ffff 	.word	0x7cc7ffff
 80032ac:	0087ffff 	.word	0x0087ffff
 80032b0:	0017ffff 	.word	0x0017ffff
 80032b4:	fffbffff 	.word	0xfffbffff
 80032b8:	fffffdff 	.word	0xfffffdff
 80032bc:	7cc00000 	.word	0x7cc00000
 80032c0:	f000f000 	.word	0xf000f000
 80032c4:	fffdffff 	.word	0xfffdffff
 80032c8:	fffffeff 	.word	0xfffffeff

080032cc <HAL_ADCEx_LevelOutOfWindow2Callback>:
  UNUSED(hadc);

  /* NOTE : This function should not be modified. When the callback is needed,
            function HAL_ADCEx_LevelOutOfWindow2Callback must be implemented in the user file.
  */
}
 80032cc:	4770      	bx	lr

080032ce <HAL_ADCEx_LevelOutOfWindow3Callback>:
  UNUSED(hadc);

  /* NOTE : This function should not be modified. When the callback is needed,
            function HAL_ADCEx_LevelOutOfWindow3Callback must be implemented in the user file.
  */
}
 80032ce:	4770      	bx	lr

080032d0 <HAL_ADCEx_EndOfSamplingCallback>:
  UNUSED(hadc);

  /* NOTE : This function should not be modified. When the callback is needed,
            function HAL_ADCEx_EndOfSamplingCallback must be implemented in the user file.
  */
}
 80032d0:	4770      	bx	lr

080032d2 <HAL_ADCEx_ChannelConfigReadyCallback>:
  UNUSED(hadc);

  /* NOTE : This function should not be modified. When the callback is needed,
            function HAL_ADCEx_ChannelConfigReadyCallback must be implemented in the user file.
  */
}
 80032d2:	4770      	bx	lr

080032d4 <HAL_NVIC_SetPriority>:
  *         with stm32g0xx devices, this parameter is a dummy value and it is ignored, because
  *         no subpriority supported in Cortex M0+ based products.
  * @retval None
  */
void HAL_NVIC_SetPriority(IRQn_Type IRQn, uint32_t PreemptPriority, uint32_t SubPriority)
{
 80032d4:	b570      	push	{r4, r5, r6, lr}
  \param [in]  priority  Priority to set.
  \note    The priority cannot be set for every processor exception.
 */
__STATIC_INLINE void __NVIC_SetPriority(IRQn_Type IRQn, uint32_t priority)
{
  if ((int32_t)(IRQn) >= 0)
 80032d6:	2800      	cmp	r0, #0
 80032d8:	db14      	blt.n	8003304 <HAL_NVIC_SetPriority+0x30>
  {
    NVIC->IP[_IP_IDX(IRQn)]  = ((uint32_t)(NVIC->IP[_IP_IDX(IRQn)]  & ~(0xFFUL << _BIT_SHIFT(IRQn))) |
 80032da:	0884      	lsrs	r4, r0, #2
 80032dc:	00a4      	lsls	r4, r4, #2
 80032de:	4b14      	ldr	r3, [pc, #80]	@ (8003330 <HAL_NVIC_SetPriority+0x5c>)
 80032e0:	469c      	mov	ip, r3
 80032e2:	4464      	add	r4, ip
 80032e4:	26c0      	movs	r6, #192	@ 0xc0
 80032e6:	00b6      	lsls	r6, r6, #2
 80032e8:	59a5      	ldr	r5, [r4, r6]
 80032ea:	2203      	movs	r2, #3
 80032ec:	4002      	ands	r2, r0
 80032ee:	00d2      	lsls	r2, r2, #3
 80032f0:	23ff      	movs	r3, #255	@ 0xff
 80032f2:	0018      	movs	r0, r3
 80032f4:	4090      	lsls	r0, r2
 80032f6:	4385      	bics	r5, r0
       (((priority << (8U - __NVIC_PRIO_BITS)) & (uint32_t)0xFFUL) << _BIT_SHIFT(IRQn)));
 80032f8:	0189      	lsls	r1, r1, #6
 80032fa:	400b      	ands	r3, r1
 80032fc:	4093      	lsls	r3, r2
    NVIC->IP[_IP_IDX(IRQn)]  = ((uint32_t)(NVIC->IP[_IP_IDX(IRQn)]  & ~(0xFFUL << _BIT_SHIFT(IRQn))) |
 80032fe:	432b      	orrs	r3, r5
 8003300:	51a3      	str	r3, [r4, r6]
  UNUSED(SubPriority);

  /* Check the parameters */
  assert_param(IS_NVIC_PREEMPTION_PRIORITY(PreemptPriority));
  NVIC_SetPriority(IRQn, PreemptPriority);
}
 8003302:	bd70      	pop	{r4, r5, r6, pc}
  }
  else
  {
    SCB->SHP[_SHP_IDX(IRQn)] = ((uint32_t)(SCB->SHP[_SHP_IDX(IRQn)] & ~(0xFFUL << _BIT_SHIFT(IRQn))) |
 8003304:	230f      	movs	r3, #15
 8003306:	4003      	ands	r3, r0
 8003308:	3b08      	subs	r3, #8
 800330a:	089b      	lsrs	r3, r3, #2
 800330c:	009b      	lsls	r3, r3, #2
 800330e:	4a09      	ldr	r2, [pc, #36]	@ (8003334 <HAL_NVIC_SetPriority+0x60>)
 8003310:	4694      	mov	ip, r2
 8003312:	4463      	add	r3, ip
 8003314:	69dc      	ldr	r4, [r3, #28]
 8003316:	2203      	movs	r2, #3
 8003318:	4010      	ands	r0, r2
 800331a:	00c0      	lsls	r0, r0, #3
 800331c:	32fc      	adds	r2, #252	@ 0xfc
 800331e:	0015      	movs	r5, r2
 8003320:	4085      	lsls	r5, r0
 8003322:	43ac      	bics	r4, r5
       (((priority << (8U - __NVIC_PRIO_BITS)) & (uint32_t)0xFFUL) << _BIT_SHIFT(IRQn)));
 8003324:	0189      	lsls	r1, r1, #6
 8003326:	400a      	ands	r2, r1
 8003328:	4082      	lsls	r2, r0
    SCB->SHP[_SHP_IDX(IRQn)] = ((uint32_t)(SCB->SHP[_SHP_IDX(IRQn)] & ~(0xFFUL << _BIT_SHIFT(IRQn))) |
 800332a:	4322      	orrs	r2, r4
 800332c:	61da      	str	r2, [r3, #28]
 800332e:	e7e8      	b.n	8003302 <HAL_NVIC_SetPriority+0x2e>
 8003330:	e000e100 	.word	0xe000e100
 8003334:	e000ed00 	.word	0xe000ed00

08003338 <HAL_NVIC_EnableIRQ>:
  if ((int32_t)(IRQn) >= 0)
 8003338:	2800      	cmp	r0, #0
 800333a:	db05      	blt.n	8003348 <HAL_NVIC_EnableIRQ+0x10>
    NVIC->ISER[0U] = (uint32_t)(1UL << (((uint32_t)IRQn) & 0x1FUL));
 800333c:	221f      	movs	r2, #31
 800333e:	4002      	ands	r2, r0
 8003340:	2301      	movs	r3, #1
 8003342:	4093      	lsls	r3, r2
 8003344:	4a01      	ldr	r2, [pc, #4]	@ (800334c <HAL_NVIC_EnableIRQ+0x14>)
 8003346:	6013      	str	r3, [r2, #0]
  /* Check the parameters */
  assert_param(IS_NVIC_DEVICE_IRQ(IRQn));

  /* Enable interrupt */
  NVIC_EnableIRQ(IRQn);
}
 8003348:	4770      	bx	lr
 800334a:	46c0      	nop			@ (mov r8, r8)
 800334c:	e000e100 	.word	0xe000e100

08003350 <HAL_SYSTICK_Config>:
           function <b>SysTick_Config</b> is not included. In this case, the file <b><i>device</i>.h</b>
           must contain a vendor-specific implementation of this function.
 */
__STATIC_INLINE uint32_t SysTick_Config(uint32_t ticks)
{
  if ((ticks - 1UL) > SysTick_LOAD_RELOAD_Msk)
 8003350:	3801      	subs	r0, #1
 8003352:	2380      	movs	r3, #128	@ 0x80
 8003354:	045b      	lsls	r3, r3, #17
 8003356:	4298      	cmp	r0, r3
 8003358:	d20f      	bcs.n	800337a <HAL_SYSTICK_Config+0x2a>
  {
    return (1UL);                                                   /* Reload value impossible */
  }

  SysTick->LOAD  = (uint32_t)(ticks - 1UL);                         /* set reload register */
 800335a:	4a09      	ldr	r2, [pc, #36]	@ (8003380 <HAL_SYSTICK_Config+0x30>)
 800335c:	6050      	str	r0, [r2, #4]
    SCB->SHP[_SHP_IDX(IRQn)] = ((uint32_t)(SCB->SHP[_SHP_IDX(IRQn)] & ~(0xFFUL << _BIT_SHIFT(IRQn))) |
 800335e:	4809      	ldr	r0, [pc, #36]	@ (8003384 <HAL_SYSTICK_Config+0x34>)
 8003360:	6a03      	ldr	r3, [r0, #32]
 8003362:	021b      	lsls	r3, r3, #8
 8003364:	0a1b      	lsrs	r3, r3, #8
 8003366:	21c0      	movs	r1, #192	@ 0xc0
 8003368:	0609      	lsls	r1, r1, #24
 800336a:	430b      	orrs	r3, r1
 800336c:	6203      	str	r3, [r0, #32]
  NVIC_SetPriority (SysTick_IRQn, (1UL << __NVIC_PRIO_BITS) - 1UL); /* set Priority for Systick Interrupt */
  SysTick->VAL   = 0UL;                                             /* Load the SysTick Counter Value */
 800336e:	2300      	movs	r3, #0
 8003370:	6093      	str	r3, [r2, #8]
  SysTick->CTRL  = SysTick_CTRL_CLKSOURCE_Msk |
 8003372:	3307      	adds	r3, #7
 8003374:	6013      	str	r3, [r2, #0]
                   SysTick_CTRL_TICKINT_Msk   |
                   SysTick_CTRL_ENABLE_Msk;                         /* Enable SysTick IRQ and SysTick Timer */
  return (0UL);                                                     /* Function successful */
 8003376:	2000      	movs	r0, #0
  *                  - 1  Function failed.
  */
uint32_t HAL_SYSTICK_Config(uint32_t TicksNumb)
{
  return SysTick_Config(TicksNumb);
}
 8003378:	4770      	bx	lr
    return (1UL);                                                   /* Reload value impossible */
 800337a:	2001      	movs	r0, #1
  return SysTick_Config(TicksNumb);
 800337c:	e7fc      	b.n	8003378 <HAL_SYSTICK_Config+0x28>
 800337e:	46c0      	nop			@ (mov r8, r8)
 8003380:	e000e010 	.word	0xe000e010
 8003384:	e000ed00 	.word	0xe000ed00

08003388 <DMA_SetConfig>:
  * @param DstAddress The destination memory Buffer address
  * @param DataLength The length of data to be transferred from source to destination
  * @retval HAL status
  */
static void DMA_SetConfig(DMA_HandleTypeDef *hdma, uint32_t SrcAddress, uint32_t DstAddress, uint32_t DataLength)
{
 8003388:	b5f0      	push	{r4, r5, r6, r7, lr}
  /* Clear the DMAMUX synchro overrun flag */
  hdma->DMAmuxChannelStatus->CFR = hdma->DMAmuxChannelStatusMask;
 800338a:	6c84      	ldr	r4, [r0, #72]	@ 0x48
 800338c:	6cc5      	ldr	r5, [r0, #76]	@ 0x4c
 800338e:	6065      	str	r5, [r4, #4]

  if (hdma->DMAmuxRequestGen != 0U)
 8003390:	6d04      	ldr	r4, [r0, #80]	@ 0x50
 8003392:	2c00      	cmp	r4, #0
 8003394:	d002      	beq.n	800339c <DMA_SetConfig+0x14>
  {
    /* Clear the DMAMUX request generator overrun flag */
    hdma->DMAmuxRequestGenStatus->RGCFR = hdma->DMAmuxRequestGenStatusMask;
 8003396:	6d44      	ldr	r4, [r0, #84]	@ 0x54
 8003398:	6d85      	ldr	r5, [r0, #88]	@ 0x58
 800339a:	6065      	str	r5, [r4, #4]

  /* Clear all flags */
#if defined(DMA2)
  hdma->DmaBaseAddress->IFCR = (DMA_ISR_GIF1 << (hdma->ChannelIndex & 0x1CU));
#else
  __HAL_DMA_CLEAR_FLAG(hdma, (DMA_FLAG_GI1 << (hdma->ChannelIndex & 0x1CU)));
 800339c:	4e0b      	ldr	r6, [pc, #44]	@ (80033cc <DMA_SetConfig+0x44>)
 800339e:	6877      	ldr	r7, [r6, #4]
 80033a0:	6c05      	ldr	r5, [r0, #64]	@ 0x40
 80033a2:	241c      	movs	r4, #28
 80033a4:	4025      	ands	r5, r4
 80033a6:	3c1b      	subs	r4, #27
 80033a8:	40ac      	lsls	r4, r5
 80033aa:	433c      	orrs	r4, r7
 80033ac:	6074      	str	r4, [r6, #4]
#endif /* DMA2 */

  /* Configure DMA Channel data length */
  hdma->Instance->CNDTR = DataLength;
 80033ae:	6804      	ldr	r4, [r0, #0]
 80033b0:	6063      	str	r3, [r4, #4]

  /* Memory to Peripheral */
  if ((hdma->Init.Direction) == DMA_MEMORY_TO_PERIPH)
 80033b2:	6883      	ldr	r3, [r0, #8]
 80033b4:	2b10      	cmp	r3, #16
 80033b6:	d004      	beq.n	80033c2 <DMA_SetConfig+0x3a>
  }
  /* Peripheral to Memory */
  else
  {
    /* Configure DMA Channel source address */
    hdma->Instance->CPAR = SrcAddress;
 80033b8:	6803      	ldr	r3, [r0, #0]
 80033ba:	6099      	str	r1, [r3, #8]

    /* Configure DMA Channel destination address */
    hdma->Instance->CMAR = DstAddress;
 80033bc:	6803      	ldr	r3, [r0, #0]
 80033be:	60da      	str	r2, [r3, #12]
  }
}
 80033c0:	bdf0      	pop	{r4, r5, r6, r7, pc}
    hdma->Instance->CPAR = DstAddress;
 80033c2:	6803      	ldr	r3, [r0, #0]
 80033c4:	609a      	str	r2, [r3, #8]
    hdma->Instance->CMAR = SrcAddress;
 80033c6:	6803      	ldr	r3, [r0, #0]
 80033c8:	60d9      	str	r1, [r3, #12]
 80033ca:	e7f9      	b.n	80033c0 <DMA_SetConfig+0x38>
 80033cc:	40020000 	.word	0x40020000

080033d0 <DMA_CalcDMAMUXChannelBaseAndMask>:
  * @param hdma Pointer to a DMA_HandleTypeDef structure that contains
  *             the configuration information for the specified DMA Channel.
  * @retval None
  */
static void DMA_CalcDMAMUXChannelBaseAndMask(DMA_HandleTypeDef *hdma)
{
 80033d0:	b510      	push	{r4, lr}
 80033d2:	0004      	movs	r4, r0
    /* Prepare channel_number used for DMAmuxChannelStatusMask computation */
    channel_number = (((((uint32_t)hdma->Instance & 0xFFU) - 8U) / 20U) + 7U);
  }
#else
  /* Associate a DMA Channel to a DMAMUX channel */
  hdma->DMAmuxChannel = (DMAMUX_Channel_TypeDef *)(uint32_t)((uint32_t)DMAMUX1_Channel0 + ((hdma->ChannelIndex >> 2U) * ((uint32_t)DMAMUX1_Channel1 - (uint32_t)DMAMUX1_Channel0)));
 80033d4:	6c03      	ldr	r3, [r0, #64]	@ 0x40
 80033d6:	089b      	lsrs	r3, r3, #2
 80033d8:	4a08      	ldr	r2, [pc, #32]	@ (80033fc <DMA_CalcDMAMUXChannelBaseAndMask+0x2c>)
 80033da:	4694      	mov	ip, r2
 80033dc:	4463      	add	r3, ip
 80033de:	009b      	lsls	r3, r3, #2
 80033e0:	6443      	str	r3, [r0, #68]	@ 0x44

  /* Prepare channel_number used for DMAmuxChannelStatusMask computation */
  channel_number = (((uint32_t)hdma->Instance & 0xFFU) - 8U) / 20U;
 80033e2:	7800      	ldrb	r0, [r0, #0]
 80033e4:	3808      	subs	r0, #8
 80033e6:	2114      	movs	r1, #20
 80033e8:	f7fc fe94 	bl	8000114 <__udivsi3>
#endif /* DMA2 */

  /* Initialize the field DMAmuxChannelStatus to DMAMUX1_ChannelStatus base */
  hdma->DMAmuxChannelStatus = DMAMUX1_ChannelStatus;
 80033ec:	4b04      	ldr	r3, [pc, #16]	@ (8003400 <DMA_CalcDMAMUXChannelBaseAndMask+0x30>)
 80033ee:	64a3      	str	r3, [r4, #72]	@ 0x48

  /* Initialize the field DMAmuxChannelStatusMask with the corresponding index of the DMAMUX channel selected for the current ChannelIndex */
  hdma->DMAmuxChannelStatusMask = 1UL << (channel_number & 0x1FU);
 80033f0:	231f      	movs	r3, #31
 80033f2:	4018      	ands	r0, r3
 80033f4:	3b1e      	subs	r3, #30
 80033f6:	4083      	lsls	r3, r0
 80033f8:	64e3      	str	r3, [r4, #76]	@ 0x4c
}
 80033fa:	bd10      	pop	{r4, pc}
 80033fc:	10008200 	.word	0x10008200
 8003400:	40020880 	.word	0x40020880

08003404 <HAL_DMA_Init>:
{
 8003404:	b570      	push	{r4, r5, r6, lr}
 8003406:	1e04      	subs	r4, r0, #0
  if (hdma == NULL)
 8003408:	d055      	beq.n	80034b6 <HAL_DMA_Init+0xb2>
  hdma->ChannelIndex = (((uint32_t)hdma->Instance - (uint32_t)DMA1_Channel1) / ((uint32_t)DMA1_Channel2 - (uint32_t)DMA1_Channel1)) << 2U;
 800340a:	6805      	ldr	r5, [r0, #0]
 800340c:	4b2b      	ldr	r3, [pc, #172]	@ (80034bc <HAL_DMA_Init+0xb8>)
 800340e:	18e8      	adds	r0, r5, r3
 8003410:	2114      	movs	r1, #20
 8003412:	f7fc fe7f 	bl	8000114 <__udivsi3>
 8003416:	0080      	lsls	r0, r0, #2
 8003418:	6420      	str	r0, [r4, #64]	@ 0x40
  hdma->State = HAL_DMA_STATE_BUSY;
 800341a:	2325      	movs	r3, #37	@ 0x25
 800341c:	2202      	movs	r2, #2
 800341e:	54e2      	strb	r2, [r4, r3]
  CLEAR_BIT(hdma->Instance->CCR, (DMA_CCR_PL    | DMA_CCR_MSIZE  | DMA_CCR_PSIZE  | \
 8003420:	682b      	ldr	r3, [r5, #0]
 8003422:	4a27      	ldr	r2, [pc, #156]	@ (80034c0 <HAL_DMA_Init+0xbc>)
 8003424:	4013      	ands	r3, r2
 8003426:	602b      	str	r3, [r5, #0]
  SET_BIT(hdma->Instance->CCR, (hdma->Init.Direction           |                               \
 8003428:	6822      	ldr	r2, [r4, #0]
 800342a:	6811      	ldr	r1, [r2, #0]
 800342c:	68a3      	ldr	r3, [r4, #8]
 800342e:	68e0      	ldr	r0, [r4, #12]
 8003430:	4303      	orrs	r3, r0
 8003432:	6920      	ldr	r0, [r4, #16]
 8003434:	4303      	orrs	r3, r0
 8003436:	6960      	ldr	r0, [r4, #20]
 8003438:	4303      	orrs	r3, r0
 800343a:	69a0      	ldr	r0, [r4, #24]
 800343c:	4303      	orrs	r3, r0
 800343e:	69e0      	ldr	r0, [r4, #28]
 8003440:	4303      	orrs	r3, r0
 8003442:	6a20      	ldr	r0, [r4, #32]
 8003444:	4303      	orrs	r3, r0
 8003446:	430b      	orrs	r3, r1
 8003448:	6013      	str	r3, [r2, #0]
  DMA_CalcDMAMUXChannelBaseAndMask(hdma);
 800344a:	0020      	movs	r0, r4
 800344c:	f7ff ffc0 	bl	80033d0 <DMA_CalcDMAMUXChannelBaseAndMask>
  if (hdma->Init.Direction == DMA_MEMORY_TO_MEMORY)
 8003450:	2380      	movs	r3, #128	@ 0x80
 8003452:	01db      	lsls	r3, r3, #7
 8003454:	68a2      	ldr	r2, [r4, #8]
 8003456:	429a      	cmp	r2, r3
 8003458:	d018      	beq.n	800348c <HAL_DMA_Init+0x88>
  hdma->DMAmuxChannel->CCR = (hdma->Init.Request & DMAMUX_CxCR_DMAREQ_ID);
 800345a:	6c62      	ldr	r2, [r4, #68]	@ 0x44
 800345c:	6863      	ldr	r3, [r4, #4]
 800345e:	213f      	movs	r1, #63	@ 0x3f
 8003460:	400b      	ands	r3, r1
 8003462:	6013      	str	r3, [r2, #0]
  hdma->DMAmuxChannelStatus->CFR = hdma->DMAmuxChannelStatusMask;
 8003464:	6ca3      	ldr	r3, [r4, #72]	@ 0x48
 8003466:	6ce2      	ldr	r2, [r4, #76]	@ 0x4c
 8003468:	605a      	str	r2, [r3, #4]
  if (((hdma->Init.Request >  0UL) && (hdma->Init.Request <= DMA_REQUEST_GENERATOR3)))
 800346a:	6863      	ldr	r3, [r4, #4]
 800346c:	1e5a      	subs	r2, r3, #1
 800346e:	2a03      	cmp	r2, #3
 8003470:	d90f      	bls.n	8003492 <HAL_DMA_Init+0x8e>
    hdma->DMAmuxRequestGen = 0U;
 8003472:	2300      	movs	r3, #0
 8003474:	6523      	str	r3, [r4, #80]	@ 0x50
    hdma->DMAmuxRequestGenStatus = 0U;
 8003476:	6563      	str	r3, [r4, #84]	@ 0x54
    hdma->DMAmuxRequestGenStatusMask = 0U;
 8003478:	65a3      	str	r3, [r4, #88]	@ 0x58
  hdma->ErrorCode = HAL_DMA_ERROR_NONE;
 800347a:	2300      	movs	r3, #0
 800347c:	63e3      	str	r3, [r4, #60]	@ 0x3c
  hdma->State = HAL_DMA_STATE_READY;
 800347e:	2225      	movs	r2, #37	@ 0x25
 8003480:	2101      	movs	r1, #1
 8003482:	54a1      	strb	r1, [r4, r2]
  __HAL_UNLOCK(hdma);
 8003484:	3a01      	subs	r2, #1
 8003486:	54a3      	strb	r3, [r4, r2]
  return HAL_OK;
 8003488:	2000      	movs	r0, #0
}
 800348a:	bd70      	pop	{r4, r5, r6, pc}
    hdma->Init.Request = DMA_REQUEST_MEM2MEM;
 800348c:	2300      	movs	r3, #0
 800348e:	6063      	str	r3, [r4, #4]
 8003490:	e7e3      	b.n	800345a <HAL_DMA_Init+0x56>
  * @retval None
  */

static void DMA_CalcDMAMUXRequestGenBaseAndMask(DMA_HandleTypeDef *hdma)
{
  uint32_t request =  hdma->Init.Request & DMAMUX_CxCR_DMAREQ_ID;
 8003492:	223f      	movs	r2, #63	@ 0x3f
 8003494:	4013      	ands	r3, r2

  /* DMA Channels are connected to DMAMUX1 request generator blocks*/
  hdma->DMAmuxRequestGen = (DMAMUX_RequestGen_TypeDef *)((uint32_t)(((uint32_t)DMAMUX1_RequestGenerator0) + ((request - 1U) * 4U)));
 8003496:	4a0b      	ldr	r2, [pc, #44]	@ (80034c4 <HAL_DMA_Init+0xc0>)
 8003498:	189a      	adds	r2, r3, r2
 800349a:	0092      	lsls	r2, r2, #2
 800349c:	6522      	str	r2, [r4, #80]	@ 0x50

  hdma->DMAmuxRequestGenStatus = DMAMUX1_RequestGenStatus;
 800349e:	490a      	ldr	r1, [pc, #40]	@ (80034c8 <HAL_DMA_Init+0xc4>)
 80034a0:	6561      	str	r1, [r4, #84]	@ 0x54

  /* here "Request" is either DMA_REQUEST_GENERATOR0 to DMA_REQUEST_GENERATOR3, i.e. <= 4*/
  hdma->DMAmuxRequestGenStatusMask = 1UL << ((request - 1U) & 0x3U);
 80034a2:	3b01      	subs	r3, #1
 80034a4:	2101      	movs	r1, #1
 80034a6:	4099      	lsls	r1, r3
 80034a8:	65a1      	str	r1, [r4, #88]	@ 0x58
    hdma->DMAmuxRequestGen->RGCR = 0U;
 80034aa:	2300      	movs	r3, #0
 80034ac:	6013      	str	r3, [r2, #0]
    hdma->DMAmuxRequestGenStatus->RGCFR = hdma->DMAmuxRequestGenStatusMask;
 80034ae:	6d63      	ldr	r3, [r4, #84]	@ 0x54
 80034b0:	6da2      	ldr	r2, [r4, #88]	@ 0x58
 80034b2:	605a      	str	r2, [r3, #4]
 80034b4:	e7e1      	b.n	800347a <HAL_DMA_Init+0x76>
    return HAL_ERROR;
 80034b6:	2001      	movs	r0, #1
 80034b8:	e7e7      	b.n	800348a <HAL_DMA_Init+0x86>
 80034ba:	46c0      	nop			@ (mov r8, r8)
 80034bc:	bffdfff8 	.word	0xbffdfff8
 80034c0:	ffff800f 	.word	0xffff800f
 80034c4:	1000823f 	.word	0x1000823f
 80034c8:	40020940 	.word	0x40020940

080034cc <HAL_DMA_Start_IT>:
{
 80034cc:	b570      	push	{r4, r5, r6, lr}
 80034ce:	0004      	movs	r4, r0
  __HAL_LOCK(hdma);
 80034d0:	2024      	movs	r0, #36	@ 0x24
 80034d2:	5c20      	ldrb	r0, [r4, r0]
 80034d4:	2801      	cmp	r0, #1
 80034d6:	d045      	beq.n	8003564 <HAL_DMA_Start_IT+0x98>
 80034d8:	2024      	movs	r0, #36	@ 0x24
 80034da:	2501      	movs	r5, #1
 80034dc:	5425      	strb	r5, [r4, r0]
  if (hdma->State == HAL_DMA_STATE_READY)
 80034de:	3001      	adds	r0, #1
 80034e0:	5c20      	ldrb	r0, [r4, r0]
 80034e2:	2801      	cmp	r0, #1
 80034e4:	d006      	beq.n	80034f4 <HAL_DMA_Start_IT+0x28>
    hdma->ErrorCode = HAL_DMA_ERROR_BUSY;
 80034e6:	2380      	movs	r3, #128	@ 0x80
 80034e8:	63e3      	str	r3, [r4, #60]	@ 0x3c
    __HAL_UNLOCK(hdma);
 80034ea:	3b5c      	subs	r3, #92	@ 0x5c
 80034ec:	2200      	movs	r2, #0
 80034ee:	54e2      	strb	r2, [r4, r3]
    status = HAL_ERROR;
 80034f0:	2001      	movs	r0, #1
}
 80034f2:	bd70      	pop	{r4, r5, r6, pc}
    hdma->State = HAL_DMA_STATE_BUSY;
 80034f4:	3024      	adds	r0, #36	@ 0x24
 80034f6:	3501      	adds	r5, #1
 80034f8:	5425      	strb	r5, [r4, r0]
    hdma->ErrorCode = HAL_DMA_ERROR_NONE;
 80034fa:	2000      	movs	r0, #0
 80034fc:	63e0      	str	r0, [r4, #60]	@ 0x3c
    __HAL_DMA_DISABLE(hdma);
 80034fe:	6825      	ldr	r5, [r4, #0]
 8003500:	6828      	ldr	r0, [r5, #0]
 8003502:	2601      	movs	r6, #1
 8003504:	43b0      	bics	r0, r6
 8003506:	6028      	str	r0, [r5, #0]
    DMA_SetConfig(hdma, SrcAddress, DstAddress, DataLength);
 8003508:	0020      	movs	r0, r4
 800350a:	f7ff ff3d 	bl	8003388 <DMA_SetConfig>
    if (NULL != hdma->XferHalfCpltCallback)
 800350e:	6b23      	ldr	r3, [r4, #48]	@ 0x30
 8003510:	2b00      	cmp	r3, #0
 8003512:	d01c      	beq.n	800354e <HAL_DMA_Start_IT+0x82>
      __HAL_DMA_ENABLE_IT(hdma, (DMA_IT_TC | DMA_IT_HT | DMA_IT_TE));
 8003514:	6822      	ldr	r2, [r4, #0]
 8003516:	6813      	ldr	r3, [r2, #0]
 8003518:	210e      	movs	r1, #14
 800351a:	430b      	orrs	r3, r1
 800351c:	6013      	str	r3, [r2, #0]
    if ((hdma->DMAmuxChannel->CCR & DMAMUX_CxCR_SE) != 0U)
 800351e:	6c62      	ldr	r2, [r4, #68]	@ 0x44
 8003520:	6813      	ldr	r3, [r2, #0]
 8003522:	03db      	lsls	r3, r3, #15
 8003524:	d504      	bpl.n	8003530 <HAL_DMA_Start_IT+0x64>
      hdma->DMAmuxChannel->CCR |= DMAMUX_CxCR_SOIE;
 8003526:	6811      	ldr	r1, [r2, #0]
 8003528:	2380      	movs	r3, #128	@ 0x80
 800352a:	005b      	lsls	r3, r3, #1
 800352c:	430b      	orrs	r3, r1
 800352e:	6013      	str	r3, [r2, #0]
    if (hdma->DMAmuxRequestGen != 0U)
 8003530:	6d23      	ldr	r3, [r4, #80]	@ 0x50
 8003532:	2b00      	cmp	r3, #0
 8003534:	d004      	beq.n	8003540 <HAL_DMA_Start_IT+0x74>
      hdma->DMAmuxRequestGen->RGCR |= DMAMUX_RGxCR_OIE;
 8003536:	6819      	ldr	r1, [r3, #0]
 8003538:	2280      	movs	r2, #128	@ 0x80
 800353a:	0052      	lsls	r2, r2, #1
 800353c:	430a      	orrs	r2, r1
 800353e:	601a      	str	r2, [r3, #0]
    __HAL_DMA_ENABLE(hdma);
 8003540:	6822      	ldr	r2, [r4, #0]
 8003542:	6813      	ldr	r3, [r2, #0]
 8003544:	2101      	movs	r1, #1
 8003546:	430b      	orrs	r3, r1
 8003548:	6013      	str	r3, [r2, #0]
  HAL_StatusTypeDef status = HAL_OK;
 800354a:	2000      	movs	r0, #0
 800354c:	e7d1      	b.n	80034f2 <HAL_DMA_Start_IT+0x26>
      __HAL_DMA_DISABLE_IT(hdma, DMA_IT_HT);
 800354e:	6822      	ldr	r2, [r4, #0]
 8003550:	6813      	ldr	r3, [r2, #0]
 8003552:	2104      	movs	r1, #4
 8003554:	438b      	bics	r3, r1
 8003556:	6013      	str	r3, [r2, #0]
      __HAL_DMA_ENABLE_IT(hdma, (DMA_IT_TC | DMA_IT_TE));
 8003558:	6822      	ldr	r2, [r4, #0]
 800355a:	6813      	ldr	r3, [r2, #0]
 800355c:	3106      	adds	r1, #6
 800355e:	430b      	orrs	r3, r1
 8003560:	6013      	str	r3, [r2, #0]
 8003562:	e7dc      	b.n	800351e <HAL_DMA_Start_IT+0x52>
  __HAL_LOCK(hdma);
 8003564:	2002      	movs	r0, #2
 8003566:	e7c4      	b.n	80034f2 <HAL_DMA_Start_IT+0x26>

08003568 <HAL_DMA_IRQHandler>:
{
 8003568:	b570      	push	{r4, r5, r6, lr}
  uint32_t flag_it = DMA1->ISR;
 800356a:	4b31      	ldr	r3, [pc, #196]	@ (8003630 <HAL_DMA_IRQHandler+0xc8>)
 800356c:	6819      	ldr	r1, [r3, #0]
  uint32_t source_it = hdma->Instance->CCR;
 800356e:	6804      	ldr	r4, [r0, #0]
 8003570:	6825      	ldr	r5, [r4, #0]
  if (((flag_it & (DMA_FLAG_HT1 << (hdma->ChannelIndex & 0x1CU))) != 0U) && ((source_it & DMA_IT_HT) != 0U))
 8003572:	6c03      	ldr	r3, [r0, #64]	@ 0x40
 8003574:	221c      	movs	r2, #28
 8003576:	4013      	ands	r3, r2
 8003578:	3a18      	subs	r2, #24
 800357a:	409a      	lsls	r2, r3
 800357c:	4211      	tst	r1, r2
 800357e:	d016      	beq.n	80035ae <HAL_DMA_IRQHandler+0x46>
 8003580:	076a      	lsls	r2, r5, #29
 8003582:	d514      	bpl.n	80035ae <HAL_DMA_IRQHandler+0x46>
      if ((hdma->Instance->CCR & DMA_CCR_CIRC) == 0U)
 8003584:	6823      	ldr	r3, [r4, #0]
 8003586:	069b      	lsls	r3, r3, #26
 8003588:	d403      	bmi.n	8003592 <HAL_DMA_IRQHandler+0x2a>
        __HAL_DMA_DISABLE_IT(hdma, DMA_IT_HT);
 800358a:	6823      	ldr	r3, [r4, #0]
 800358c:	2204      	movs	r2, #4
 800358e:	4393      	bics	r3, r2
 8003590:	6023      	str	r3, [r4, #0]
      __HAL_DMA_CLEAR_FLAG(hdma, (DMA_FLAG_HT1 << (hdma->ChannelIndex & 0x1CU)));
 8003592:	4927      	ldr	r1, [pc, #156]	@ (8003630 <HAL_DMA_IRQHandler+0xc8>)
 8003594:	684c      	ldr	r4, [r1, #4]
 8003596:	6c02      	ldr	r2, [r0, #64]	@ 0x40
 8003598:	231c      	movs	r3, #28
 800359a:	401a      	ands	r2, r3
 800359c:	3b18      	subs	r3, #24
 800359e:	4093      	lsls	r3, r2
 80035a0:	4323      	orrs	r3, r4
 80035a2:	604b      	str	r3, [r1, #4]
      if (hdma->XferHalfCpltCallback != NULL)
 80035a4:	6b03      	ldr	r3, [r0, #48]	@ 0x30
 80035a6:	2b00      	cmp	r3, #0
 80035a8:	d000      	beq.n	80035ac <HAL_DMA_IRQHandler+0x44>
        hdma->XferHalfCpltCallback(hdma);
 80035aa:	4798      	blx	r3
}
 80035ac:	bd70      	pop	{r4, r5, r6, pc}
  else if ((0U != (flag_it & (DMA_FLAG_TC1 << (hdma->ChannelIndex & 0x1CU)))) && (0U != (source_it & DMA_IT_TC)))
 80035ae:	2202      	movs	r2, #2
 80035b0:	409a      	lsls	r2, r3
 80035b2:	4211      	tst	r1, r2
 80035b4:	d01c      	beq.n	80035f0 <HAL_DMA_IRQHandler+0x88>
 80035b6:	07aa      	lsls	r2, r5, #30
 80035b8:	d51a      	bpl.n	80035f0 <HAL_DMA_IRQHandler+0x88>
      if ((hdma->Instance->CCR & DMA_CCR_CIRC) == 0U)
 80035ba:	6823      	ldr	r3, [r4, #0]
 80035bc:	069b      	lsls	r3, r3, #26
 80035be:	d406      	bmi.n	80035ce <HAL_DMA_IRQHandler+0x66>
        __HAL_DMA_DISABLE_IT(hdma, DMA_IT_TE | DMA_IT_TC);
 80035c0:	6823      	ldr	r3, [r4, #0]
 80035c2:	220a      	movs	r2, #10
 80035c4:	4393      	bics	r3, r2
 80035c6:	6023      	str	r3, [r4, #0]
        hdma->State = HAL_DMA_STATE_READY;
 80035c8:	2325      	movs	r3, #37	@ 0x25
 80035ca:	3a09      	subs	r2, #9
 80035cc:	54c2      	strb	r2, [r0, r3]
      __HAL_DMA_CLEAR_FLAG(hdma, (DMA_FLAG_TC1 << (hdma->ChannelIndex & 0x1CU)));
 80035ce:	4918      	ldr	r1, [pc, #96]	@ (8003630 <HAL_DMA_IRQHandler+0xc8>)
 80035d0:	684c      	ldr	r4, [r1, #4]
 80035d2:	6c02      	ldr	r2, [r0, #64]	@ 0x40
 80035d4:	231c      	movs	r3, #28
 80035d6:	401a      	ands	r2, r3
 80035d8:	3b1a      	subs	r3, #26
 80035da:	4093      	lsls	r3, r2
 80035dc:	4323      	orrs	r3, r4
 80035de:	604b      	str	r3, [r1, #4]
      __HAL_UNLOCK(hdma);
 80035e0:	2324      	movs	r3, #36	@ 0x24
 80035e2:	2200      	movs	r2, #0
 80035e4:	54c2      	strb	r2, [r0, r3]
      if (hdma->XferCpltCallback != NULL)
 80035e6:	6ac3      	ldr	r3, [r0, #44]	@ 0x2c
 80035e8:	2b00      	cmp	r3, #0
 80035ea:	d0df      	beq.n	80035ac <HAL_DMA_IRQHandler+0x44>
        hdma->XferCpltCallback(hdma);
 80035ec:	4798      	blx	r3
 80035ee:	e7dd      	b.n	80035ac <HAL_DMA_IRQHandler+0x44>
  else if (((flag_it & (DMA_FLAG_TE1 << (hdma->ChannelIndex & 0x1CU))) != 0U) && ((source_it & DMA_IT_TE) != 0U))
 80035f0:	2208      	movs	r2, #8
 80035f2:	409a      	lsls	r2, r3
 80035f4:	4211      	tst	r1, r2
 80035f6:	d0d9      	beq.n	80035ac <HAL_DMA_IRQHandler+0x44>
 80035f8:	072d      	lsls	r5, r5, #28
 80035fa:	d5d7      	bpl.n	80035ac <HAL_DMA_IRQHandler+0x44>
    __HAL_DMA_DISABLE_IT(hdma, (DMA_IT_TC | DMA_IT_HT | DMA_IT_TE));
 80035fc:	6823      	ldr	r3, [r4, #0]
 80035fe:	220e      	movs	r2, #14
 8003600:	4393      	bics	r3, r2
 8003602:	6023      	str	r3, [r4, #0]
    __HAL_DMA_CLEAR_FLAG(hdma, (DMA_FLAG_GI1 << (hdma->ChannelIndex & 0x1CU)));
 8003604:	490a      	ldr	r1, [pc, #40]	@ (8003630 <HAL_DMA_IRQHandler+0xc8>)
 8003606:	684c      	ldr	r4, [r1, #4]
 8003608:	6c02      	ldr	r2, [r0, #64]	@ 0x40
 800360a:	231c      	movs	r3, #28
 800360c:	401a      	ands	r2, r3
 800360e:	3b1b      	subs	r3, #27
 8003610:	001d      	movs	r5, r3
 8003612:	4095      	lsls	r5, r2
 8003614:	002a      	movs	r2, r5
 8003616:	4322      	orrs	r2, r4
 8003618:	604a      	str	r2, [r1, #4]
    hdma->ErrorCode = HAL_DMA_ERROR_TE;
 800361a:	63c3      	str	r3, [r0, #60]	@ 0x3c
    hdma->State = HAL_DMA_STATE_READY;
 800361c:	2225      	movs	r2, #37	@ 0x25
 800361e:	5483      	strb	r3, [r0, r2]
    __HAL_UNLOCK(hdma);
 8003620:	3323      	adds	r3, #35	@ 0x23
 8003622:	2200      	movs	r2, #0
 8003624:	54c2      	strb	r2, [r0, r3]
    if (hdma->XferErrorCallback != NULL)
 8003626:	6b43      	ldr	r3, [r0, #52]	@ 0x34
 8003628:	2b00      	cmp	r3, #0
 800362a:	d0bf      	beq.n	80035ac <HAL_DMA_IRQHandler+0x44>
      hdma->XferErrorCallback(hdma);
 800362c:	4798      	blx	r3
  return;
 800362e:	e7bd      	b.n	80035ac <HAL_DMA_IRQHandler+0x44>
 8003630:	40020000 	.word	0x40020000

08003634 <HAL_GPIO_Init>:
  * @param  GPIO_Init pointer to a GPIO_InitTypeDef structure that contains
  *         the configuration information for the specified GPIO peripheral.
  * @retval None
  */
void HAL_GPIO_Init(GPIO_TypeDef  *GPIOx, GPIO_InitTypeDef *GPIO_Init)
{
 8003634:	b5f0      	push	{r4, r5, r6, r7, lr}
 8003636:	46de      	mov	lr, fp
 8003638:	4657      	mov	r7, sl
 800363a:	464e      	mov	r6, r9
 800363c:	4645      	mov	r5, r8
 800363e:	b5e0      	push	{r5, r6, r7, lr}
 8003640:	b083      	sub	sp, #12
  assert_param(IS_GPIO_ALL_INSTANCE(GPIOx));
  assert_param(IS_GPIO_PIN(GPIO_Init->Pin));
  assert_param(IS_GPIO_MODE(GPIO_Init->Mode));

  /* Configure the port pins */
  while (((GPIO_Init->Pin) >> position) != 0x00u)
 8003642:	680f      	ldr	r7, [r1, #0]
 8003644:	2f00      	cmp	r7, #0
 8003646:	d100      	bne.n	800364a <HAL_GPIO_Init+0x16>
 8003648:	e0d1      	b.n	80037ee <HAL_GPIO_Init+0x1ba>
 800364a:	2200      	movs	r2, #0
  uint32_t position = 0x00u;
 800364c:	2300      	movs	r3, #0
  {
    /* Get current io position */
    iocurrent = (GPIO_Init->Pin) & (1uL << position);
 800364e:	2401      	movs	r4, #1
 8003650:	46a0      	mov	r8, r4

    if (iocurrent != 0x00u)
    {
      /*--------------------- GPIO Mode Configuration ------------------------*/
      /* In case of Output or Alternate function mode selection */
      if (((GPIO_Init->Mode & GPIO_MODE) == MODE_OUTPUT) || ((GPIO_Init->Mode & GPIO_MODE) == MODE_AF))
 8003652:	3402      	adds	r4, #2
        temp &= ~(0x0FuL << (8u * (position & 0x03u)));
        temp |= (GPIO_GET_INDEX(GPIOx) << (8u * (position & 0x03u)));
        EXTI->EXTICR[position >> 2u] = temp;

        /* Clear Rising Falling edge configuration */
        temp = EXTI->RTSR1;
 8003654:	4d69      	ldr	r5, [pc, #420]	@ (80037fc <HAL_GPIO_Init+0x1c8>)
 8003656:	46ab      	mov	fp, r5
 8003658:	e052      	b.n	8003700 <HAL_GPIO_Init+0xcc>
        temp = GPIOx->OSPEEDR;
 800365a:	6887      	ldr	r7, [r0, #8]
        temp &= ~(GPIO_OSPEEDR_OSPEED0 << (position * 2u));
 800365c:	0025      	movs	r5, r4
 800365e:	4095      	lsls	r5, r2
 8003660:	43af      	bics	r7, r5
 8003662:	46b9      	mov	r9, r7
        temp |= (GPIO_Init->Speed << (position * 2u));
 8003664:	68cf      	ldr	r7, [r1, #12]
 8003666:	4097      	lsls	r7, r2
 8003668:	464d      	mov	r5, r9
 800366a:	432f      	orrs	r7, r5
        GPIOx->OSPEEDR = temp;
 800366c:	6087      	str	r7, [r0, #8]
        temp = GPIOx->OTYPER;
 800366e:	6847      	ldr	r7, [r0, #4]
        temp &= ~(GPIO_OTYPER_OT0 << position) ;
 8003670:	43b7      	bics	r7, r6
        temp |= (((GPIO_Init->Mode & OUTPUT_TYPE) >> OUTPUT_TYPE_Pos) << position);
 8003672:	684e      	ldr	r6, [r1, #4]
 8003674:	0936      	lsrs	r6, r6, #4
 8003676:	4645      	mov	r5, r8
 8003678:	402e      	ands	r6, r5
 800367a:	409e      	lsls	r6, r3
 800367c:	433e      	orrs	r6, r7
        GPIOx->OTYPER = temp;
 800367e:	6046      	str	r6, [r0, #4]
 8003680:	e04a      	b.n	8003718 <HAL_GPIO_Init+0xe4>
        temp |= (GPIO_GET_INDEX(GPIOx) << (8u * (position & 0x03u)));
 8003682:	2600      	movs	r6, #0
 8003684:	4655      	mov	r5, sl
 8003686:	40ae      	lsls	r6, r5
 8003688:	464d      	mov	r5, r9
 800368a:	432e      	orrs	r6, r5
        EXTI->EXTICR[position >> 2u] = temp;
 800368c:	663e      	str	r6, [r7, #96]	@ 0x60
        temp = EXTI->RTSR1;
 800368e:	465d      	mov	r5, fp
 8003690:	682d      	ldr	r5, [r5, #0]
 8003692:	46aa      	mov	sl, r5
        temp &= ~(iocurrent);
 8003694:	4665      	mov	r5, ip
 8003696:	43ed      	mvns	r5, r5
 8003698:	9501      	str	r5, [sp, #4]
        if ((GPIO_Init->Mode & TRIGGER_RISING) != 0x00u)
 800369a:	684d      	ldr	r5, [r1, #4]
 800369c:	2680      	movs	r6, #128	@ 0x80
 800369e:	0376      	lsls	r6, r6, #13
 80036a0:	4235      	tst	r5, r6
 80036a2:	d000      	beq.n	80036a6 <HAL_GPIO_Init+0x72>
 80036a4:	e094      	b.n	80037d0 <HAL_GPIO_Init+0x19c>
        temp &= ~(iocurrent);
 80036a6:	4656      	mov	r6, sl
 80036a8:	9d01      	ldr	r5, [sp, #4]
 80036aa:	402e      	ands	r6, r5
        {
          temp |= iocurrent;
        }
        EXTI->RTSR1 = temp;
 80036ac:	465d      	mov	r5, fp
 80036ae:	602e      	str	r6, [r5, #0]

        temp = EXTI->FTSR1;
 80036b0:	686d      	ldr	r5, [r5, #4]
 80036b2:	46aa      	mov	sl, r5
        temp &= ~(iocurrent);
        if ((GPIO_Init->Mode & TRIGGER_FALLING) != 0x00u)
 80036b4:	684d      	ldr	r5, [r1, #4]
 80036b6:	2680      	movs	r6, #128	@ 0x80
 80036b8:	03b6      	lsls	r6, r6, #14
 80036ba:	4235      	tst	r5, r6
 80036bc:	d000      	beq.n	80036c0 <HAL_GPIO_Init+0x8c>
 80036be:	e08b      	b.n	80037d8 <HAL_GPIO_Init+0x1a4>
        temp &= ~(iocurrent);
 80036c0:	4656      	mov	r6, sl
 80036c2:	9d01      	ldr	r5, [sp, #4]
 80036c4:	402e      	ands	r6, r5
        {
          temp |= iocurrent;
        }
        EXTI->FTSR1 = temp;
 80036c6:	465d      	mov	r5, fp
 80036c8:	606e      	str	r6, [r5, #4]

        /* Clear EXTI line configuration */
        temp = EXTI->EMR1;
 80036ca:	2684      	movs	r6, #132	@ 0x84
 80036cc:	59ae      	ldr	r6, [r5, r6]
        temp &= ~(iocurrent);
        if ((GPIO_Init->Mode & EXTI_EVT) != 0x00u)
 80036ce:	684d      	ldr	r5, [r1, #4]
 80036d0:	03ad      	lsls	r5, r5, #14
 80036d2:	d500      	bpl.n	80036d6 <HAL_GPIO_Init+0xa2>
 80036d4:	e084      	b.n	80037e0 <HAL_GPIO_Init+0x1ac>
        temp &= ~(iocurrent);
 80036d6:	9d01      	ldr	r5, [sp, #4]
 80036d8:	402e      	ands	r6, r5
        {
          temp |= iocurrent;
        }
        EXTI->EMR1 = temp;
 80036da:	2584      	movs	r5, #132	@ 0x84
 80036dc:	465f      	mov	r7, fp
 80036de:	517e      	str	r6, [r7, r5]

        temp = EXTI->IMR1;
 80036e0:	2680      	movs	r6, #128	@ 0x80
 80036e2:	59be      	ldr	r6, [r7, r6]
        temp &= ~(iocurrent);
        if ((GPIO_Init->Mode & EXTI_IT) != 0x00u)
 80036e4:	684d      	ldr	r5, [r1, #4]
 80036e6:	03ed      	lsls	r5, r5, #15
 80036e8:	d47d      	bmi.n	80037e6 <HAL_GPIO_Init+0x1b2>
        temp &= ~(iocurrent);
 80036ea:	9d01      	ldr	r5, [sp, #4]
 80036ec:	402e      	ands	r6, r5
        {
          temp |= iocurrent;
        }
        EXTI->IMR1 = temp;
 80036ee:	2780      	movs	r7, #128	@ 0x80
 80036f0:	465d      	mov	r5, fp
 80036f2:	51ee      	str	r6, [r5, r7]
      }
    }

    position++;
 80036f4:	3301      	adds	r3, #1
  while (((GPIO_Init->Pin) >> position) != 0x00u)
 80036f6:	680f      	ldr	r7, [r1, #0]
 80036f8:	3202      	adds	r2, #2
 80036fa:	003e      	movs	r6, r7
 80036fc:	40de      	lsrs	r6, r3
 80036fe:	d076      	beq.n	80037ee <HAL_GPIO_Init+0x1ba>
    iocurrent = (GPIO_Init->Pin) & (1uL << position);
 8003700:	4646      	mov	r6, r8
 8003702:	409e      	lsls	r6, r3
 8003704:	003d      	movs	r5, r7
 8003706:	4035      	ands	r5, r6
 8003708:	46ac      	mov	ip, r5
    if (iocurrent != 0x00u)
 800370a:	4237      	tst	r7, r6
 800370c:	d0f2      	beq.n	80036f4 <HAL_GPIO_Init+0xc0>
      if (((GPIO_Init->Mode & GPIO_MODE) == MODE_OUTPUT) || ((GPIO_Init->Mode & GPIO_MODE) == MODE_AF))
 800370e:	684f      	ldr	r7, [r1, #4]
 8003710:	4027      	ands	r7, r4
 8003712:	3f01      	subs	r7, #1
 8003714:	2f01      	cmp	r7, #1
 8003716:	d9a0      	bls.n	800365a <HAL_GPIO_Init+0x26>
      if ((GPIO_Init->Mode & GPIO_MODE) != MODE_ANALOG)
 8003718:	684e      	ldr	r6, [r1, #4]
 800371a:	4026      	ands	r6, r4
 800371c:	2e03      	cmp	r6, #3
 800371e:	d022      	beq.n	8003766 <HAL_GPIO_Init+0x132>
        temp = GPIOx->PUPDR;
 8003720:	68c7      	ldr	r7, [r0, #12]
        temp &= ~(GPIO_PUPDR_PUPD0 << (position * 2u));
 8003722:	0026      	movs	r6, r4
 8003724:	4096      	lsls	r6, r2
 8003726:	43b7      	bics	r7, r6
        temp |= ((GPIO_Init->Pull) << (position * 2u));
 8003728:	688e      	ldr	r6, [r1, #8]
 800372a:	4096      	lsls	r6, r2
 800372c:	433e      	orrs	r6, r7
        GPIOx->PUPDR = temp;
 800372e:	60c6      	str	r6, [r0, #12]
      if ((GPIO_Init->Mode & GPIO_MODE) == MODE_AF)
 8003730:	684e      	ldr	r6, [r1, #4]
 8003732:	4026      	ands	r6, r4
 8003734:	2e02      	cmp	r6, #2
 8003736:	d116      	bne.n	8003766 <HAL_GPIO_Init+0x132>
        temp = GPIOx->AFR[position >> 3u];
 8003738:	08de      	lsrs	r6, r3, #3
 800373a:	00b6      	lsls	r6, r6, #2
 800373c:	1985      	adds	r5, r0, r6
 800373e:	9501      	str	r5, [sp, #4]
 8003740:	6a2d      	ldr	r5, [r5, #32]
 8003742:	46aa      	mov	sl, r5
        temp &= ~(0xFu << ((position & 0x07u) * 4u));
 8003744:	2707      	movs	r7, #7
 8003746:	401f      	ands	r7, r3
 8003748:	00bf      	lsls	r7, r7, #2
 800374a:	250f      	movs	r5, #15
 800374c:	40bd      	lsls	r5, r7
 800374e:	46a9      	mov	r9, r5
 8003750:	4655      	mov	r5, sl
 8003752:	464e      	mov	r6, r9
 8003754:	43b5      	bics	r5, r6
 8003756:	46aa      	mov	sl, r5
        temp |= ((GPIO_Init->Alternate) << ((position & 0x07u) * 4u));
 8003758:	690d      	ldr	r5, [r1, #16]
 800375a:	40bd      	lsls	r5, r7
 800375c:	002f      	movs	r7, r5
 800375e:	4655      	mov	r5, sl
 8003760:	432f      	orrs	r7, r5
        GPIOx->AFR[position >> 3u] = temp;
 8003762:	9d01      	ldr	r5, [sp, #4]
 8003764:	622f      	str	r7, [r5, #32]
      temp = GPIOx->MODER;
 8003766:	6807      	ldr	r7, [r0, #0]
      temp &= ~(GPIO_MODER_MODE0 << (position * 2u));
 8003768:	0026      	movs	r6, r4
 800376a:	4096      	lsls	r6, r2
 800376c:	43b7      	bics	r7, r6
      temp |= ((GPIO_Init->Mode & GPIO_MODE) << (position * 2u));
 800376e:	684e      	ldr	r6, [r1, #4]
 8003770:	4026      	ands	r6, r4
 8003772:	4096      	lsls	r6, r2
 8003774:	433e      	orrs	r6, r7
      GPIOx->MODER = temp;
 8003776:	6006      	str	r6, [r0, #0]
      if ((GPIO_Init->Mode & EXTI_MODE) != 0x00u)
 8003778:	684e      	ldr	r6, [r1, #4]
 800377a:	25c0      	movs	r5, #192	@ 0xc0
 800377c:	02ad      	lsls	r5, r5, #10
 800377e:	422e      	tst	r6, r5
 8003780:	d0b8      	beq.n	80036f4 <HAL_GPIO_Init+0xc0>
        temp = EXTI->EXTICR[position >> 2u];
 8003782:	089f      	lsrs	r7, r3, #2
 8003784:	00bf      	lsls	r7, r7, #2
 8003786:	4d1d      	ldr	r5, [pc, #116]	@ (80037fc <HAL_GPIO_Init+0x1c8>)
 8003788:	46a9      	mov	r9, r5
 800378a:	444f      	add	r7, r9
 800378c:	6e3d      	ldr	r5, [r7, #96]	@ 0x60
 800378e:	9501      	str	r5, [sp, #4]
        temp &= ~(0x0FuL << (8u * (position & 0x03u)));
 8003790:	0025      	movs	r5, r4
 8003792:	401d      	ands	r5, r3
 8003794:	00ed      	lsls	r5, r5, #3
 8003796:	46aa      	mov	sl, r5
 8003798:	250f      	movs	r5, #15
 800379a:	4656      	mov	r6, sl
 800379c:	40b5      	lsls	r5, r6
 800379e:	9e01      	ldr	r6, [sp, #4]
 80037a0:	43ae      	bics	r6, r5
 80037a2:	46b1      	mov	r9, r6
        temp |= (GPIO_GET_INDEX(GPIOx) << (8u * (position & 0x03u)));
 80037a4:	25a0      	movs	r5, #160	@ 0xa0
 80037a6:	05ed      	lsls	r5, r5, #23
 80037a8:	42a8      	cmp	r0, r5
 80037aa:	d100      	bne.n	80037ae <HAL_GPIO_Init+0x17a>
 80037ac:	e769      	b.n	8003682 <HAL_GPIO_Init+0x4e>
 80037ae:	4e14      	ldr	r6, [pc, #80]	@ (8003800 <HAL_GPIO_Init+0x1cc>)
 80037b0:	42b0      	cmp	r0, r6
 80037b2:	d009      	beq.n	80037c8 <HAL_GPIO_Init+0x194>
 80037b4:	4e13      	ldr	r6, [pc, #76]	@ (8003804 <HAL_GPIO_Init+0x1d0>)
 80037b6:	42b0      	cmp	r0, r6
 80037b8:	d008      	beq.n	80037cc <HAL_GPIO_Init+0x198>
 80037ba:	4d13      	ldr	r5, [pc, #76]	@ (8003808 <HAL_GPIO_Init+0x1d4>)
 80037bc:	1946      	adds	r6, r0, r5
 80037be:	1e75      	subs	r5, r6, #1
 80037c0:	41ae      	sbcs	r6, r5
 80037c2:	0076      	lsls	r6, r6, #1
 80037c4:	3603      	adds	r6, #3
 80037c6:	e75d      	b.n	8003684 <HAL_GPIO_Init+0x50>
 80037c8:	2601      	movs	r6, #1
 80037ca:	e75b      	b.n	8003684 <HAL_GPIO_Init+0x50>
 80037cc:	2602      	movs	r6, #2
 80037ce:	e759      	b.n	8003684 <HAL_GPIO_Init+0x50>
          temp |= iocurrent;
 80037d0:	4665      	mov	r5, ip
 80037d2:	4656      	mov	r6, sl
 80037d4:	432e      	orrs	r6, r5
 80037d6:	e769      	b.n	80036ac <HAL_GPIO_Init+0x78>
          temp |= iocurrent;
 80037d8:	4665      	mov	r5, ip
 80037da:	4656      	mov	r6, sl
 80037dc:	432e      	orrs	r6, r5
 80037de:	e772      	b.n	80036c6 <HAL_GPIO_Init+0x92>
          temp |= iocurrent;
 80037e0:	4665      	mov	r5, ip
 80037e2:	432e      	orrs	r6, r5
 80037e4:	e779      	b.n	80036da <HAL_GPIO_Init+0xa6>
          temp |= iocurrent;
 80037e6:	4665      	mov	r5, ip
 80037e8:	4335      	orrs	r5, r6
 80037ea:	002e      	movs	r6, r5
 80037ec:	e77f      	b.n	80036ee <HAL_GPIO_Init+0xba>
  }
}
 80037ee:	b003      	add	sp, #12
 80037f0:	bcf0      	pop	{r4, r5, r6, r7}
 80037f2:	46bb      	mov	fp, r7
 80037f4:	46b2      	mov	sl, r6
 80037f6:	46a9      	mov	r9, r5
 80037f8:	46a0      	mov	r8, r4
 80037fa:	bdf0      	pop	{r4, r5, r6, r7, pc}
 80037fc:	40021800 	.word	0x40021800
 8003800:	50000400 	.word	0x50000400
 8003804:	50000800 	.word	0x50000800
 8003808:	affff400 	.word	0xaffff400

0800380c <HAL_GPIO_EXTI_IRQHandler>:
  * @brief  Handle EXTI interrupt request.
  * @param  GPIO_Pin Specifies the port pin connected to corresponding EXTI line.
  * @retval None
  */
void HAL_GPIO_EXTI_IRQHandler(uint16_t GPIO_Pin)
{
 800380c:	b510      	push	{r4, lr}
 800380e:	0004      	movs	r4, r0
  /* EXTI line interrupt detected */
  if (__HAL_GPIO_EXTI_GET_RISING_IT(GPIO_Pin) != 0x00u)
 8003810:	4b09      	ldr	r3, [pc, #36]	@ (8003838 <HAL_GPIO_EXTI_IRQHandler+0x2c>)
 8003812:	68db      	ldr	r3, [r3, #12]
 8003814:	4218      	tst	r0, r3
 8003816:	d104      	bne.n	8003822 <HAL_GPIO_EXTI_IRQHandler+0x16>
  {
    __HAL_GPIO_EXTI_CLEAR_RISING_IT(GPIO_Pin);
    HAL_GPIO_EXTI_Rising_Callback(GPIO_Pin);
  }

  if (__HAL_GPIO_EXTI_GET_FALLING_IT(GPIO_Pin) != 0x00u)
 8003818:	4b07      	ldr	r3, [pc, #28]	@ (8003838 <HAL_GPIO_EXTI_IRQHandler+0x2c>)
 800381a:	691b      	ldr	r3, [r3, #16]
 800381c:	4223      	tst	r3, r4
 800381e:	d105      	bne.n	800382c <HAL_GPIO_EXTI_IRQHandler+0x20>
  {
    __HAL_GPIO_EXTI_CLEAR_FALLING_IT(GPIO_Pin);
    HAL_GPIO_EXTI_Falling_Callback(GPIO_Pin);
  }
}
 8003820:	bd10      	pop	{r4, pc}
    __HAL_GPIO_EXTI_CLEAR_RISING_IT(GPIO_Pin);
 8003822:	4b05      	ldr	r3, [pc, #20]	@ (8003838 <HAL_GPIO_EXTI_IRQHandler+0x2c>)
 8003824:	60d8      	str	r0, [r3, #12]
    HAL_GPIO_EXTI_Rising_Callback(GPIO_Pin);
 8003826:	f7fd fb59 	bl	8000edc <HAL_GPIO_EXTI_Rising_Callback>
 800382a:	e7f5      	b.n	8003818 <HAL_GPIO_EXTI_IRQHandler+0xc>
    __HAL_GPIO_EXTI_CLEAR_FALLING_IT(GPIO_Pin);
 800382c:	4b02      	ldr	r3, [pc, #8]	@ (8003838 <HAL_GPIO_EXTI_IRQHandler+0x2c>)
 800382e:	611c      	str	r4, [r3, #16]
    HAL_GPIO_EXTI_Falling_Callback(GPIO_Pin);
 8003830:	0020      	movs	r0, r4
 8003832:	f7fd fb3b 	bl	8000eac <HAL_GPIO_EXTI_Falling_Callback>
}
 8003836:	e7f3      	b.n	8003820 <HAL_GPIO_EXTI_IRQHandler+0x14>
 8003838:	40021800 	.word	0x40021800

0800383c <I2C_Flush_TXDR>:
  */
static void I2C_Flush_TXDR(I2C_HandleTypeDef *hi2c)
{
  /* If a pending TXIS flag is set */
  /* Write a dummy data in TXDR to clear it */
  if (__HAL_I2C_GET_FLAG(hi2c, I2C_FLAG_TXIS) != RESET)
 800383c:	6802      	ldr	r2, [r0, #0]
 800383e:	6993      	ldr	r3, [r2, #24]
 8003840:	079b      	lsls	r3, r3, #30
 8003842:	d501      	bpl.n	8003848 <I2C_Flush_TXDR+0xc>
  {
    hi2c->Instance->TXDR = 0x00U;
 8003844:	2300      	movs	r3, #0
 8003846:	6293      	str	r3, [r2, #40]	@ 0x28
  }

  /* Flush TX register if not empty */
  if (__HAL_I2C_GET_FLAG(hi2c, I2C_FLAG_TXE) == RESET)
 8003848:	6803      	ldr	r3, [r0, #0]
 800384a:	699a      	ldr	r2, [r3, #24]
 800384c:	07d2      	lsls	r2, r2, #31
 800384e:	d403      	bmi.n	8003858 <I2C_Flush_TXDR+0x1c>
  {
    __HAL_I2C_CLEAR_FLAG(hi2c, I2C_FLAG_TXE);
 8003850:	699a      	ldr	r2, [r3, #24]
 8003852:	2101      	movs	r1, #1
 8003854:	430a      	orrs	r2, r1
 8003856:	619a      	str	r2, [r3, #24]
  }
}
 8003858:	4770      	bx	lr
	...

0800385c <I2C_TransferConfig>:
  *     @arg @ref I2C_GENERATE_START_WRITE Generate Restart for write request.
  * @retval None
  */
static void I2C_TransferConfig(I2C_HandleTypeDef *hi2c, uint16_t DevAddress, uint8_t Size, uint32_t Mode,
                               uint32_t Request)
{
 800385c:	b530      	push	{r4, r5, lr}
  uint32_t tmp = ((uint32_t)(((uint32_t)DevAddress & I2C_CR2_SADD) | \
                             (((uint32_t)Size << I2C_CR2_NBYTES_Pos) & I2C_CR2_NBYTES) | \
                             (uint32_t)Mode | (uint32_t)Request) & (~0x80000000U));

  /* update CR2 register */
  MODIFY_REG(hi2c->Instance->CR2, \
 800385e:	6800      	ldr	r0, [r0, #0]
 8003860:	6844      	ldr	r4, [r0, #4]
                             (((uint32_t)Size << I2C_CR2_NBYTES_Pos) & I2C_CR2_NBYTES) | \
 8003862:	0412      	lsls	r2, r2, #16
  uint32_t tmp = ((uint32_t)(((uint32_t)DevAddress & I2C_CR2_SADD) | \
 8003864:	9d03      	ldr	r5, [sp, #12]
 8003866:	432b      	orrs	r3, r5
 8003868:	431a      	orrs	r2, r3
 800386a:	0589      	lsls	r1, r1, #22
 800386c:	0d89      	lsrs	r1, r1, #22
 800386e:	430a      	orrs	r2, r1
 8003870:	0052      	lsls	r2, r2, #1
 8003872:	0852      	lsrs	r2, r2, #1
  MODIFY_REG(hi2c->Instance->CR2, \
 8003874:	0d6b      	lsrs	r3, r5, #21
 8003876:	2180      	movs	r1, #128	@ 0x80
 8003878:	00c9      	lsls	r1, r1, #3
 800387a:	400b      	ands	r3, r1
 800387c:	4902      	ldr	r1, [pc, #8]	@ (8003888 <I2C_TransferConfig+0x2c>)
 800387e:	430b      	orrs	r3, r1
 8003880:	439c      	bics	r4, r3
 8003882:	4322      	orrs	r2, r4
 8003884:	6042      	str	r2, [r0, #4]
             ((I2C_CR2_SADD | I2C_CR2_NBYTES | I2C_CR2_RELOAD | I2C_CR2_AUTOEND | \
               (I2C_CR2_RD_WRN & (uint32_t)(Request >> (31U - I2C_CR2_RD_WRN_Pos))) | \
               I2C_CR2_START | I2C_CR2_STOP)), tmp);
}
 8003886:	bd30      	pop	{r4, r5, pc}
 8003888:	03ff63ff 	.word	0x03ff63ff

0800388c <I2C_IsErrorOccurred>:
{
 800388c:	b5f0      	push	{r4, r5, r6, r7, lr}
 800388e:	46d6      	mov	lr, sl
 8003890:	464f      	mov	r7, r9
 8003892:	4646      	mov	r6, r8
 8003894:	b5c0      	push	{r6, r7, lr}
 8003896:	0004      	movs	r4, r0
 8003898:	000d      	movs	r5, r1
 800389a:	4690      	mov	r8, r2
  uint32_t itflag   = hi2c->Instance->ISR;
 800389c:	6801      	ldr	r1, [r0, #0]
 800389e:	698b      	ldr	r3, [r1, #24]
  if (HAL_IS_BIT_SET(itflag, I2C_FLAG_AF))
 80038a0:	2210      	movs	r2, #16
 80038a2:	0016      	movs	r6, r2
 80038a4:	401e      	ands	r6, r3
  HAL_StatusTypeDef status = HAL_OK;
 80038a6:	2000      	movs	r0, #0
  if (HAL_IS_BIT_SET(itflag, I2C_FLAG_AF))
 80038a8:	421a      	tst	r2, r3
 80038aa:	d044      	beq.n	8003936 <I2C_IsErrorOccurred+0xaa>
    __HAL_I2C_CLEAR_FLAG(hi2c, I2C_FLAG_AF);
 80038ac:	2310      	movs	r3, #16
 80038ae:	61cb      	str	r3, [r1, #28]
  uint32_t error_code = 0;
 80038b0:	2300      	movs	r3, #0
 80038b2:	4699      	mov	r9, r3
  HAL_StatusTypeDef status = HAL_OK;
 80038b4:	2600      	movs	r6, #0
    while ((__HAL_I2C_GET_FLAG(hi2c, I2C_FLAG_STOPF) == RESET) && (status == HAL_OK))
 80038b6:	2720      	movs	r7, #32
 80038b8:	6821      	ldr	r1, [r4, #0]
 80038ba:	698b      	ldr	r3, [r1, #24]
 80038bc:	421f      	tst	r7, r3
 80038be:	d131      	bne.n	8003924 <I2C_IsErrorOccurred+0x98>
 80038c0:	2e00      	cmp	r6, #0
 80038c2:	d133      	bne.n	800392c <I2C_IsErrorOccurred+0xa0>
      if (Timeout != HAL_MAX_DELAY)
 80038c4:	1c6b      	adds	r3, r5, #1
 80038c6:	d0f8      	beq.n	80038ba <I2C_IsErrorOccurred+0x2e>
        if (((HAL_GetTick() - tickstart) > Timeout) || (Timeout == 0U))
 80038c8:	f7fe feb4 	bl	8002634 <HAL_GetTick>
 80038cc:	4643      	mov	r3, r8
 80038ce:	1ac0      	subs	r0, r0, r3
 80038d0:	42a8      	cmp	r0, r5
 80038d2:	d801      	bhi.n	80038d8 <I2C_IsErrorOccurred+0x4c>
 80038d4:	2d00      	cmp	r5, #0
 80038d6:	d1ef      	bne.n	80038b8 <I2C_IsErrorOccurred+0x2c>
          tmp1 = (uint32_t)(hi2c->Instance->CR2 & I2C_CR2_STOP);
 80038d8:	6822      	ldr	r2, [r4, #0]
 80038da:	6850      	ldr	r0, [r2, #4]
          tmp2 = hi2c->Mode;
 80038dc:	2342      	movs	r3, #66	@ 0x42
 80038de:	5ce3      	ldrb	r3, [r4, r3]
 80038e0:	b2db      	uxtb	r3, r3
          if ((__HAL_I2C_GET_FLAG(hi2c, I2C_FLAG_BUSY) != RESET) && \
 80038e2:	6991      	ldr	r1, [r2, #24]
 80038e4:	0409      	lsls	r1, r1, #16
 80038e6:	d503      	bpl.n	80038f0 <I2C_IsErrorOccurred+0x64>
 80038e8:	0440      	lsls	r0, r0, #17
 80038ea:	d401      	bmi.n	80038f0 <I2C_IsErrorOccurred+0x64>
              (tmp1 != I2C_CR2_STOP) && \
 80038ec:	2b20      	cmp	r3, #32
 80038ee:	d110      	bne.n	8003912 <I2C_IsErrorOccurred+0x86>
          while (__HAL_I2C_GET_FLAG(hi2c, I2C_FLAG_STOPF) == RESET)
 80038f0:	2320      	movs	r3, #32
 80038f2:	469a      	mov	sl, r3
 80038f4:	6823      	ldr	r3, [r4, #0]
 80038f6:	699b      	ldr	r3, [r3, #24]
 80038f8:	4652      	mov	r2, sl
 80038fa:	421a      	tst	r2, r3
 80038fc:	d1dc      	bne.n	80038b8 <I2C_IsErrorOccurred+0x2c>
            if ((HAL_GetTick() - tickstart) > I2C_TIMEOUT_STOPF)
 80038fe:	f7fe fe99 	bl	8002634 <HAL_GetTick>
 8003902:	4643      	mov	r3, r8
 8003904:	1ac0      	subs	r0, r0, r3
 8003906:	2819      	cmp	r0, #25
 8003908:	d9f4      	bls.n	80038f4 <I2C_IsErrorOccurred+0x68>
              error_code |= HAL_I2C_ERROR_TIMEOUT;
 800390a:	2320      	movs	r3, #32
 800390c:	4699      	mov	r9, r3
              status = HAL_ERROR;
 800390e:	2601      	movs	r6, #1
 8003910:	e7d2      	b.n	80038b8 <I2C_IsErrorOccurred+0x2c>
            hi2c->Instance->CR2 |= I2C_CR2_STOP;
 8003912:	6851      	ldr	r1, [r2, #4]
 8003914:	2380      	movs	r3, #128	@ 0x80
 8003916:	01db      	lsls	r3, r3, #7
 8003918:	430b      	orrs	r3, r1
 800391a:	6053      	str	r3, [r2, #4]
            tickstart = HAL_GetTick();
 800391c:	f7fe fe8a 	bl	8002634 <HAL_GetTick>
 8003920:	4680      	mov	r8, r0
 8003922:	e7e5      	b.n	80038f0 <I2C_IsErrorOccurred+0x64>
    if (status == HAL_OK)
 8003924:	2e00      	cmp	r6, #0
 8003926:	d101      	bne.n	800392c <I2C_IsErrorOccurred+0xa0>
      __HAL_I2C_CLEAR_FLAG(hi2c, I2C_FLAG_STOPF);
 8003928:	2320      	movs	r3, #32
 800392a:	61cb      	str	r3, [r1, #28]
    error_code |= HAL_I2C_ERROR_AF;
 800392c:	2604      	movs	r6, #4
 800392e:	464b      	mov	r3, r9
 8003930:	4333      	orrs	r3, r6
 8003932:	001e      	movs	r6, r3
    status = HAL_ERROR;
 8003934:	2001      	movs	r0, #1
  itflag = hi2c->Instance->ISR;
 8003936:	6822      	ldr	r2, [r4, #0]
 8003938:	6993      	ldr	r3, [r2, #24]
  if (HAL_IS_BIT_SET(itflag, I2C_FLAG_BERR))
 800393a:	05d9      	lsls	r1, r3, #23
 800393c:	d504      	bpl.n	8003948 <I2C_IsErrorOccurred+0xbc>
    error_code |= HAL_I2C_ERROR_BERR;
 800393e:	2101      	movs	r1, #1
 8003940:	430e      	orrs	r6, r1
    __HAL_I2C_CLEAR_FLAG(hi2c, I2C_FLAG_BERR);
 8003942:	31ff      	adds	r1, #255	@ 0xff
 8003944:	61d1      	str	r1, [r2, #28]
    status = HAL_ERROR;
 8003946:	2001      	movs	r0, #1
  if (HAL_IS_BIT_SET(itflag, I2C_FLAG_OVR))
 8003948:	055a      	lsls	r2, r3, #21
 800394a:	d526      	bpl.n	800399a <I2C_IsErrorOccurred+0x10e>
    error_code |= HAL_I2C_ERROR_OVR;
 800394c:	2208      	movs	r2, #8
 800394e:	4316      	orrs	r6, r2
    __HAL_I2C_CLEAR_FLAG(hi2c, I2C_FLAG_OVR);
 8003950:	6822      	ldr	r2, [r4, #0]
 8003952:	2180      	movs	r1, #128	@ 0x80
 8003954:	00c9      	lsls	r1, r1, #3
 8003956:	61d1      	str	r1, [r2, #28]
  if (HAL_IS_BIT_SET(itflag, I2C_FLAG_ARLO))
 8003958:	059b      	lsls	r3, r3, #22
 800395a:	d505      	bpl.n	8003968 <I2C_IsErrorOccurred+0xdc>
    error_code |= HAL_I2C_ERROR_ARLO;
 800395c:	2302      	movs	r3, #2
 800395e:	431e      	orrs	r6, r3
    __HAL_I2C_CLEAR_FLAG(hi2c, I2C_FLAG_ARLO);
 8003960:	6823      	ldr	r3, [r4, #0]
 8003962:	2280      	movs	r2, #128	@ 0x80
 8003964:	0092      	lsls	r2, r2, #2
 8003966:	61da      	str	r2, [r3, #28]
    I2C_Flush_TXDR(hi2c);
 8003968:	0020      	movs	r0, r4
 800396a:	f7ff ff67 	bl	800383c <I2C_Flush_TXDR>
    I2C_RESET_CR2(hi2c);
 800396e:	6822      	ldr	r2, [r4, #0]
 8003970:	6853      	ldr	r3, [r2, #4]
 8003972:	490c      	ldr	r1, [pc, #48]	@ (80039a4 <I2C_IsErrorOccurred+0x118>)
 8003974:	400b      	ands	r3, r1
 8003976:	6053      	str	r3, [r2, #4]
    hi2c->ErrorCode |= error_code;
 8003978:	6c63      	ldr	r3, [r4, #68]	@ 0x44
 800397a:	4333      	orrs	r3, r6
 800397c:	6463      	str	r3, [r4, #68]	@ 0x44
    hi2c->State = HAL_I2C_STATE_READY;
 800397e:	2341      	movs	r3, #65	@ 0x41
 8003980:	2220      	movs	r2, #32
 8003982:	54e2      	strb	r2, [r4, r3]
    hi2c->Mode = HAL_I2C_MODE_NONE;
 8003984:	2300      	movs	r3, #0
 8003986:	3222      	adds	r2, #34	@ 0x22
 8003988:	54a3      	strb	r3, [r4, r2]
    __HAL_UNLOCK(hi2c);
 800398a:	3a02      	subs	r2, #2
 800398c:	54a3      	strb	r3, [r4, r2]
 800398e:	2001      	movs	r0, #1
}
 8003990:	bce0      	pop	{r5, r6, r7}
 8003992:	46ba      	mov	sl, r7
 8003994:	46b1      	mov	r9, r6
 8003996:	46a8      	mov	r8, r5
 8003998:	bdf0      	pop	{r4, r5, r6, r7, pc}
  if (HAL_IS_BIT_SET(itflag, I2C_FLAG_ARLO))
 800399a:	059b      	lsls	r3, r3, #22
 800399c:	d4de      	bmi.n	800395c <I2C_IsErrorOccurred+0xd0>
  if (status != HAL_OK)
 800399e:	2800      	cmp	r0, #0
 80039a0:	d0f6      	beq.n	8003990 <I2C_IsErrorOccurred+0x104>
 80039a2:	e7e1      	b.n	8003968 <I2C_IsErrorOccurred+0xdc>
 80039a4:	fe00e800 	.word	0xfe00e800

080039a8 <I2C_WaitOnTXISFlagUntilTimeout>:
{
 80039a8:	b5f8      	push	{r3, r4, r5, r6, r7, lr}
 80039aa:	0004      	movs	r4, r0
 80039ac:	000d      	movs	r5, r1
 80039ae:	0016      	movs	r6, r2
  while (__HAL_I2C_GET_FLAG(hi2c, I2C_FLAG_TXIS) == RESET)
 80039b0:	2702      	movs	r7, #2
 80039b2:	6823      	ldr	r3, [r4, #0]
 80039b4:	699b      	ldr	r3, [r3, #24]
 80039b6:	421f      	tst	r7, r3
 80039b8:	d120      	bne.n	80039fc <I2C_WaitOnTXISFlagUntilTimeout+0x54>
    if (I2C_IsErrorOccurred(hi2c, Timeout, Tickstart) != HAL_OK)
 80039ba:	0032      	movs	r2, r6
 80039bc:	0029      	movs	r1, r5
 80039be:	0020      	movs	r0, r4
 80039c0:	f7ff ff64 	bl	800388c <I2C_IsErrorOccurred>
 80039c4:	2800      	cmp	r0, #0
 80039c6:	d11b      	bne.n	8003a00 <I2C_WaitOnTXISFlagUntilTimeout+0x58>
    if (Timeout != HAL_MAX_DELAY)
 80039c8:	1c6b      	adds	r3, r5, #1
 80039ca:	d0f2      	beq.n	80039b2 <I2C_WaitOnTXISFlagUntilTimeout+0xa>
      if (((HAL_GetTick() - Tickstart) > Timeout) || (Timeout == 0U))
 80039cc:	f7fe fe32 	bl	8002634 <HAL_GetTick>
 80039d0:	1b80      	subs	r0, r0, r6
 80039d2:	42a8      	cmp	r0, r5
 80039d4:	d801      	bhi.n	80039da <I2C_WaitOnTXISFlagUntilTimeout+0x32>
 80039d6:	2d00      	cmp	r5, #0
 80039d8:	d1eb      	bne.n	80039b2 <I2C_WaitOnTXISFlagUntilTimeout+0xa>
        if ((__HAL_I2C_GET_FLAG(hi2c, I2C_FLAG_TXIS) == RESET))
 80039da:	6823      	ldr	r3, [r4, #0]
 80039dc:	699b      	ldr	r3, [r3, #24]
 80039de:	079b      	lsls	r3, r3, #30
 80039e0:	d4e7      	bmi.n	80039b2 <I2C_WaitOnTXISFlagUntilTimeout+0xa>
          hi2c->ErrorCode |= HAL_I2C_ERROR_TIMEOUT;
 80039e2:	6c63      	ldr	r3, [r4, #68]	@ 0x44
 80039e4:	2220      	movs	r2, #32
 80039e6:	4313      	orrs	r3, r2
 80039e8:	6463      	str	r3, [r4, #68]	@ 0x44
          hi2c->State = HAL_I2C_STATE_READY;
 80039ea:	2341      	movs	r3, #65	@ 0x41
 80039ec:	54e2      	strb	r2, [r4, r3]
          hi2c->Mode = HAL_I2C_MODE_NONE;
 80039ee:	2300      	movs	r3, #0
 80039f0:	3222      	adds	r2, #34	@ 0x22
 80039f2:	54a3      	strb	r3, [r4, r2]
          __HAL_UNLOCK(hi2c);
 80039f4:	3a02      	subs	r2, #2
 80039f6:	54a3      	strb	r3, [r4, r2]
          return HAL_ERROR;
 80039f8:	2001      	movs	r0, #1
 80039fa:	e000      	b.n	80039fe <I2C_WaitOnTXISFlagUntilTimeout+0x56>
  return HAL_OK;
 80039fc:	2000      	movs	r0, #0
}
 80039fe:	bdf8      	pop	{r3, r4, r5, r6, r7, pc}
      return HAL_ERROR;
 8003a00:	2001      	movs	r0, #1
 8003a02:	e7fc      	b.n	80039fe <I2C_WaitOnTXISFlagUntilTimeout+0x56>

08003a04 <I2C_WaitOnFlagUntilTimeout>:
{
 8003a04:	b5f0      	push	{r4, r5, r6, r7, lr}
 8003a06:	46d6      	mov	lr, sl
 8003a08:	4647      	mov	r7, r8
 8003a0a:	b580      	push	{r7, lr}
 8003a0c:	b083      	sub	sp, #12
 8003a0e:	0007      	movs	r7, r0
 8003a10:	000d      	movs	r5, r1
 8003a12:	0016      	movs	r6, r2
 8003a14:	4698      	mov	r8, r3
 8003a16:	9b0a      	ldr	r3, [sp, #40]	@ 0x28
 8003a18:	469a      	mov	sl, r3
  while (__HAL_I2C_GET_FLAG(hi2c, Flag) == Status)
 8003a1a:	9201      	str	r2, [sp, #4]
 8003a1c:	683b      	ldr	r3, [r7, #0]
 8003a1e:	699c      	ldr	r4, [r3, #24]
 8003a20:	402c      	ands	r4, r5
 8003a22:	1b64      	subs	r4, r4, r5
 8003a24:	4263      	negs	r3, r4
 8003a26:	415c      	adcs	r4, r3
 8003a28:	42b4      	cmp	r4, r6
 8003a2a:	d128      	bne.n	8003a7e <I2C_WaitOnFlagUntilTimeout+0x7a>
    if (I2C_IsErrorOccurred(hi2c, Timeout, Tickstart) != HAL_OK)
 8003a2c:	4652      	mov	r2, sl
 8003a2e:	4641      	mov	r1, r8
 8003a30:	0038      	movs	r0, r7
 8003a32:	f7ff ff2b 	bl	800388c <I2C_IsErrorOccurred>
 8003a36:	2800      	cmp	r0, #0
 8003a38:	d127      	bne.n	8003a8a <I2C_WaitOnFlagUntilTimeout+0x86>
    if (Timeout != HAL_MAX_DELAY)
 8003a3a:	4643      	mov	r3, r8
 8003a3c:	3301      	adds	r3, #1
 8003a3e:	d0ed      	beq.n	8003a1c <I2C_WaitOnFlagUntilTimeout+0x18>
      if (((HAL_GetTick() - Tickstart) > Timeout) || (Timeout == 0U))
 8003a40:	f7fe fdf8 	bl	8002634 <HAL_GetTick>
 8003a44:	4653      	mov	r3, sl
 8003a46:	1ac0      	subs	r0, r0, r3
 8003a48:	4540      	cmp	r0, r8
 8003a4a:	d802      	bhi.n	8003a52 <I2C_WaitOnFlagUntilTimeout+0x4e>
 8003a4c:	4643      	mov	r3, r8
 8003a4e:	2b00      	cmp	r3, #0
 8003a50:	d1e4      	bne.n	8003a1c <I2C_WaitOnFlagUntilTimeout+0x18>
        if ((__HAL_I2C_GET_FLAG(hi2c, Flag) == Status))
 8003a52:	683b      	ldr	r3, [r7, #0]
 8003a54:	699b      	ldr	r3, [r3, #24]
 8003a56:	402b      	ands	r3, r5
 8003a58:	1b5b      	subs	r3, r3, r5
 8003a5a:	425a      	negs	r2, r3
 8003a5c:	4153      	adcs	r3, r2
 8003a5e:	9a01      	ldr	r2, [sp, #4]
 8003a60:	4293      	cmp	r3, r2
 8003a62:	d1db      	bne.n	8003a1c <I2C_WaitOnFlagUntilTimeout+0x18>
          hi2c->ErrorCode |= HAL_I2C_ERROR_TIMEOUT;
 8003a64:	6c7b      	ldr	r3, [r7, #68]	@ 0x44
 8003a66:	2220      	movs	r2, #32
 8003a68:	4313      	orrs	r3, r2
 8003a6a:	647b      	str	r3, [r7, #68]	@ 0x44
          hi2c->State = HAL_I2C_STATE_READY;
 8003a6c:	2341      	movs	r3, #65	@ 0x41
 8003a6e:	54fa      	strb	r2, [r7, r3]
          hi2c->Mode = HAL_I2C_MODE_NONE;
 8003a70:	2300      	movs	r3, #0
 8003a72:	3222      	adds	r2, #34	@ 0x22
 8003a74:	54bb      	strb	r3, [r7, r2]
          __HAL_UNLOCK(hi2c);
 8003a76:	3a02      	subs	r2, #2
 8003a78:	54bb      	strb	r3, [r7, r2]
          return HAL_ERROR;
 8003a7a:	2001      	movs	r0, #1
 8003a7c:	e000      	b.n	8003a80 <I2C_WaitOnFlagUntilTimeout+0x7c>
  return HAL_OK;
 8003a7e:	2000      	movs	r0, #0
}
 8003a80:	b003      	add	sp, #12
 8003a82:	bcc0      	pop	{r6, r7}
 8003a84:	46ba      	mov	sl, r7
 8003a86:	46b0      	mov	r8, r6
 8003a88:	bdf0      	pop	{r4, r5, r6, r7, pc}
      return HAL_ERROR;
 8003a8a:	2001      	movs	r0, #1
 8003a8c:	e7f8      	b.n	8003a80 <I2C_WaitOnFlagUntilTimeout+0x7c>

08003a8e <I2C_WaitOnSTOPFlagUntilTimeout>:
{
 8003a8e:	b5f0      	push	{r4, r5, r6, r7, lr}
 8003a90:	46c6      	mov	lr, r8
 8003a92:	b500      	push	{lr}
 8003a94:	0005      	movs	r5, r0
 8003a96:	000e      	movs	r6, r1
 8003a98:	0017      	movs	r7, r2
  while (__HAL_I2C_GET_FLAG(hi2c, I2C_FLAG_STOPF) == RESET)
 8003a9a:	6803      	ldr	r3, [r0, #0]
 8003a9c:	699b      	ldr	r3, [r3, #24]
 8003a9e:	069b      	lsls	r3, r3, #26
 8003aa0:	d428      	bmi.n	8003af4 <I2C_WaitOnSTOPFlagUntilTimeout+0x66>
      if ((__HAL_I2C_GET_FLAG(hi2c, I2C_FLAG_STOPF) == RESET))
 8003aa2:	2320      	movs	r3, #32
 8003aa4:	4698      	mov	r8, r3
 8003aa6:	e009      	b.n	8003abc <I2C_WaitOnSTOPFlagUntilTimeout+0x2e>
 8003aa8:	682b      	ldr	r3, [r5, #0]
 8003aaa:	699b      	ldr	r3, [r3, #24]
 8003aac:	4642      	mov	r2, r8
 8003aae:	421a      	tst	r2, r3
 8003ab0:	d013      	beq.n	8003ada <I2C_WaitOnSTOPFlagUntilTimeout+0x4c>
  while (__HAL_I2C_GET_FLAG(hi2c, I2C_FLAG_STOPF) == RESET)
 8003ab2:	682b      	ldr	r3, [r5, #0]
 8003ab4:	699b      	ldr	r3, [r3, #24]
 8003ab6:	4642      	mov	r2, r8
 8003ab8:	421a      	tst	r2, r3
 8003aba:	d11e      	bne.n	8003afa <I2C_WaitOnSTOPFlagUntilTimeout+0x6c>
    if (I2C_IsErrorOccurred(hi2c, Timeout, Tickstart) != HAL_OK)
 8003abc:	003a      	movs	r2, r7
 8003abe:	0031      	movs	r1, r6
 8003ac0:	0028      	movs	r0, r5
 8003ac2:	f7ff fee3 	bl	800388c <I2C_IsErrorOccurred>
 8003ac6:	1e04      	subs	r4, r0, #0
 8003ac8:	d116      	bne.n	8003af8 <I2C_WaitOnSTOPFlagUntilTimeout+0x6a>
    if (((HAL_GetTick() - Tickstart) > Timeout) || (Timeout == 0U))
 8003aca:	f7fe fdb3 	bl	8002634 <HAL_GetTick>
 8003ace:	1bc0      	subs	r0, r0, r7
 8003ad0:	42b0      	cmp	r0, r6
 8003ad2:	d8e9      	bhi.n	8003aa8 <I2C_WaitOnSTOPFlagUntilTimeout+0x1a>
 8003ad4:	2e00      	cmp	r6, #0
 8003ad6:	d1ec      	bne.n	8003ab2 <I2C_WaitOnSTOPFlagUntilTimeout+0x24>
 8003ad8:	e7e6      	b.n	8003aa8 <I2C_WaitOnSTOPFlagUntilTimeout+0x1a>
        hi2c->ErrorCode |= HAL_I2C_ERROR_TIMEOUT;
 8003ada:	6c6b      	ldr	r3, [r5, #68]	@ 0x44
 8003adc:	2220      	movs	r2, #32
 8003ade:	4313      	orrs	r3, r2
 8003ae0:	646b      	str	r3, [r5, #68]	@ 0x44
        hi2c->State = HAL_I2C_STATE_READY;
 8003ae2:	2341      	movs	r3, #65	@ 0x41
 8003ae4:	54ea      	strb	r2, [r5, r3]
        hi2c->Mode = HAL_I2C_MODE_NONE;
 8003ae6:	2300      	movs	r3, #0
 8003ae8:	3222      	adds	r2, #34	@ 0x22
 8003aea:	54ab      	strb	r3, [r5, r2]
        __HAL_UNLOCK(hi2c);
 8003aec:	3a02      	subs	r2, #2
 8003aee:	54ab      	strb	r3, [r5, r2]
        return HAL_ERROR;
 8003af0:	2401      	movs	r4, #1
 8003af2:	e002      	b.n	8003afa <I2C_WaitOnSTOPFlagUntilTimeout+0x6c>
  return HAL_OK;
 8003af4:	2400      	movs	r4, #0
 8003af6:	e000      	b.n	8003afa <I2C_WaitOnSTOPFlagUntilTimeout+0x6c>
      return HAL_ERROR;
 8003af8:	2401      	movs	r4, #1
}
 8003afa:	0020      	movs	r0, r4
 8003afc:	bc80      	pop	{r7}
 8003afe:	46b8      	mov	r8, r7
 8003b00:	bdf0      	pop	{r4, r5, r6, r7, pc}
	...

08003b04 <HAL_I2C_Init>:
{
 8003b04:	b510      	push	{r4, lr}
 8003b06:	1e04      	subs	r4, r0, #0
  if (hi2c == NULL)
 8003b08:	d060      	beq.n	8003bcc <HAL_I2C_Init+0xc8>
  if (hi2c->State == HAL_I2C_STATE_RESET)
 8003b0a:	2341      	movs	r3, #65	@ 0x41
 8003b0c:	5cc3      	ldrb	r3, [r0, r3]
 8003b0e:	2b00      	cmp	r3, #0
 8003b10:	d048      	beq.n	8003ba4 <HAL_I2C_Init+0xa0>
  hi2c->State = HAL_I2C_STATE_BUSY;
 8003b12:	2341      	movs	r3, #65	@ 0x41
 8003b14:	2224      	movs	r2, #36	@ 0x24
 8003b16:	54e2      	strb	r2, [r4, r3]
  __HAL_I2C_DISABLE(hi2c);
 8003b18:	6822      	ldr	r2, [r4, #0]
 8003b1a:	6813      	ldr	r3, [r2, #0]
 8003b1c:	2101      	movs	r1, #1
 8003b1e:	438b      	bics	r3, r1
 8003b20:	6013      	str	r3, [r2, #0]
  hi2c->Instance->TIMINGR = hi2c->Init.Timing & TIMING_CLEAR_MASK;
 8003b22:	6822      	ldr	r2, [r4, #0]
 8003b24:	6863      	ldr	r3, [r4, #4]
 8003b26:	492a      	ldr	r1, [pc, #168]	@ (8003bd0 <HAL_I2C_Init+0xcc>)
 8003b28:	400b      	ands	r3, r1
 8003b2a:	6113      	str	r3, [r2, #16]
  hi2c->Instance->OAR1 &= ~I2C_OAR1_OA1EN;
 8003b2c:	6822      	ldr	r2, [r4, #0]
 8003b2e:	6893      	ldr	r3, [r2, #8]
 8003b30:	4928      	ldr	r1, [pc, #160]	@ (8003bd4 <HAL_I2C_Init+0xd0>)
 8003b32:	400b      	ands	r3, r1
 8003b34:	6093      	str	r3, [r2, #8]
  if (hi2c->Init.AddressingMode == I2C_ADDRESSINGMODE_7BIT)
 8003b36:	68e3      	ldr	r3, [r4, #12]
 8003b38:	2b01      	cmp	r3, #1
 8003b3a:	d039      	beq.n	8003bb0 <HAL_I2C_Init+0xac>
    hi2c->Instance->OAR1 = (I2C_OAR1_OA1EN | I2C_OAR1_OA1MODE | hi2c->Init.OwnAddress1);
 8003b3c:	6822      	ldr	r2, [r4, #0]
 8003b3e:	68a1      	ldr	r1, [r4, #8]
 8003b40:	2384      	movs	r3, #132	@ 0x84
 8003b42:	021b      	lsls	r3, r3, #8
 8003b44:	430b      	orrs	r3, r1
 8003b46:	6093      	str	r3, [r2, #8]
  if (hi2c->Init.AddressingMode == I2C_ADDRESSINGMODE_10BIT)
 8003b48:	68e3      	ldr	r3, [r4, #12]
 8003b4a:	2b02      	cmp	r3, #2
 8003b4c:	d037      	beq.n	8003bbe <HAL_I2C_Init+0xba>
    CLEAR_BIT(hi2c->Instance->CR2, I2C_CR2_ADD10);
 8003b4e:	6822      	ldr	r2, [r4, #0]
 8003b50:	6853      	ldr	r3, [r2, #4]
 8003b52:	4921      	ldr	r1, [pc, #132]	@ (8003bd8 <HAL_I2C_Init+0xd4>)
 8003b54:	400b      	ands	r3, r1
 8003b56:	6053      	str	r3, [r2, #4]
  hi2c->Instance->CR2 |= (I2C_CR2_AUTOEND | I2C_CR2_NACK);
 8003b58:	6822      	ldr	r2, [r4, #0]
 8003b5a:	6851      	ldr	r1, [r2, #4]
 8003b5c:	4b1f      	ldr	r3, [pc, #124]	@ (8003bdc <HAL_I2C_Init+0xd8>)
 8003b5e:	430b      	orrs	r3, r1
 8003b60:	6053      	str	r3, [r2, #4]
  hi2c->Instance->OAR2 &= ~I2C_DUALADDRESS_ENABLE;
 8003b62:	6822      	ldr	r2, [r4, #0]
 8003b64:	68d3      	ldr	r3, [r2, #12]
 8003b66:	491b      	ldr	r1, [pc, #108]	@ (8003bd4 <HAL_I2C_Init+0xd0>)
 8003b68:	400b      	ands	r3, r1
 8003b6a:	60d3      	str	r3, [r2, #12]
  hi2c->Instance->OAR2 = (hi2c->Init.DualAddressMode | hi2c->Init.OwnAddress2 | \
 8003b6c:	6821      	ldr	r1, [r4, #0]
 8003b6e:	6923      	ldr	r3, [r4, #16]
 8003b70:	6962      	ldr	r2, [r4, #20]
 8003b72:	4313      	orrs	r3, r2
                          (hi2c->Init.OwnAddress2Masks << 8));
 8003b74:	69a2      	ldr	r2, [r4, #24]
 8003b76:	0212      	lsls	r2, r2, #8
  hi2c->Instance->OAR2 = (hi2c->Init.DualAddressMode | hi2c->Init.OwnAddress2 | \
 8003b78:	4313      	orrs	r3, r2
 8003b7a:	60cb      	str	r3, [r1, #12]
  hi2c->Instance->CR1 = (hi2c->Init.GeneralCallMode | hi2c->Init.NoStretchMode);
 8003b7c:	6822      	ldr	r2, [r4, #0]
 8003b7e:	69e3      	ldr	r3, [r4, #28]
 8003b80:	6a21      	ldr	r1, [r4, #32]
 8003b82:	430b      	orrs	r3, r1
 8003b84:	6013      	str	r3, [r2, #0]
  __HAL_I2C_ENABLE(hi2c);
 8003b86:	6822      	ldr	r2, [r4, #0]
 8003b88:	6813      	ldr	r3, [r2, #0]
 8003b8a:	2101      	movs	r1, #1
 8003b8c:	430b      	orrs	r3, r1
 8003b8e:	6013      	str	r3, [r2, #0]
  hi2c->ErrorCode = HAL_I2C_ERROR_NONE;
 8003b90:	2300      	movs	r3, #0
 8003b92:	6463      	str	r3, [r4, #68]	@ 0x44
  hi2c->State = HAL_I2C_STATE_READY;
 8003b94:	2241      	movs	r2, #65	@ 0x41
 8003b96:	311f      	adds	r1, #31
 8003b98:	54a1      	strb	r1, [r4, r2]
  hi2c->PreviousState = I2C_STATE_NONE;
 8003b9a:	6323      	str	r3, [r4, #48]	@ 0x30
  hi2c->Mode = HAL_I2C_MODE_NONE;
 8003b9c:	3201      	adds	r2, #1
 8003b9e:	54a3      	strb	r3, [r4, r2]
  return HAL_OK;
 8003ba0:	2000      	movs	r0, #0
}
 8003ba2:	bd10      	pop	{r4, pc}
    hi2c->Lock = HAL_UNLOCKED;
 8003ba4:	3340      	adds	r3, #64	@ 0x40
 8003ba6:	2200      	movs	r2, #0
 8003ba8:	54c2      	strb	r2, [r0, r3]
    HAL_I2C_MspInit(hi2c);
 8003baa:	f7fe fbbb 	bl	8002324 <HAL_I2C_MspInit>
 8003bae:	e7b0      	b.n	8003b12 <HAL_I2C_Init+0xe>
    hi2c->Instance->OAR1 = (I2C_OAR1_OA1EN | hi2c->Init.OwnAddress1);
 8003bb0:	6822      	ldr	r2, [r4, #0]
 8003bb2:	68a1      	ldr	r1, [r4, #8]
 8003bb4:	2380      	movs	r3, #128	@ 0x80
 8003bb6:	021b      	lsls	r3, r3, #8
 8003bb8:	430b      	orrs	r3, r1
 8003bba:	6093      	str	r3, [r2, #8]
 8003bbc:	e7c4      	b.n	8003b48 <HAL_I2C_Init+0x44>
    SET_BIT(hi2c->Instance->CR2, I2C_CR2_ADD10);
 8003bbe:	6822      	ldr	r2, [r4, #0]
 8003bc0:	6851      	ldr	r1, [r2, #4]
 8003bc2:	2380      	movs	r3, #128	@ 0x80
 8003bc4:	011b      	lsls	r3, r3, #4
 8003bc6:	430b      	orrs	r3, r1
 8003bc8:	6053      	str	r3, [r2, #4]
 8003bca:	e7c5      	b.n	8003b58 <HAL_I2C_Init+0x54>
    return HAL_ERROR;
 8003bcc:	2001      	movs	r0, #1
 8003bce:	e7e8      	b.n	8003ba2 <HAL_I2C_Init+0x9e>
 8003bd0:	f0ffffff 	.word	0xf0ffffff
 8003bd4:	ffff7fff 	.word	0xffff7fff
 8003bd8:	fffff7ff 	.word	0xfffff7ff
 8003bdc:	02008000 	.word	0x02008000

08003be0 <HAL_I2C_Mem_Write>:
{
 8003be0:	b5f0      	push	{r4, r5, r6, r7, lr}
 8003be2:	b087      	sub	sp, #28
 8003be4:	0004      	movs	r4, r0
 8003be6:	9103      	str	r1, [sp, #12]
 8003be8:	9205      	str	r2, [sp, #20]
 8003bea:	9304      	str	r3, [sp, #16]
 8003bec:	ab0c      	add	r3, sp, #48	@ 0x30
 8003bee:	cb20      	ldmia	r3!, {r5}
 8003bf0:	881e      	ldrh	r6, [r3, #0]
  if (hi2c->State == HAL_I2C_STATE_READY)
 8003bf2:	2341      	movs	r3, #65	@ 0x41
 8003bf4:	5cc3      	ldrb	r3, [r0, r3]
 8003bf6:	2b20      	cmp	r3, #32
 8003bf8:	d000      	beq.n	8003bfc <HAL_I2C_Mem_Write+0x1c>
 8003bfa:	e0d8      	b.n	8003dae <HAL_I2C_Mem_Write+0x1ce>
    if ((pData == NULL) || (Size == 0U))
 8003bfc:	2d00      	cmp	r5, #0
 8003bfe:	d054      	beq.n	8003caa <HAL_I2C_Mem_Write+0xca>
 8003c00:	2e00      	cmp	r6, #0
 8003c02:	d052      	beq.n	8003caa <HAL_I2C_Mem_Write+0xca>
    __HAL_LOCK(hi2c);
 8003c04:	2340      	movs	r3, #64	@ 0x40
 8003c06:	5cc3      	ldrb	r3, [r0, r3]
 8003c08:	2b01      	cmp	r3, #1
 8003c0a:	d100      	bne.n	8003c0e <HAL_I2C_Mem_Write+0x2e>
 8003c0c:	e0d2      	b.n	8003db4 <HAL_I2C_Mem_Write+0x1d4>
 8003c0e:	2340      	movs	r3, #64	@ 0x40
 8003c10:	2201      	movs	r2, #1
 8003c12:	54c2      	strb	r2, [r0, r3]
    tickstart = HAL_GetTick();
 8003c14:	f7fe fd0e 	bl	8002634 <HAL_GetTick>
 8003c18:	0007      	movs	r7, r0
    if (I2C_WaitOnFlagUntilTimeout(hi2c, I2C_FLAG_BUSY, SET, I2C_TIMEOUT_BUSY, tickstart) != HAL_OK)
 8003c1a:	2180      	movs	r1, #128	@ 0x80
 8003c1c:	9000      	str	r0, [sp, #0]
 8003c1e:	2319      	movs	r3, #25
 8003c20:	2201      	movs	r2, #1
 8003c22:	0209      	lsls	r1, r1, #8
 8003c24:	0020      	movs	r0, r4
 8003c26:	f7ff feed 	bl	8003a04 <I2C_WaitOnFlagUntilTimeout>
 8003c2a:	0003      	movs	r3, r0
      return HAL_ERROR;
 8003c2c:	2001      	movs	r0, #1
    if (I2C_WaitOnFlagUntilTimeout(hi2c, I2C_FLAG_BUSY, SET, I2C_TIMEOUT_BUSY, tickstart) != HAL_OK)
 8003c2e:	2b00      	cmp	r3, #0
 8003c30:	d000      	beq.n	8003c34 <HAL_I2C_Mem_Write+0x54>
 8003c32:	e0bd      	b.n	8003db0 <HAL_I2C_Mem_Write+0x1d0>
    hi2c->State     = HAL_I2C_STATE_BUSY_TX;
 8003c34:	3341      	adds	r3, #65	@ 0x41
 8003c36:	2221      	movs	r2, #33	@ 0x21
 8003c38:	54e2      	strb	r2, [r4, r3]
    hi2c->Mode      = HAL_I2C_MODE_MEM;
 8003c3a:	3301      	adds	r3, #1
 8003c3c:	321f      	adds	r2, #31
 8003c3e:	54e2      	strb	r2, [r4, r3]
    hi2c->ErrorCode = HAL_I2C_ERROR_NONE;
 8003c40:	2300      	movs	r3, #0
 8003c42:	6463      	str	r3, [r4, #68]	@ 0x44
    hi2c->pBuffPtr  = pData;
 8003c44:	6265      	str	r5, [r4, #36]	@ 0x24
    hi2c->XferCount = Size;
 8003c46:	8566      	strh	r6, [r4, #42]	@ 0x2a
    hi2c->XferISR   = NULL;
 8003c48:	6363      	str	r3, [r4, #52]	@ 0x34
  I2C_TransferConfig(hi2c, DevAddress, (uint8_t)MemAddSize, I2C_RELOAD_MODE, I2C_GENERATE_START_WRITE);
 8003c4a:	3380      	adds	r3, #128	@ 0x80
 8003c4c:	9d04      	ldr	r5, [sp, #16]
 8003c4e:	b2ea      	uxtb	r2, r5
 8003c50:	495c      	ldr	r1, [pc, #368]	@ (8003dc4 <HAL_I2C_Mem_Write+0x1e4>)
 8003c52:	9100      	str	r1, [sp, #0]
 8003c54:	045b      	lsls	r3, r3, #17
 8003c56:	9903      	ldr	r1, [sp, #12]
 8003c58:	0020      	movs	r0, r4
 8003c5a:	f7ff fdff 	bl	800385c <I2C_TransferConfig>
  if (I2C_WaitOnTXISFlagUntilTimeout(hi2c, Timeout, Tickstart) != HAL_OK)
 8003c5e:	003a      	movs	r2, r7
 8003c60:	990e      	ldr	r1, [sp, #56]	@ 0x38
 8003c62:	0020      	movs	r0, r4
 8003c64:	f7ff fea0 	bl	80039a8 <I2C_WaitOnTXISFlagUntilTimeout>
 8003c68:	2800      	cmp	r0, #0
 8003c6a:	d132      	bne.n	8003cd2 <HAL_I2C_Mem_Write+0xf2>
  if (MemAddSize == I2C_MEMADD_SIZE_8BIT)
 8003c6c:	2d01      	cmp	r5, #1
 8003c6e:	d121      	bne.n	8003cb4 <HAL_I2C_Mem_Write+0xd4>
    hi2c->Instance->TXDR = I2C_MEM_ADD_LSB(MemAddress);
 8003c70:	6823      	ldr	r3, [r4, #0]
 8003c72:	466a      	mov	r2, sp
 8003c74:	7d16      	ldrb	r6, [r2, #20]
 8003c76:	629e      	str	r6, [r3, #40]	@ 0x28
  if (I2C_WaitOnFlagUntilTimeout(hi2c, I2C_FLAG_TCR, RESET, Timeout, Tickstart) != HAL_OK)
 8003c78:	9700      	str	r7, [sp, #0]
 8003c7a:	9b0e      	ldr	r3, [sp, #56]	@ 0x38
 8003c7c:	2200      	movs	r2, #0
 8003c7e:	2180      	movs	r1, #128	@ 0x80
 8003c80:	0020      	movs	r0, r4
 8003c82:	f7ff febf 	bl	8003a04 <I2C_WaitOnFlagUntilTimeout>
    if (I2C_RequestMemoryWrite(hi2c, DevAddress, MemAddress, MemAddSize, Timeout, tickstart) != HAL_OK)
 8003c86:	2800      	cmp	r0, #0
 8003c88:	d123      	bne.n	8003cd2 <HAL_I2C_Mem_Write+0xf2>
    if (hi2c->XferCount > MAX_NBYTE_SIZE)
 8003c8a:	8d63      	ldrh	r3, [r4, #42]	@ 0x2a
 8003c8c:	b29b      	uxth	r3, r3
 8003c8e:	2bff      	cmp	r3, #255	@ 0xff
 8003c90:	d924      	bls.n	8003cdc <HAL_I2C_Mem_Write+0xfc>
      hi2c->XferSize = MAX_NBYTE_SIZE;
 8003c92:	23ff      	movs	r3, #255	@ 0xff
 8003c94:	8523      	strh	r3, [r4, #40]	@ 0x28
      I2C_TransferConfig(hi2c, DevAddress, (uint8_t)hi2c->XferSize, I2C_RELOAD_MODE, I2C_NO_STARTSTOP);
 8003c96:	3b7f      	subs	r3, #127	@ 0x7f
 8003c98:	2200      	movs	r2, #0
 8003c9a:	9200      	str	r2, [sp, #0]
 8003c9c:	045b      	lsls	r3, r3, #17
 8003c9e:	32ff      	adds	r2, #255	@ 0xff
 8003ca0:	9903      	ldr	r1, [sp, #12]
 8003ca2:	0020      	movs	r0, r4
 8003ca4:	f7ff fdda 	bl	800385c <I2C_TransferConfig>
 8003ca8:	e035      	b.n	8003d16 <HAL_I2C_Mem_Write+0x136>
      hi2c->ErrorCode = HAL_I2C_ERROR_INVALID_PARAM;
 8003caa:	2380      	movs	r3, #128	@ 0x80
 8003cac:	009b      	lsls	r3, r3, #2
 8003cae:	6463      	str	r3, [r4, #68]	@ 0x44
      return  HAL_ERROR;
 8003cb0:	2001      	movs	r0, #1
 8003cb2:	e07d      	b.n	8003db0 <HAL_I2C_Mem_Write+0x1d0>
    hi2c->Instance->TXDR = I2C_MEM_ADD_MSB(MemAddress);
 8003cb4:	6823      	ldr	r3, [r4, #0]
 8003cb6:	9d05      	ldr	r5, [sp, #20]
 8003cb8:	0a2a      	lsrs	r2, r5, #8
 8003cba:	629a      	str	r2, [r3, #40]	@ 0x28
    if (I2C_WaitOnTXISFlagUntilTimeout(hi2c, Timeout, Tickstart) != HAL_OK)
 8003cbc:	003a      	movs	r2, r7
 8003cbe:	990e      	ldr	r1, [sp, #56]	@ 0x38
 8003cc0:	0020      	movs	r0, r4
 8003cc2:	f7ff fe71 	bl	80039a8 <I2C_WaitOnTXISFlagUntilTimeout>
 8003cc6:	2800      	cmp	r0, #0
 8003cc8:	d103      	bne.n	8003cd2 <HAL_I2C_Mem_Write+0xf2>
    hi2c->Instance->TXDR = I2C_MEM_ADD_LSB(MemAddress);
 8003cca:	6823      	ldr	r3, [r4, #0]
 8003ccc:	b2ee      	uxtb	r6, r5
 8003cce:	629e      	str	r6, [r3, #40]	@ 0x28
 8003cd0:	e7d2      	b.n	8003c78 <HAL_I2C_Mem_Write+0x98>
      __HAL_UNLOCK(hi2c);
 8003cd2:	2340      	movs	r3, #64	@ 0x40
 8003cd4:	2200      	movs	r2, #0
 8003cd6:	54e2      	strb	r2, [r4, r3]
      return HAL_ERROR;
 8003cd8:	2001      	movs	r0, #1
 8003cda:	e069      	b.n	8003db0 <HAL_I2C_Mem_Write+0x1d0>
      hi2c->XferSize = hi2c->XferCount;
 8003cdc:	8d62      	ldrh	r2, [r4, #42]	@ 0x2a
 8003cde:	b292      	uxth	r2, r2
 8003ce0:	8522      	strh	r2, [r4, #40]	@ 0x28
      I2C_TransferConfig(hi2c, DevAddress, (uint8_t)hi2c->XferSize, I2C_AUTOEND_MODE, I2C_NO_STARTSTOP);
 8003ce2:	2380      	movs	r3, #128	@ 0x80
 8003ce4:	b2d2      	uxtb	r2, r2
 8003ce6:	2100      	movs	r1, #0
 8003ce8:	9100      	str	r1, [sp, #0]
 8003cea:	049b      	lsls	r3, r3, #18
 8003cec:	9903      	ldr	r1, [sp, #12]
 8003cee:	0020      	movs	r0, r4
 8003cf0:	f7ff fdb4 	bl	800385c <I2C_TransferConfig>
 8003cf4:	e00f      	b.n	8003d16 <HAL_I2C_Mem_Write+0x136>
          hi2c->XferSize = hi2c->XferCount;
 8003cf6:	8d62      	ldrh	r2, [r4, #42]	@ 0x2a
 8003cf8:	b292      	uxth	r2, r2
 8003cfa:	8522      	strh	r2, [r4, #40]	@ 0x28
          I2C_TransferConfig(hi2c, DevAddress, (uint8_t)hi2c->XferSize, I2C_AUTOEND_MODE,
 8003cfc:	2380      	movs	r3, #128	@ 0x80
 8003cfe:	b2d2      	uxtb	r2, r2
 8003d00:	2100      	movs	r1, #0
 8003d02:	9100      	str	r1, [sp, #0]
 8003d04:	049b      	lsls	r3, r3, #18
 8003d06:	9903      	ldr	r1, [sp, #12]
 8003d08:	0020      	movs	r0, r4
 8003d0a:	f7ff fda7 	bl	800385c <I2C_TransferConfig>
    } while (hi2c->XferCount > 0U);
 8003d0e:	8d63      	ldrh	r3, [r4, #42]	@ 0x2a
 8003d10:	b29b      	uxth	r3, r3
 8003d12:	2b00      	cmp	r3, #0
 8003d14:	d034      	beq.n	8003d80 <HAL_I2C_Mem_Write+0x1a0>
      if (I2C_WaitOnTXISFlagUntilTimeout(hi2c, Timeout, tickstart) != HAL_OK)
 8003d16:	003a      	movs	r2, r7
 8003d18:	990e      	ldr	r1, [sp, #56]	@ 0x38
 8003d1a:	0020      	movs	r0, r4
 8003d1c:	f7ff fe44 	bl	80039a8 <I2C_WaitOnTXISFlagUntilTimeout>
 8003d20:	2800      	cmp	r0, #0
 8003d22:	d149      	bne.n	8003db8 <HAL_I2C_Mem_Write+0x1d8>
      hi2c->Instance->TXDR = *hi2c->pBuffPtr;
 8003d24:	6823      	ldr	r3, [r4, #0]
 8003d26:	6a62      	ldr	r2, [r4, #36]	@ 0x24
 8003d28:	7812      	ldrb	r2, [r2, #0]
 8003d2a:	629a      	str	r2, [r3, #40]	@ 0x28
      hi2c->pBuffPtr++;
 8003d2c:	6a63      	ldr	r3, [r4, #36]	@ 0x24
 8003d2e:	3301      	adds	r3, #1
 8003d30:	6263      	str	r3, [r4, #36]	@ 0x24
      hi2c->XferCount--;
 8003d32:	8d63      	ldrh	r3, [r4, #42]	@ 0x2a
 8003d34:	3b01      	subs	r3, #1
 8003d36:	b29b      	uxth	r3, r3
 8003d38:	8563      	strh	r3, [r4, #42]	@ 0x2a
      hi2c->XferSize--;
 8003d3a:	8d23      	ldrh	r3, [r4, #40]	@ 0x28
 8003d3c:	3b01      	subs	r3, #1
 8003d3e:	b29b      	uxth	r3, r3
 8003d40:	8523      	strh	r3, [r4, #40]	@ 0x28
      if ((hi2c->XferCount != 0U) && (hi2c->XferSize == 0U))
 8003d42:	8d62      	ldrh	r2, [r4, #42]	@ 0x2a
 8003d44:	b292      	uxth	r2, r2
 8003d46:	2a00      	cmp	r2, #0
 8003d48:	d0e1      	beq.n	8003d0e <HAL_I2C_Mem_Write+0x12e>
 8003d4a:	2b00      	cmp	r3, #0
 8003d4c:	d1df      	bne.n	8003d0e <HAL_I2C_Mem_Write+0x12e>
        if (I2C_WaitOnFlagUntilTimeout(hi2c, I2C_FLAG_TCR, RESET, Timeout, tickstart) != HAL_OK)
 8003d4e:	9700      	str	r7, [sp, #0]
 8003d50:	9b0e      	ldr	r3, [sp, #56]	@ 0x38
 8003d52:	2200      	movs	r2, #0
 8003d54:	2180      	movs	r1, #128	@ 0x80
 8003d56:	0020      	movs	r0, r4
 8003d58:	f7ff fe54 	bl	8003a04 <I2C_WaitOnFlagUntilTimeout>
 8003d5c:	2800      	cmp	r0, #0
 8003d5e:	d12d      	bne.n	8003dbc <HAL_I2C_Mem_Write+0x1dc>
        if (hi2c->XferCount > MAX_NBYTE_SIZE)
 8003d60:	8d63      	ldrh	r3, [r4, #42]	@ 0x2a
 8003d62:	b29b      	uxth	r3, r3
 8003d64:	2bff      	cmp	r3, #255	@ 0xff
 8003d66:	d9c6      	bls.n	8003cf6 <HAL_I2C_Mem_Write+0x116>
          hi2c->XferSize = MAX_NBYTE_SIZE;
 8003d68:	23ff      	movs	r3, #255	@ 0xff
 8003d6a:	8523      	strh	r3, [r4, #40]	@ 0x28
          I2C_TransferConfig(hi2c, DevAddress, (uint8_t)hi2c->XferSize, I2C_RELOAD_MODE,
 8003d6c:	3b7f      	subs	r3, #127	@ 0x7f
 8003d6e:	2200      	movs	r2, #0
 8003d70:	9200      	str	r2, [sp, #0]
 8003d72:	045b      	lsls	r3, r3, #17
 8003d74:	32ff      	adds	r2, #255	@ 0xff
 8003d76:	9903      	ldr	r1, [sp, #12]
 8003d78:	0020      	movs	r0, r4
 8003d7a:	f7ff fd6f 	bl	800385c <I2C_TransferConfig>
 8003d7e:	e7c6      	b.n	8003d0e <HAL_I2C_Mem_Write+0x12e>
    if (I2C_WaitOnSTOPFlagUntilTimeout(hi2c, Timeout, tickstart) != HAL_OK)
 8003d80:	003a      	movs	r2, r7
 8003d82:	990e      	ldr	r1, [sp, #56]	@ 0x38
 8003d84:	0020      	movs	r0, r4
 8003d86:	f7ff fe82 	bl	8003a8e <I2C_WaitOnSTOPFlagUntilTimeout>
 8003d8a:	2800      	cmp	r0, #0
 8003d8c:	d118      	bne.n	8003dc0 <HAL_I2C_Mem_Write+0x1e0>
    __HAL_I2C_CLEAR_FLAG(hi2c, I2C_FLAG_STOPF);
 8003d8e:	6823      	ldr	r3, [r4, #0]
 8003d90:	2220      	movs	r2, #32
 8003d92:	61da      	str	r2, [r3, #28]
    I2C_RESET_CR2(hi2c);
 8003d94:	6821      	ldr	r1, [r4, #0]
 8003d96:	684b      	ldr	r3, [r1, #4]
 8003d98:	4d0b      	ldr	r5, [pc, #44]	@ (8003dc8 <HAL_I2C_Mem_Write+0x1e8>)
 8003d9a:	402b      	ands	r3, r5
 8003d9c:	604b      	str	r3, [r1, #4]
    hi2c->State = HAL_I2C_STATE_READY;
 8003d9e:	2341      	movs	r3, #65	@ 0x41
 8003da0:	54e2      	strb	r2, [r4, r3]
    hi2c->Mode  = HAL_I2C_MODE_NONE;
 8003da2:	2300      	movs	r3, #0
 8003da4:	3222      	adds	r2, #34	@ 0x22
 8003da6:	54a3      	strb	r3, [r4, r2]
    __HAL_UNLOCK(hi2c);
 8003da8:	3a02      	subs	r2, #2
 8003daa:	54a3      	strb	r3, [r4, r2]
    return HAL_OK;
 8003dac:	e000      	b.n	8003db0 <HAL_I2C_Mem_Write+0x1d0>
    return HAL_BUSY;
 8003dae:	2002      	movs	r0, #2
}
 8003db0:	b007      	add	sp, #28
 8003db2:	bdf0      	pop	{r4, r5, r6, r7, pc}
    __HAL_LOCK(hi2c);
 8003db4:	2002      	movs	r0, #2
 8003db6:	e7fb      	b.n	8003db0 <HAL_I2C_Mem_Write+0x1d0>
        return HAL_ERROR;
 8003db8:	2001      	movs	r0, #1
 8003dba:	e7f9      	b.n	8003db0 <HAL_I2C_Mem_Write+0x1d0>
          return HAL_ERROR;
 8003dbc:	2001      	movs	r0, #1
 8003dbe:	e7f7      	b.n	8003db0 <HAL_I2C_Mem_Write+0x1d0>
      return HAL_ERROR;
 8003dc0:	2001      	movs	r0, #1
 8003dc2:	e7f5      	b.n	8003db0 <HAL_I2C_Mem_Write+0x1d0>
 8003dc4:	80002000 	.word	0x80002000
 8003dc8:	fe00e800 	.word	0xfe00e800

08003dcc <HAL_I2C_IsDeviceReady>:
{
 8003dcc:	b5f0      	push	{r4, r5, r6, r7, lr}
 8003dce:	46de      	mov	lr, fp
 8003dd0:	464f      	mov	r7, r9
 8003dd2:	b580      	push	{r7, lr}
 8003dd4:	b087      	sub	sp, #28
 8003dd6:	0005      	movs	r5, r0
 8003dd8:	9103      	str	r1, [sp, #12]
 8003dda:	9202      	str	r2, [sp, #8]
 8003ddc:	001c      	movs	r4, r3
  __IO uint32_t I2C_Trials = 0UL;
 8003dde:	2300      	movs	r3, #0
 8003de0:	9305      	str	r3, [sp, #20]
  if (hi2c->State == HAL_I2C_STATE_READY)
 8003de2:	3341      	adds	r3, #65	@ 0x41
 8003de4:	5cc3      	ldrb	r3, [r0, r3]
 8003de6:	2b20      	cmp	r3, #32
 8003de8:	d000      	beq.n	8003dec <HAL_I2C_IsDeviceReady+0x20>
 8003dea:	e089      	b.n	8003f00 <HAL_I2C_IsDeviceReady+0x134>
    if (__HAL_I2C_GET_FLAG(hi2c, I2C_FLAG_BUSY) == SET)
 8003dec:	6803      	ldr	r3, [r0, #0]
 8003dee:	699b      	ldr	r3, [r3, #24]
 8003df0:	041b      	lsls	r3, r3, #16
 8003df2:	d500      	bpl.n	8003df6 <HAL_I2C_IsDeviceReady+0x2a>
 8003df4:	e086      	b.n	8003f04 <HAL_I2C_IsDeviceReady+0x138>
    __HAL_LOCK(hi2c);
 8003df6:	2340      	movs	r3, #64	@ 0x40
 8003df8:	5cc3      	ldrb	r3, [r0, r3]
 8003dfa:	2b01      	cmp	r3, #1
 8003dfc:	d100      	bne.n	8003e00 <HAL_I2C_IsDeviceReady+0x34>
 8003dfe:	e083      	b.n	8003f08 <HAL_I2C_IsDeviceReady+0x13c>
 8003e00:	2340      	movs	r3, #64	@ 0x40
 8003e02:	2201      	movs	r2, #1
 8003e04:	54c2      	strb	r2, [r0, r3]
    hi2c->State = HAL_I2C_STATE_BUSY;
 8003e06:	3301      	adds	r3, #1
 8003e08:	3223      	adds	r2, #35	@ 0x23
 8003e0a:	54c2      	strb	r2, [r0, r3]
    hi2c->ErrorCode = HAL_I2C_ERROR_NONE;
 8003e0c:	2300      	movs	r3, #0
 8003e0e:	6443      	str	r3, [r0, #68]	@ 0x44
      hi2c->Instance->CR2 = I2C_GENERATE_START(hi2c->Init.AddressingMode, DevAddress);
 8003e10:	058b      	lsls	r3, r1, #22
 8003e12:	0d9b      	lsrs	r3, r3, #22
 8003e14:	469b      	mov	fp, r3
 8003e16:	68eb      	ldr	r3, [r5, #12]
 8003e18:	2b01      	cmp	r3, #1
 8003e1a:	d014      	beq.n	8003e46 <HAL_I2C_IsDeviceReady+0x7a>
 8003e1c:	4b3d      	ldr	r3, [pc, #244]	@ (8003f14 <HAL_I2C_IsDeviceReady+0x148>)
 8003e1e:	465a      	mov	r2, fp
 8003e20:	4313      	orrs	r3, r2
 8003e22:	682a      	ldr	r2, [r5, #0]
 8003e24:	6053      	str	r3, [r2, #4]
      tickstart = HAL_GetTick();
 8003e26:	f7fe fc05 	bl	8002634 <HAL_GetTick>
 8003e2a:	0007      	movs	r7, r0
      tmp1 = __HAL_I2C_GET_FLAG(hi2c, I2C_FLAG_STOPF);
 8003e2c:	682b      	ldr	r3, [r5, #0]
 8003e2e:	699a      	ldr	r2, [r3, #24]
      tmp2 = __HAL_I2C_GET_FLAG(hi2c, I2C_FLAG_AF);
 8003e30:	6999      	ldr	r1, [r3, #24]
      tmp1 = __HAL_I2C_GET_FLAG(hi2c, I2C_FLAG_STOPF);
 8003e32:	2320      	movs	r3, #32
 8003e34:	4013      	ands	r3, r2
      tmp2 = __HAL_I2C_GET_FLAG(hi2c, I2C_FLAG_AF);
 8003e36:	2210      	movs	r2, #16
 8003e38:	400a      	ands	r2, r1
      while ((tmp1 == RESET) && (tmp2 == RESET))
 8003e3a:	4313      	orrs	r3, r2
 8003e3c:	d129      	bne.n	8003e92 <HAL_I2C_IsDeviceReady+0xc6>
        tmp1 = __HAL_I2C_GET_FLAG(hi2c, I2C_FLAG_STOPF);
 8003e3e:	3320      	adds	r3, #32
 8003e40:	4699      	mov	r9, r3
        tmp2 = __HAL_I2C_GET_FLAG(hi2c, I2C_FLAG_AF);
 8003e42:	2610      	movs	r6, #16
 8003e44:	e00d      	b.n	8003e62 <HAL_I2C_IsDeviceReady+0x96>
      hi2c->Instance->CR2 = I2C_GENERATE_START(hi2c->Init.AddressingMode, DevAddress);
 8003e46:	9b03      	ldr	r3, [sp, #12]
 8003e48:	059a      	lsls	r2, r3, #22
 8003e4a:	0d92      	lsrs	r2, r2, #22
 8003e4c:	4b32      	ldr	r3, [pc, #200]	@ (8003f18 <HAL_I2C_IsDeviceReady+0x14c>)
 8003e4e:	4313      	orrs	r3, r2
 8003e50:	e7e7      	b.n	8003e22 <HAL_I2C_IsDeviceReady+0x56>
        tmp1 = __HAL_I2C_GET_FLAG(hi2c, I2C_FLAG_STOPF);
 8003e52:	682a      	ldr	r2, [r5, #0]
 8003e54:	6993      	ldr	r3, [r2, #24]
        tmp2 = __HAL_I2C_GET_FLAG(hi2c, I2C_FLAG_AF);
 8003e56:	6992      	ldr	r2, [r2, #24]
        tmp1 = __HAL_I2C_GET_FLAG(hi2c, I2C_FLAG_STOPF);
 8003e58:	4649      	mov	r1, r9
 8003e5a:	400b      	ands	r3, r1
        tmp2 = __HAL_I2C_GET_FLAG(hi2c, I2C_FLAG_AF);
 8003e5c:	4032      	ands	r2, r6
      while ((tmp1 == RESET) && (tmp2 == RESET))
 8003e5e:	4313      	orrs	r3, r2
 8003e60:	d117      	bne.n	8003e92 <HAL_I2C_IsDeviceReady+0xc6>
        if (Timeout != HAL_MAX_DELAY)
 8003e62:	1c63      	adds	r3, r4, #1
 8003e64:	d0f5      	beq.n	8003e52 <HAL_I2C_IsDeviceReady+0x86>
          if (((HAL_GetTick() - tickstart) > Timeout) || (Timeout == 0U))
 8003e66:	f7fe fbe5 	bl	8002634 <HAL_GetTick>
 8003e6a:	1bc0      	subs	r0, r0, r7
 8003e6c:	42a0      	cmp	r0, r4
 8003e6e:	d801      	bhi.n	8003e74 <HAL_I2C_IsDeviceReady+0xa8>
 8003e70:	2c00      	cmp	r4, #0
 8003e72:	d1ee      	bne.n	8003e52 <HAL_I2C_IsDeviceReady+0x86>
            hi2c->State = HAL_I2C_STATE_READY;
 8003e74:	2220      	movs	r2, #32
 8003e76:	2341      	movs	r3, #65	@ 0x41
 8003e78:	54ea      	strb	r2, [r5, r3]
            hi2c->ErrorCode |= HAL_I2C_ERROR_TIMEOUT;
 8003e7a:	6c6b      	ldr	r3, [r5, #68]	@ 0x44
 8003e7c:	4313      	orrs	r3, r2
 8003e7e:	646b      	str	r3, [r5, #68]	@ 0x44
            __HAL_UNLOCK(hi2c);
 8003e80:	2340      	movs	r3, #64	@ 0x40
 8003e82:	2200      	movs	r2, #0
 8003e84:	54ea      	strb	r2, [r5, r3]
            return HAL_ERROR;
 8003e86:	2001      	movs	r0, #1
}
 8003e88:	b007      	add	sp, #28
 8003e8a:	bcc0      	pop	{r6, r7}
 8003e8c:	46bb      	mov	fp, r7
 8003e8e:	46b1      	mov	r9, r6
 8003e90:	bdf0      	pop	{r4, r5, r6, r7, pc}
      if (__HAL_I2C_GET_FLAG(hi2c, I2C_FLAG_AF) == RESET)
 8003e92:	682b      	ldr	r3, [r5, #0]
 8003e94:	699b      	ldr	r3, [r3, #24]
 8003e96:	06db      	lsls	r3, r3, #27
 8003e98:	d520      	bpl.n	8003edc <HAL_I2C_IsDeviceReady+0x110>
        if (I2C_WaitOnFlagUntilTimeout(hi2c, I2C_FLAG_STOPF, RESET, Timeout, tickstart) != HAL_OK)
 8003e9a:	9700      	str	r7, [sp, #0]
 8003e9c:	0023      	movs	r3, r4
 8003e9e:	2200      	movs	r2, #0
 8003ea0:	2120      	movs	r1, #32
 8003ea2:	0028      	movs	r0, r5
 8003ea4:	f7ff fdae 	bl	8003a04 <I2C_WaitOnFlagUntilTimeout>
 8003ea8:	2800      	cmp	r0, #0
 8003eaa:	d131      	bne.n	8003f10 <HAL_I2C_IsDeviceReady+0x144>
        __HAL_I2C_CLEAR_FLAG(hi2c, I2C_FLAG_AF);
 8003eac:	682b      	ldr	r3, [r5, #0]
 8003eae:	2210      	movs	r2, #16
 8003eb0:	61da      	str	r2, [r3, #28]
        __HAL_I2C_CLEAR_FLAG(hi2c, I2C_FLAG_STOPF);
 8003eb2:	682b      	ldr	r3, [r5, #0]
 8003eb4:	3210      	adds	r2, #16
 8003eb6:	61da      	str	r2, [r3, #28]
      I2C_Trials++;
 8003eb8:	9b05      	ldr	r3, [sp, #20]
 8003eba:	3301      	adds	r3, #1
 8003ebc:	9305      	str	r3, [sp, #20]
    } while (I2C_Trials < Trials);
 8003ebe:	9b05      	ldr	r3, [sp, #20]
 8003ec0:	9a02      	ldr	r2, [sp, #8]
 8003ec2:	4293      	cmp	r3, r2
 8003ec4:	d3a7      	bcc.n	8003e16 <HAL_I2C_IsDeviceReady+0x4a>
    hi2c->State = HAL_I2C_STATE_READY;
 8003ec6:	2220      	movs	r2, #32
 8003ec8:	2341      	movs	r3, #65	@ 0x41
 8003eca:	54ea      	strb	r2, [r5, r3]
    hi2c->ErrorCode |= HAL_I2C_ERROR_TIMEOUT;
 8003ecc:	6c6b      	ldr	r3, [r5, #68]	@ 0x44
 8003ece:	4313      	orrs	r3, r2
 8003ed0:	646b      	str	r3, [r5, #68]	@ 0x44
    __HAL_UNLOCK(hi2c);
 8003ed2:	2340      	movs	r3, #64	@ 0x40
 8003ed4:	2200      	movs	r2, #0
 8003ed6:	54ea      	strb	r2, [r5, r3]
    return HAL_ERROR;
 8003ed8:	3001      	adds	r0, #1
 8003eda:	e7d5      	b.n	8003e88 <HAL_I2C_IsDeviceReady+0xbc>
        if (I2C_WaitOnFlagUntilTimeout(hi2c, I2C_FLAG_STOPF, RESET, Timeout, tickstart) != HAL_OK)
 8003edc:	9700      	str	r7, [sp, #0]
 8003ede:	0023      	movs	r3, r4
 8003ee0:	2200      	movs	r2, #0
 8003ee2:	2120      	movs	r1, #32
 8003ee4:	0028      	movs	r0, r5
 8003ee6:	f7ff fd8d 	bl	8003a04 <I2C_WaitOnFlagUntilTimeout>
 8003eea:	2800      	cmp	r0, #0
 8003eec:	d10e      	bne.n	8003f0c <HAL_I2C_IsDeviceReady+0x140>
        __HAL_I2C_CLEAR_FLAG(hi2c, I2C_FLAG_STOPF);
 8003eee:	682a      	ldr	r2, [r5, #0]
 8003ef0:	2320      	movs	r3, #32
 8003ef2:	61d3      	str	r3, [r2, #28]
        hi2c->State = HAL_I2C_STATE_READY;
 8003ef4:	2241      	movs	r2, #65	@ 0x41
 8003ef6:	54ab      	strb	r3, [r5, r2]
        __HAL_UNLOCK(hi2c);
 8003ef8:	3320      	adds	r3, #32
 8003efa:	2200      	movs	r2, #0
 8003efc:	54ea      	strb	r2, [r5, r3]
        return HAL_OK;
 8003efe:	e7c3      	b.n	8003e88 <HAL_I2C_IsDeviceReady+0xbc>
    return HAL_BUSY;
 8003f00:	2002      	movs	r0, #2
 8003f02:	e7c1      	b.n	8003e88 <HAL_I2C_IsDeviceReady+0xbc>
      return HAL_BUSY;
 8003f04:	2002      	movs	r0, #2
 8003f06:	e7bf      	b.n	8003e88 <HAL_I2C_IsDeviceReady+0xbc>
    __HAL_LOCK(hi2c);
 8003f08:	2002      	movs	r0, #2
 8003f0a:	e7bd      	b.n	8003e88 <HAL_I2C_IsDeviceReady+0xbc>
          return HAL_ERROR;
 8003f0c:	2001      	movs	r0, #1
 8003f0e:	e7bb      	b.n	8003e88 <HAL_I2C_IsDeviceReady+0xbc>
          return HAL_ERROR;
 8003f10:	2001      	movs	r0, #1
 8003f12:	e7b9      	b.n	8003e88 <HAL_I2C_IsDeviceReady+0xbc>
 8003f14:	02002800 	.word	0x02002800
 8003f18:	02002000 	.word	0x02002000

08003f1c <HAL_I2CEx_ConfigAnalogFilter>:
  *                the configuration information for the specified I2Cx peripheral.
  * @param  AnalogFilter New state of the Analog filter.
  * @retval HAL status
  */
HAL_StatusTypeDef HAL_I2CEx_ConfigAnalogFilter(I2C_HandleTypeDef *hi2c, uint32_t AnalogFilter)
{
 8003f1c:	b5f0      	push	{r4, r5, r6, r7, lr}
  /* Check the parameters */
  assert_param(IS_I2C_ALL_INSTANCE(hi2c->Instance));
  assert_param(IS_I2C_ANALOG_FILTER(AnalogFilter));

  if (hi2c->State == HAL_I2C_STATE_READY)
 8003f1e:	2341      	movs	r3, #65	@ 0x41
 8003f20:	5cc3      	ldrb	r3, [r0, r3]
 8003f22:	2b20      	cmp	r3, #32
 8003f24:	d120      	bne.n	8003f68 <HAL_I2CEx_ConfigAnalogFilter+0x4c>
  {
    /* Process Locked */
    __HAL_LOCK(hi2c);
 8003f26:	3320      	adds	r3, #32
 8003f28:	5cc3      	ldrb	r3, [r0, r3]
 8003f2a:	2b01      	cmp	r3, #1
 8003f2c:	d01e      	beq.n	8003f6c <HAL_I2CEx_ConfigAnalogFilter+0x50>
 8003f2e:	2440      	movs	r4, #64	@ 0x40
 8003f30:	2201      	movs	r2, #1
 8003f32:	5502      	strb	r2, [r0, r4]

    hi2c->State = HAL_I2C_STATE_BUSY;
 8003f34:	2541      	movs	r5, #65	@ 0x41
 8003f36:	2324      	movs	r3, #36	@ 0x24
 8003f38:	5543      	strb	r3, [r0, r5]

    /* Disable the selected I2C peripheral */
    __HAL_I2C_DISABLE(hi2c);
 8003f3a:	6806      	ldr	r6, [r0, #0]
 8003f3c:	6833      	ldr	r3, [r6, #0]
 8003f3e:	4393      	bics	r3, r2
 8003f40:	6033      	str	r3, [r6, #0]

    /* Reset I2Cx ANOFF bit */
    hi2c->Instance->CR1 &= ~(I2C_CR1_ANFOFF);
 8003f42:	6806      	ldr	r6, [r0, #0]
 8003f44:	6833      	ldr	r3, [r6, #0]
 8003f46:	4f0a      	ldr	r7, [pc, #40]	@ (8003f70 <HAL_I2CEx_ConfigAnalogFilter+0x54>)
 8003f48:	403b      	ands	r3, r7
 8003f4a:	6033      	str	r3, [r6, #0]

    /* Set analog filter bit*/
    hi2c->Instance->CR1 |= AnalogFilter;
 8003f4c:	6806      	ldr	r6, [r0, #0]
 8003f4e:	6833      	ldr	r3, [r6, #0]
 8003f50:	430b      	orrs	r3, r1
 8003f52:	6033      	str	r3, [r6, #0]

    __HAL_I2C_ENABLE(hi2c);
 8003f54:	6801      	ldr	r1, [r0, #0]
 8003f56:	680b      	ldr	r3, [r1, #0]
 8003f58:	4313      	orrs	r3, r2
 8003f5a:	600b      	str	r3, [r1, #0]

    hi2c->State = HAL_I2C_STATE_READY;
 8003f5c:	2320      	movs	r3, #32
 8003f5e:	5543      	strb	r3, [r0, r5]

    /* Process Unlocked */
    __HAL_UNLOCK(hi2c);
 8003f60:	2300      	movs	r3, #0
 8003f62:	5503      	strb	r3, [r0, r4]

    return HAL_OK;
 8003f64:	2000      	movs	r0, #0
  }
  else
  {
    return HAL_BUSY;
  }
}
 8003f66:	bdf0      	pop	{r4, r5, r6, r7, pc}
    return HAL_BUSY;
 8003f68:	2002      	movs	r0, #2
 8003f6a:	e7fc      	b.n	8003f66 <HAL_I2CEx_ConfigAnalogFilter+0x4a>
    __HAL_LOCK(hi2c);
 8003f6c:	2002      	movs	r0, #2
 8003f6e:	e7fa      	b.n	8003f66 <HAL_I2CEx_ConfigAnalogFilter+0x4a>
 8003f70:	ffffefff 	.word	0xffffefff

08003f74 <HAL_I2CEx_ConfigDigitalFilter>:
  *                the configuration information for the specified I2Cx peripheral.
  * @param  DigitalFilter Coefficient of digital noise filter between Min_Data=0x00 and Max_Data=0x0F.
  * @retval HAL status
  */
HAL_StatusTypeDef HAL_I2CEx_ConfigDigitalFilter(I2C_HandleTypeDef *hi2c, uint32_t DigitalFilter)
{
 8003f74:	b5f0      	push	{r4, r5, r6, r7, lr}

  /* Check the parameters */
  assert_param(IS_I2C_ALL_INSTANCE(hi2c->Instance));
  assert_param(IS_I2C_DIGITAL_FILTER(DigitalFilter));

  if (hi2c->State == HAL_I2C_STATE_READY)
 8003f76:	2341      	movs	r3, #65	@ 0x41
 8003f78:	5cc3      	ldrb	r3, [r0, r3]
 8003f7a:	2b20      	cmp	r3, #32
 8003f7c:	d11e      	bne.n	8003fbc <HAL_I2CEx_ConfigDigitalFilter+0x48>
  {
    /* Process Locked */
    __HAL_LOCK(hi2c);
 8003f7e:	3320      	adds	r3, #32
 8003f80:	5cc3      	ldrb	r3, [r0, r3]
 8003f82:	2b01      	cmp	r3, #1
 8003f84:	d01c      	beq.n	8003fc0 <HAL_I2CEx_ConfigDigitalFilter+0x4c>
 8003f86:	2440      	movs	r4, #64	@ 0x40
 8003f88:	2201      	movs	r2, #1
 8003f8a:	5502      	strb	r2, [r0, r4]

    hi2c->State = HAL_I2C_STATE_BUSY;
 8003f8c:	2541      	movs	r5, #65	@ 0x41
 8003f8e:	2324      	movs	r3, #36	@ 0x24
 8003f90:	5543      	strb	r3, [r0, r5]

    /* Disable the selected I2C peripheral */
    __HAL_I2C_DISABLE(hi2c);
 8003f92:	6806      	ldr	r6, [r0, #0]
 8003f94:	6833      	ldr	r3, [r6, #0]
 8003f96:	4393      	bics	r3, r2
 8003f98:	6033      	str	r3, [r6, #0]

    /* Get the old register value */
    tmpreg = hi2c->Instance->CR1;
 8003f9a:	6806      	ldr	r6, [r0, #0]
 8003f9c:	6833      	ldr	r3, [r6, #0]

    /* Reset I2Cx DNF bits [11:8] */
    tmpreg &= ~(I2C_CR1_DNF);
 8003f9e:	4f09      	ldr	r7, [pc, #36]	@ (8003fc4 <HAL_I2CEx_ConfigDigitalFilter+0x50>)
 8003fa0:	403b      	ands	r3, r7

    /* Set I2Cx DNF coefficient */
    tmpreg |= DigitalFilter << 8U;
 8003fa2:	0209      	lsls	r1, r1, #8
 8003fa4:	4319      	orrs	r1, r3

    /* Store the new register value */
    hi2c->Instance->CR1 = tmpreg;
 8003fa6:	6031      	str	r1, [r6, #0]

    __HAL_I2C_ENABLE(hi2c);
 8003fa8:	6801      	ldr	r1, [r0, #0]
 8003faa:	680b      	ldr	r3, [r1, #0]
 8003fac:	4313      	orrs	r3, r2
 8003fae:	600b      	str	r3, [r1, #0]

    hi2c->State = HAL_I2C_STATE_READY;
 8003fb0:	2320      	movs	r3, #32
 8003fb2:	5543      	strb	r3, [r0, r5]

    /* Process Unlocked */
    __HAL_UNLOCK(hi2c);
 8003fb4:	2300      	movs	r3, #0
 8003fb6:	5503      	strb	r3, [r0, r4]

    return HAL_OK;
 8003fb8:	2000      	movs	r0, #0
  }
  else
  {
    return HAL_BUSY;
  }
}
 8003fba:	bdf0      	pop	{r4, r5, r6, r7, pc}
    return HAL_BUSY;
 8003fbc:	2002      	movs	r0, #2
 8003fbe:	e7fc      	b.n	8003fba <HAL_I2CEx_ConfigDigitalFilter+0x46>
    __HAL_LOCK(hi2c);
 8003fc0:	2002      	movs	r0, #2
 8003fc2:	e7fa      	b.n	8003fba <HAL_I2CEx_ConfigDigitalFilter+0x46>
 8003fc4:	fffff0ff 	.word	0xfffff0ff

08003fc8 <HAL_PWR_EnableBkUpAccess>:
  *         registers included) and RCC BDCR register are concerned.
  * @retval None
  */
void HAL_PWR_EnableBkUpAccess(void)
{
  SET_BIT(PWR->CR1, PWR_CR1_DBP);
 8003fc8:	4a03      	ldr	r2, [pc, #12]	@ (8003fd8 <HAL_PWR_EnableBkUpAccess+0x10>)
 8003fca:	6811      	ldr	r1, [r2, #0]
 8003fcc:	2380      	movs	r3, #128	@ 0x80
 8003fce:	005b      	lsls	r3, r3, #1
 8003fd0:	430b      	orrs	r3, r1
 8003fd2:	6013      	str	r3, [r2, #0]
}
 8003fd4:	4770      	bx	lr
 8003fd6:	46c0      	nop			@ (mov r8, r8)
 8003fd8:	40007000 	.word	0x40007000

08003fdc <HAL_PWREx_ControlVoltageScaling>:
  *        cleared before returning the status. If the flag is not cleared within
  *        6 microseconds, HAL_TIMEOUT status is reported.
  * @retval HAL Status
  */
HAL_StatusTypeDef HAL_PWREx_ControlVoltageScaling(uint32_t VoltageScaling)
{
 8003fdc:	b510      	push	{r4, lr}
 8003fde:	0002      	movs	r2, r0
  uint32_t wait_loop_index;

  assert_param(IS_PWR_VOLTAGE_SCALING_RANGE(VoltageScaling));

  /* Modify voltage scaling range */
  MODIFY_REG(PWR->CR1, PWR_CR1_VOS, VoltageScaling);
 8003fe0:	4913      	ldr	r1, [pc, #76]	@ (8004030 <HAL_PWREx_ControlVoltageScaling+0x54>)
 8003fe2:	680b      	ldr	r3, [r1, #0]
 8003fe4:	4813      	ldr	r0, [pc, #76]	@ (8004034 <HAL_PWREx_ControlVoltageScaling+0x58>)
 8003fe6:	4003      	ands	r3, r0
 8003fe8:	4313      	orrs	r3, r2
 8003fea:	600b      	str	r3, [r1, #0]

  /* In case of Range 1 selected, we need to ensure that main regulator reaches new value */
  if (VoltageScaling == PWR_REGULATOR_VOLTAGE_SCALE1)
 8003fec:	2380      	movs	r3, #128	@ 0x80
 8003fee:	009b      	lsls	r3, r3, #2
        return HAL_TIMEOUT;
      }
    }
  }

  return HAL_OK;
 8003ff0:	2000      	movs	r0, #0
  if (VoltageScaling == PWR_REGULATOR_VOLTAGE_SCALE1)
 8003ff2:	429a      	cmp	r2, r3
 8003ff4:	d000      	beq.n	8003ff8 <HAL_PWREx_ControlVoltageScaling+0x1c>
}
 8003ff6:	bd10      	pop	{r4, pc}
    wait_loop_index = ((PWR_VOSF_SETTING_DELAY_6_US * SystemCoreClock) / 1000000U) + 1U;
 8003ff8:	4b0f      	ldr	r3, [pc, #60]	@ (8004038 <HAL_PWREx_ControlVoltageScaling+0x5c>)
 8003ffa:	681b      	ldr	r3, [r3, #0]
 8003ffc:	0058      	lsls	r0, r3, #1
 8003ffe:	18c0      	adds	r0, r0, r3
 8004000:	0040      	lsls	r0, r0, #1
 8004002:	490e      	ldr	r1, [pc, #56]	@ (800403c <HAL_PWREx_ControlVoltageScaling+0x60>)
 8004004:	f7fc f886 	bl	8000114 <__udivsi3>
 8004008:	3001      	adds	r0, #1
    while (HAL_IS_BIT_SET(PWR->SR2, PWR_SR2_VOSF))
 800400a:	4b09      	ldr	r3, [pc, #36]	@ (8004030 <HAL_PWREx_ControlVoltageScaling+0x54>)
 800400c:	695b      	ldr	r3, [r3, #20]
 800400e:	055b      	lsls	r3, r3, #21
 8004010:	d50a      	bpl.n	8004028 <HAL_PWREx_ControlVoltageScaling+0x4c>
 8004012:	4907      	ldr	r1, [pc, #28]	@ (8004030 <HAL_PWREx_ControlVoltageScaling+0x54>)
 8004014:	2280      	movs	r2, #128	@ 0x80
 8004016:	00d2      	lsls	r2, r2, #3
        wait_loop_index--;
 8004018:	3801      	subs	r0, #1
    while (HAL_IS_BIT_SET(PWR->SR2, PWR_SR2_VOSF))
 800401a:	694b      	ldr	r3, [r1, #20]
 800401c:	4213      	tst	r3, r2
 800401e:	d005      	beq.n	800402c <HAL_PWREx_ControlVoltageScaling+0x50>
      if (wait_loop_index != 0U)
 8004020:	2800      	cmp	r0, #0
 8004022:	d1f9      	bne.n	8004018 <HAL_PWREx_ControlVoltageScaling+0x3c>
        return HAL_TIMEOUT;
 8004024:	2003      	movs	r0, #3
 8004026:	e7e6      	b.n	8003ff6 <HAL_PWREx_ControlVoltageScaling+0x1a>
  return HAL_OK;
 8004028:	2000      	movs	r0, #0
 800402a:	e7e4      	b.n	8003ff6 <HAL_PWREx_ControlVoltageScaling+0x1a>
 800402c:	2000      	movs	r0, #0
 800402e:	e7e2      	b.n	8003ff6 <HAL_PWREx_ControlVoltageScaling+0x1a>
 8004030:	40007000 	.word	0x40007000
 8004034:	fffff9ff 	.word	0xfffff9ff
 8004038:	20000018 	.word	0x20000018
 800403c:	000f4240 	.word	0x000f4240

08004040 <HAL_RCC_OscConfig>:
  *         supported by this function. User should request a transition to LSE Off
  *         first and then to LSE On or LSE Bypass.
  * @retval HAL status
  */
HAL_StatusTypeDef HAL_RCC_OscConfig(RCC_OscInitTypeDef  *RCC_OscInitStruct)
{
 8004040:	b5f0      	push	{r4, r5, r6, r7, lr}
 8004042:	46ce      	mov	lr, r9
 8004044:	4647      	mov	r7, r8
 8004046:	b580      	push	{r7, lr}
 8004048:	b083      	sub	sp, #12
 800404a:	1e04      	subs	r4, r0, #0
  uint32_t tickstart;
  uint32_t temp_sysclksrc;
  uint32_t temp_pllckcfg;

  /* Check Null pointer */
  if (RCC_OscInitStruct == NULL)
 800404c:	d100      	bne.n	8004050 <HAL_RCC_OscConfig+0x10>
 800404e:	e23e      	b.n	80044ce <HAL_RCC_OscConfig+0x48e>

  /* Check the parameters */
  assert_param(IS_RCC_OSCILLATORTYPE(RCC_OscInitStruct->OscillatorType));

  /*------------------------------- HSE Configuration ------------------------*/
  if (((RCC_OscInitStruct->OscillatorType) & RCC_OSCILLATORTYPE_HSE) == RCC_OSCILLATORTYPE_HSE)
 8004050:	6803      	ldr	r3, [r0, #0]
 8004052:	07db      	lsls	r3, r3, #31
 8004054:	d538      	bpl.n	80040c8 <HAL_RCC_OscConfig+0x88>
  {
    /* Check the parameters */
    assert_param(IS_RCC_HSE(RCC_OscInitStruct->HSEState));

    temp_sysclksrc = __HAL_RCC_GET_SYSCLK_SOURCE();
 8004056:	4ac7      	ldr	r2, [pc, #796]	@ (8004374 <HAL_RCC_OscConfig+0x334>)
 8004058:	6891      	ldr	r1, [r2, #8]
 800405a:	2338      	movs	r3, #56	@ 0x38
 800405c:	400b      	ands	r3, r1
    temp_pllckcfg = __HAL_RCC_GET_PLL_OSCSOURCE();
 800405e:	68d2      	ldr	r2, [r2, #12]

    /* When the HSE is used as system clock or clock source for PLL in these cases it is not allowed to be disabled */
    if (((temp_sysclksrc == RCC_SYSCLKSOURCE_STATUS_PLLCLK) && (temp_pllckcfg == RCC_PLLSOURCE_HSE))
 8004060:	2b10      	cmp	r3, #16
 8004062:	d026      	beq.n	80040b2 <HAL_RCC_OscConfig+0x72>
        || (temp_sysclksrc == RCC_SYSCLKSOURCE_STATUS_HSE))
 8004064:	2b08      	cmp	r3, #8
 8004066:	d027      	beq.n	80040b8 <HAL_RCC_OscConfig+0x78>
      }
    }
    else
    {
      /* Set the new HSE configuration ---------------------------------------*/
      __HAL_RCC_HSE_CONFIG(RCC_OscInitStruct->HSEState);
 8004068:	6863      	ldr	r3, [r4, #4]
 800406a:	2280      	movs	r2, #128	@ 0x80
 800406c:	0252      	lsls	r2, r2, #9
 800406e:	4293      	cmp	r3, r2
 8004070:	d07a      	beq.n	8004168 <HAL_RCC_OscConfig+0x128>
 8004072:	22a0      	movs	r2, #160	@ 0xa0
 8004074:	02d2      	lsls	r2, r2, #11
 8004076:	4293      	cmp	r3, r2
 8004078:	d07d      	beq.n	8004176 <HAL_RCC_OscConfig+0x136>
 800407a:	4bbe      	ldr	r3, [pc, #760]	@ (8004374 <HAL_RCC_OscConfig+0x334>)
 800407c:	681a      	ldr	r2, [r3, #0]
 800407e:	49be      	ldr	r1, [pc, #760]	@ (8004378 <HAL_RCC_OscConfig+0x338>)
 8004080:	400a      	ands	r2, r1
 8004082:	601a      	str	r2, [r3, #0]
 8004084:	681a      	ldr	r2, [r3, #0]
 8004086:	49bd      	ldr	r1, [pc, #756]	@ (800437c <HAL_RCC_OscConfig+0x33c>)
 8004088:	400a      	ands	r2, r1
 800408a:	601a      	str	r2, [r3, #0]

      /* Check the HSE State */
      if (RCC_OscInitStruct->HSEState != RCC_HSE_OFF)
 800408c:	6863      	ldr	r3, [r4, #4]
 800408e:	2b00      	cmp	r3, #0
 8004090:	d07d      	beq.n	800418e <HAL_RCC_OscConfig+0x14e>
      {
        /* Get Start Tick*/
        tickstart = HAL_GetTick();
 8004092:	f7fe facf 	bl	8002634 <HAL_GetTick>
 8004096:	0005      	movs	r5, r0

        /* Wait till HSE is ready */
        while (READ_BIT(RCC->CR, RCC_CR_HSERDY) == 0U)
 8004098:	4fb6      	ldr	r7, [pc, #728]	@ (8004374 <HAL_RCC_OscConfig+0x334>)
 800409a:	2680      	movs	r6, #128	@ 0x80
 800409c:	02b6      	lsls	r6, r6, #10
 800409e:	683b      	ldr	r3, [r7, #0]
 80040a0:	4233      	tst	r3, r6
 80040a2:	d111      	bne.n	80040c8 <HAL_RCC_OscConfig+0x88>
        {
          if ((HAL_GetTick() - tickstart) > HSE_TIMEOUT_VALUE)
 80040a4:	f7fe fac6 	bl	8002634 <HAL_GetTick>
 80040a8:	1b40      	subs	r0, r0, r5
 80040aa:	2864      	cmp	r0, #100	@ 0x64
 80040ac:	d9f7      	bls.n	800409e <HAL_RCC_OscConfig+0x5e>
          {
            return HAL_TIMEOUT;
 80040ae:	2003      	movs	r0, #3
 80040b0:	e20e      	b.n	80044d0 <HAL_RCC_OscConfig+0x490>
    temp_pllckcfg = __HAL_RCC_GET_PLL_OSCSOURCE();
 80040b2:	43d2      	mvns	r2, r2
    if (((temp_sysclksrc == RCC_SYSCLKSOURCE_STATUS_PLLCLK) && (temp_pllckcfg == RCC_PLLSOURCE_HSE))
 80040b4:	0792      	lsls	r2, r2, #30
 80040b6:	d1d7      	bne.n	8004068 <HAL_RCC_OscConfig+0x28>
      if ((READ_BIT(RCC->CR, RCC_CR_HSERDY) != 0U) && (RCC_OscInitStruct->HSEState == RCC_HSE_OFF))
 80040b8:	4bae      	ldr	r3, [pc, #696]	@ (8004374 <HAL_RCC_OscConfig+0x334>)
 80040ba:	681b      	ldr	r3, [r3, #0]
 80040bc:	039b      	lsls	r3, r3, #14
 80040be:	d503      	bpl.n	80040c8 <HAL_RCC_OscConfig+0x88>
 80040c0:	6863      	ldr	r3, [r4, #4]
 80040c2:	2b00      	cmp	r3, #0
 80040c4:	d100      	bne.n	80040c8 <HAL_RCC_OscConfig+0x88>
 80040c6:	e208      	b.n	80044da <HAL_RCC_OscConfig+0x49a>
        }
      }
    }
  }
  /*----------------------------- HSI Configuration --------------------------*/
  if (((RCC_OscInitStruct->OscillatorType) & RCC_OSCILLATORTYPE_HSI) == RCC_OSCILLATORTYPE_HSI)
 80040c8:	6823      	ldr	r3, [r4, #0]
 80040ca:	079b      	lsls	r3, r3, #30
 80040cc:	d52a      	bpl.n	8004124 <HAL_RCC_OscConfig+0xe4>
    assert_param(IS_RCC_HSI(RCC_OscInitStruct->HSIState));
    assert_param(IS_RCC_HSI_CALIBRATION_VALUE(RCC_OscInitStruct->HSICalibrationValue));
    assert_param(IS_RCC_HSIDIV(RCC_OscInitStruct->HSIDiv));

    /* Check if HSI16 is used as system clock or as PLL source when PLL is selected as system clock */
    temp_sysclksrc = __HAL_RCC_GET_SYSCLK_SOURCE();
 80040ce:	4aa9      	ldr	r2, [pc, #676]	@ (8004374 <HAL_RCC_OscConfig+0x334>)
 80040d0:	6891      	ldr	r1, [r2, #8]
 80040d2:	2338      	movs	r3, #56	@ 0x38
 80040d4:	400b      	ands	r3, r1
    temp_pllckcfg = __HAL_RCC_GET_PLL_OSCSOURCE();
 80040d6:	68d2      	ldr	r2, [r2, #12]
    if (((temp_sysclksrc == RCC_SYSCLKSOURCE_STATUS_PLLCLK) && (temp_pllckcfg == RCC_PLLSOURCE_HSI))
 80040d8:	2b10      	cmp	r3, #16
 80040da:	d068      	beq.n	80041ae <HAL_RCC_OscConfig+0x16e>
        || (temp_sysclksrc == RCC_SYSCLKSOURCE_STATUS_HSI))
 80040dc:	2b00      	cmp	r3, #0
 80040de:	d16b      	bne.n	80041b8 <HAL_RCC_OscConfig+0x178>
    {
      /* When HSI is used as system clock or as PLL input clock it can not be disabled */
      if ((READ_BIT(RCC->CR, RCC_CR_HSIRDY) != 0U) && (RCC_OscInitStruct->HSIState == RCC_HSI_OFF))
 80040e0:	4ba4      	ldr	r3, [pc, #656]	@ (8004374 <HAL_RCC_OscConfig+0x334>)
 80040e2:	681b      	ldr	r3, [r3, #0]
 80040e4:	055b      	lsls	r3, r3, #21
 80040e6:	d500      	bpl.n	80040ea <HAL_RCC_OscConfig+0xaa>
 80040e8:	e21a      	b.n	8004520 <HAL_RCC_OscConfig+0x4e0>
      }
      /* Otherwise, just the calibration is allowed */
      else
      {
        /* Adjusts the Internal High Speed oscillator (HSI) calibration value.*/
        __HAL_RCC_HSI_CALIBRATIONVALUE_ADJUST(RCC_OscInitStruct->HSICalibrationValue);
 80040ea:	49a2      	ldr	r1, [pc, #648]	@ (8004374 <HAL_RCC_OscConfig+0x334>)
 80040ec:	684a      	ldr	r2, [r1, #4]
 80040ee:	6963      	ldr	r3, [r4, #20]
 80040f0:	021b      	lsls	r3, r3, #8
 80040f2:	48a3      	ldr	r0, [pc, #652]	@ (8004380 <HAL_RCC_OscConfig+0x340>)
 80040f4:	4002      	ands	r2, r0
 80040f6:	4313      	orrs	r3, r2
 80040f8:	604b      	str	r3, [r1, #4]

        if (temp_sysclksrc == RCC_SYSCLKSOURCE_STATUS_HSI)
        {
          /* Adjust the HSI16 division factor */
          __HAL_RCC_HSI_CONFIG(RCC_OscInitStruct->HSIDiv);
 80040fa:	4a9e      	ldr	r2, [pc, #632]	@ (8004374 <HAL_RCC_OscConfig+0x334>)
 80040fc:	6813      	ldr	r3, [r2, #0]
 80040fe:	49a1      	ldr	r1, [pc, #644]	@ (8004384 <HAL_RCC_OscConfig+0x344>)
 8004100:	400b      	ands	r3, r1
 8004102:	6921      	ldr	r1, [r4, #16]
 8004104:	430b      	orrs	r3, r1
 8004106:	6013      	str	r3, [r2, #0]

          /* Update the SystemCoreClock global variable with HSISYS value  */
          SystemCoreClock = (HSI_VALUE / (1UL << ((READ_BIT(RCC->CR, RCC_CR_HSIDIV)) >> RCC_CR_HSIDIV_Pos)));
 8004108:	6813      	ldr	r3, [r2, #0]
 800410a:	499f      	ldr	r1, [pc, #636]	@ (8004388 <HAL_RCC_OscConfig+0x348>)
 800410c:	049b      	lsls	r3, r3, #18
 800410e:	0f5b      	lsrs	r3, r3, #29
 8004110:	4a9e      	ldr	r2, [pc, #632]	@ (800438c <HAL_RCC_OscConfig+0x34c>)
 8004112:	40da      	lsrs	r2, r3
 8004114:	600a      	str	r2, [r1, #0]
        }

        /* Adapt Systick interrupt period */
        if (HAL_InitTick(uwTickPrio) != HAL_OK)
 8004116:	4b9e      	ldr	r3, [pc, #632]	@ (8004390 <HAL_RCC_OscConfig+0x350>)
 8004118:	6818      	ldr	r0, [r3, #0]
 800411a:	f7fe fa43 	bl	80025a4 <HAL_InitTick>
 800411e:	2800      	cmp	r0, #0
 8004120:	d000      	beq.n	8004124 <HAL_RCC_OscConfig+0xe4>
 8004122:	e1dc      	b.n	80044de <HAL_RCC_OscConfig+0x49e>
        }
      }
    }
  }
  /*------------------------------ LSI Configuration -------------------------*/
  if (((RCC_OscInitStruct->OscillatorType) & RCC_OSCILLATORTYPE_LSI) == RCC_OSCILLATORTYPE_LSI)
 8004124:	6823      	ldr	r3, [r4, #0]
 8004126:	071b      	lsls	r3, r3, #28
 8004128:	d400      	bmi.n	800412c <HAL_RCC_OscConfig+0xec>
 800412a:	e08b      	b.n	8004244 <HAL_RCC_OscConfig+0x204>
  {
    /* Check the parameters */
    assert_param(IS_RCC_LSI(RCC_OscInitStruct->LSIState));

    /* Check if LSI is used as system clock */
    if (__HAL_RCC_GET_SYSCLK_SOURCE() == RCC_SYSCLKSOURCE_STATUS_LSI)
 800412c:	4b91      	ldr	r3, [pc, #580]	@ (8004374 <HAL_RCC_OscConfig+0x334>)
 800412e:	689a      	ldr	r2, [r3, #8]
 8004130:	2338      	movs	r3, #56	@ 0x38
 8004132:	4013      	ands	r3, r2
 8004134:	2b18      	cmp	r3, #24
 8004136:	d07d      	beq.n	8004234 <HAL_RCC_OscConfig+0x1f4>
      }
    }
    else
    {
      /* Check the LSI State */
      if (RCC_OscInitStruct->LSIState != RCC_LSI_OFF)
 8004138:	69a3      	ldr	r3, [r4, #24]
 800413a:	2b00      	cmp	r3, #0
 800413c:	d100      	bne.n	8004140 <HAL_RCC_OscConfig+0x100>
 800413e:	e0c4      	b.n	80042ca <HAL_RCC_OscConfig+0x28a>
      {
        /* Enable the Internal Low Speed oscillator (LSI). */
        __HAL_RCC_LSI_ENABLE();
 8004140:	4a8c      	ldr	r2, [pc, #560]	@ (8004374 <HAL_RCC_OscConfig+0x334>)
 8004142:	6e13      	ldr	r3, [r2, #96]	@ 0x60
 8004144:	2101      	movs	r1, #1
 8004146:	430b      	orrs	r3, r1
 8004148:	6613      	str	r3, [r2, #96]	@ 0x60

        /* Get Start Tick*/
        tickstart = HAL_GetTick();
 800414a:	f7fe fa73 	bl	8002634 <HAL_GetTick>
 800414e:	0005      	movs	r5, r0

        /* Wait till LSI is ready */
        while (READ_BIT(RCC->CSR, RCC_CSR_LSIRDY) == 0U)
 8004150:	4f88      	ldr	r7, [pc, #544]	@ (8004374 <HAL_RCC_OscConfig+0x334>)
 8004152:	2602      	movs	r6, #2
 8004154:	6e3b      	ldr	r3, [r7, #96]	@ 0x60
 8004156:	421e      	tst	r6, r3
 8004158:	d174      	bne.n	8004244 <HAL_RCC_OscConfig+0x204>
        {
          if ((HAL_GetTick() - tickstart) > LSI_TIMEOUT_VALUE)
 800415a:	f7fe fa6b 	bl	8002634 <HAL_GetTick>
 800415e:	1b40      	subs	r0, r0, r5
 8004160:	2802      	cmp	r0, #2
 8004162:	d9f7      	bls.n	8004154 <HAL_RCC_OscConfig+0x114>
          {
            return HAL_TIMEOUT;
 8004164:	2003      	movs	r0, #3
 8004166:	e1b3      	b.n	80044d0 <HAL_RCC_OscConfig+0x490>
      __HAL_RCC_HSE_CONFIG(RCC_OscInitStruct->HSEState);
 8004168:	4a82      	ldr	r2, [pc, #520]	@ (8004374 <HAL_RCC_OscConfig+0x334>)
 800416a:	6811      	ldr	r1, [r2, #0]
 800416c:	2380      	movs	r3, #128	@ 0x80
 800416e:	025b      	lsls	r3, r3, #9
 8004170:	430b      	orrs	r3, r1
 8004172:	6013      	str	r3, [r2, #0]
 8004174:	e78a      	b.n	800408c <HAL_RCC_OscConfig+0x4c>
 8004176:	4b7f      	ldr	r3, [pc, #508]	@ (8004374 <HAL_RCC_OscConfig+0x334>)
 8004178:	6819      	ldr	r1, [r3, #0]
 800417a:	2280      	movs	r2, #128	@ 0x80
 800417c:	02d2      	lsls	r2, r2, #11
 800417e:	430a      	orrs	r2, r1
 8004180:	601a      	str	r2, [r3, #0]
 8004182:	6819      	ldr	r1, [r3, #0]
 8004184:	2280      	movs	r2, #128	@ 0x80
 8004186:	0252      	lsls	r2, r2, #9
 8004188:	430a      	orrs	r2, r1
 800418a:	601a      	str	r2, [r3, #0]
 800418c:	e77e      	b.n	800408c <HAL_RCC_OscConfig+0x4c>
        tickstart = HAL_GetTick();
 800418e:	f7fe fa51 	bl	8002634 <HAL_GetTick>
 8004192:	0005      	movs	r5, r0
        while (READ_BIT(RCC->CR, RCC_CR_HSERDY) != 0U)
 8004194:	4f77      	ldr	r7, [pc, #476]	@ (8004374 <HAL_RCC_OscConfig+0x334>)
 8004196:	2680      	movs	r6, #128	@ 0x80
 8004198:	02b6      	lsls	r6, r6, #10
 800419a:	683b      	ldr	r3, [r7, #0]
 800419c:	4233      	tst	r3, r6
 800419e:	d093      	beq.n	80040c8 <HAL_RCC_OscConfig+0x88>
          if ((HAL_GetTick() - tickstart) > HSE_TIMEOUT_VALUE)
 80041a0:	f7fe fa48 	bl	8002634 <HAL_GetTick>
 80041a4:	1b40      	subs	r0, r0, r5
 80041a6:	2864      	cmp	r0, #100	@ 0x64
 80041a8:	d9f7      	bls.n	800419a <HAL_RCC_OscConfig+0x15a>
            return HAL_TIMEOUT;
 80041aa:	2003      	movs	r0, #3
 80041ac:	e190      	b.n	80044d0 <HAL_RCC_OscConfig+0x490>
    temp_pllckcfg = __HAL_RCC_GET_PLL_OSCSOURCE();
 80041ae:	3b0d      	subs	r3, #13
 80041b0:	4013      	ands	r3, r2
    if (((temp_sysclksrc == RCC_SYSCLKSOURCE_STATUS_PLLCLK) && (temp_pllckcfg == RCC_PLLSOURCE_HSI))
 80041b2:	2b02      	cmp	r3, #2
 80041b4:	d100      	bne.n	80041b8 <HAL_RCC_OscConfig+0x178>
 80041b6:	e1a3      	b.n	8004500 <HAL_RCC_OscConfig+0x4c0>
      if (RCC_OscInitStruct->HSIState != RCC_HSI_OFF)
 80041b8:	68e3      	ldr	r3, [r4, #12]
 80041ba:	2b00      	cmp	r3, #0
 80041bc:	d024      	beq.n	8004208 <HAL_RCC_OscConfig+0x1c8>
        __HAL_RCC_HSI_CONFIG(RCC_OscInitStruct->HSIDiv);
 80041be:	4a6d      	ldr	r2, [pc, #436]	@ (8004374 <HAL_RCC_OscConfig+0x334>)
 80041c0:	6813      	ldr	r3, [r2, #0]
 80041c2:	4970      	ldr	r1, [pc, #448]	@ (8004384 <HAL_RCC_OscConfig+0x344>)
 80041c4:	400b      	ands	r3, r1
 80041c6:	6921      	ldr	r1, [r4, #16]
 80041c8:	430b      	orrs	r3, r1
 80041ca:	6013      	str	r3, [r2, #0]
        __HAL_RCC_HSI_ENABLE();
 80041cc:	6811      	ldr	r1, [r2, #0]
 80041ce:	2380      	movs	r3, #128	@ 0x80
 80041d0:	005b      	lsls	r3, r3, #1
 80041d2:	430b      	orrs	r3, r1
 80041d4:	6013      	str	r3, [r2, #0]
        tickstart = HAL_GetTick();
 80041d6:	f7fe fa2d 	bl	8002634 <HAL_GetTick>
 80041da:	0005      	movs	r5, r0
        while (READ_BIT(RCC->CR, RCC_CR_HSIRDY) == 0U)
 80041dc:	4f65      	ldr	r7, [pc, #404]	@ (8004374 <HAL_RCC_OscConfig+0x334>)
 80041de:	2680      	movs	r6, #128	@ 0x80
 80041e0:	00f6      	lsls	r6, r6, #3
 80041e2:	683b      	ldr	r3, [r7, #0]
 80041e4:	4233      	tst	r3, r6
 80041e6:	d106      	bne.n	80041f6 <HAL_RCC_OscConfig+0x1b6>
          if ((HAL_GetTick() - tickstart) > HSI_TIMEOUT_VALUE)
 80041e8:	f7fe fa24 	bl	8002634 <HAL_GetTick>
 80041ec:	1b40      	subs	r0, r0, r5
 80041ee:	2802      	cmp	r0, #2
 80041f0:	d9f7      	bls.n	80041e2 <HAL_RCC_OscConfig+0x1a2>
            return HAL_TIMEOUT;
 80041f2:	2003      	movs	r0, #3
 80041f4:	e16c      	b.n	80044d0 <HAL_RCC_OscConfig+0x490>
        __HAL_RCC_HSI_CALIBRATIONVALUE_ADJUST(RCC_OscInitStruct->HSICalibrationValue);
 80041f6:	495f      	ldr	r1, [pc, #380]	@ (8004374 <HAL_RCC_OscConfig+0x334>)
 80041f8:	684a      	ldr	r2, [r1, #4]
 80041fa:	6963      	ldr	r3, [r4, #20]
 80041fc:	021b      	lsls	r3, r3, #8
 80041fe:	4860      	ldr	r0, [pc, #384]	@ (8004380 <HAL_RCC_OscConfig+0x340>)
 8004200:	4002      	ands	r2, r0
 8004202:	4313      	orrs	r3, r2
 8004204:	604b      	str	r3, [r1, #4]
 8004206:	e78d      	b.n	8004124 <HAL_RCC_OscConfig+0xe4>
        __HAL_RCC_HSI_DISABLE();
 8004208:	4a5a      	ldr	r2, [pc, #360]	@ (8004374 <HAL_RCC_OscConfig+0x334>)
 800420a:	6813      	ldr	r3, [r2, #0]
 800420c:	4961      	ldr	r1, [pc, #388]	@ (8004394 <HAL_RCC_OscConfig+0x354>)
 800420e:	400b      	ands	r3, r1
 8004210:	6013      	str	r3, [r2, #0]
        tickstart = HAL_GetTick();
 8004212:	f7fe fa0f 	bl	8002634 <HAL_GetTick>
 8004216:	0005      	movs	r5, r0
        while (READ_BIT(RCC->CR, RCC_CR_HSIRDY) != 0U)
 8004218:	4f56      	ldr	r7, [pc, #344]	@ (8004374 <HAL_RCC_OscConfig+0x334>)
 800421a:	2680      	movs	r6, #128	@ 0x80
 800421c:	00f6      	lsls	r6, r6, #3
 800421e:	683b      	ldr	r3, [r7, #0]
 8004220:	4233      	tst	r3, r6
 8004222:	d100      	bne.n	8004226 <HAL_RCC_OscConfig+0x1e6>
 8004224:	e77e      	b.n	8004124 <HAL_RCC_OscConfig+0xe4>
          if ((HAL_GetTick() - tickstart) > HSI_TIMEOUT_VALUE)
 8004226:	f7fe fa05 	bl	8002634 <HAL_GetTick>
 800422a:	1b40      	subs	r0, r0, r5
 800422c:	2802      	cmp	r0, #2
 800422e:	d9f6      	bls.n	800421e <HAL_RCC_OscConfig+0x1de>
            return HAL_TIMEOUT;
 8004230:	2003      	movs	r0, #3
 8004232:	e14d      	b.n	80044d0 <HAL_RCC_OscConfig+0x490>
      if ((((RCC->CSR) & RCC_CSR_LSIRDY) != 0U) && (RCC_OscInitStruct->LSIState == RCC_LSI_OFF))
 8004234:	4b4f      	ldr	r3, [pc, #316]	@ (8004374 <HAL_RCC_OscConfig+0x334>)
 8004236:	6e1b      	ldr	r3, [r3, #96]	@ 0x60
 8004238:	079b      	lsls	r3, r3, #30
 800423a:	d503      	bpl.n	8004244 <HAL_RCC_OscConfig+0x204>
 800423c:	69a3      	ldr	r3, [r4, #24]
 800423e:	2b00      	cmp	r3, #0
 8004240:	d100      	bne.n	8004244 <HAL_RCC_OscConfig+0x204>
 8004242:	e14e      	b.n	80044e2 <HAL_RCC_OscConfig+0x4a2>
        }
      }
    }
  }
  /*------------------------------ LSE Configuration -------------------------*/
  if (((RCC_OscInitStruct->OscillatorType) & RCC_OSCILLATORTYPE_LSE) == RCC_OSCILLATORTYPE_LSE)
 8004244:	6823      	ldr	r3, [r4, #0]
 8004246:	075b      	lsls	r3, r3, #29
 8004248:	d400      	bmi.n	800424c <HAL_RCC_OscConfig+0x20c>
 800424a:	e0ac      	b.n	80043a6 <HAL_RCC_OscConfig+0x366>

    /* Check the parameters */
    assert_param(IS_RCC_LSE(RCC_OscInitStruct->LSEState));

    /* When the LSE is used as system clock, it is not allowed disable it */
    if (__HAL_RCC_GET_SYSCLK_SOURCE() == RCC_SYSCLKSOURCE_STATUS_LSE)
 800424c:	4b49      	ldr	r3, [pc, #292]	@ (8004374 <HAL_RCC_OscConfig+0x334>)
 800424e:	689a      	ldr	r2, [r3, #8]
 8004250:	2338      	movs	r3, #56	@ 0x38
 8004252:	4013      	ands	r3, r2
 8004254:	2b20      	cmp	r3, #32
 8004256:	d04c      	beq.n	80042f2 <HAL_RCC_OscConfig+0x2b2>
    }
    else
    {
      /* Update LSE configuration in Backup Domain control register    */
      /* Requires to enable write access to Backup Domain of necessary */
      if (__HAL_RCC_PWR_IS_CLK_DISABLED() != 0U)
 8004258:	4b46      	ldr	r3, [pc, #280]	@ (8004374 <HAL_RCC_OscConfig+0x334>)
 800425a:	6bdb      	ldr	r3, [r3, #60]	@ 0x3c
    FlagStatus       pwrclkchanged = RESET;
 800425c:	2200      	movs	r2, #0
 800425e:	4691      	mov	r9, r2
      if (__HAL_RCC_PWR_IS_CLK_DISABLED() != 0U)
 8004260:	00db      	lsls	r3, r3, #3
 8004262:	d40b      	bmi.n	800427c <HAL_RCC_OscConfig+0x23c>
      {
        __HAL_RCC_PWR_CLK_ENABLE();
 8004264:	4b43      	ldr	r3, [pc, #268]	@ (8004374 <HAL_RCC_OscConfig+0x334>)
 8004266:	6bda      	ldr	r2, [r3, #60]	@ 0x3c
 8004268:	2180      	movs	r1, #128	@ 0x80
 800426a:	0549      	lsls	r1, r1, #21
 800426c:	430a      	orrs	r2, r1
 800426e:	63da      	str	r2, [r3, #60]	@ 0x3c
 8004270:	6bdb      	ldr	r3, [r3, #60]	@ 0x3c
 8004272:	400b      	ands	r3, r1
 8004274:	9301      	str	r3, [sp, #4]
 8004276:	9b01      	ldr	r3, [sp, #4]
        pwrclkchanged = SET;
 8004278:	2301      	movs	r3, #1
 800427a:	4699      	mov	r9, r3
      }

      if (HAL_IS_BIT_CLR(PWR->CR1, PWR_CR1_DBP))
 800427c:	4b46      	ldr	r3, [pc, #280]	@ (8004398 <HAL_RCC_OscConfig+0x358>)
 800427e:	681b      	ldr	r3, [r3, #0]
 8004280:	05db      	lsls	r3, r3, #23
 8004282:	d53f      	bpl.n	8004304 <HAL_RCC_OscConfig+0x2c4>
          }
        }
      }

      /* Set the new LSE configuration -----------------------------------------*/
      __HAL_RCC_LSE_CONFIG(RCC_OscInitStruct->LSEState);
 8004284:	68a3      	ldr	r3, [r4, #8]
 8004286:	2b01      	cmp	r3, #1
 8004288:	d052      	beq.n	8004330 <HAL_RCC_OscConfig+0x2f0>
 800428a:	2b05      	cmp	r3, #5
 800428c:	d056      	beq.n	800433c <HAL_RCC_OscConfig+0x2fc>
 800428e:	4b39      	ldr	r3, [pc, #228]	@ (8004374 <HAL_RCC_OscConfig+0x334>)
 8004290:	6dda      	ldr	r2, [r3, #92]	@ 0x5c
 8004292:	2101      	movs	r1, #1
 8004294:	438a      	bics	r2, r1
 8004296:	65da      	str	r2, [r3, #92]	@ 0x5c
 8004298:	6dda      	ldr	r2, [r3, #92]	@ 0x5c
 800429a:	3103      	adds	r1, #3
 800429c:	438a      	bics	r2, r1
 800429e:	65da      	str	r2, [r3, #92]	@ 0x5c

      /* Check the LSE State */
      if (RCC_OscInitStruct->LSEState != RCC_LSE_OFF)
 80042a0:	68a3      	ldr	r3, [r4, #8]
 80042a2:	2b00      	cmp	r3, #0
 80042a4:	d054      	beq.n	8004350 <HAL_RCC_OscConfig+0x310>
      {
        /* Get Start Tick*/
        tickstart = HAL_GetTick();
 80042a6:	f7fe f9c5 	bl	8002634 <HAL_GetTick>
 80042aa:	0006      	movs	r6, r0

        /* Wait till LSE is ready */
        while (READ_BIT(RCC->BDCR, RCC_BDCR_LSERDY) == 0U)
 80042ac:	4b31      	ldr	r3, [pc, #196]	@ (8004374 <HAL_RCC_OscConfig+0x334>)
 80042ae:	4698      	mov	r8, r3
 80042b0:	2702      	movs	r7, #2
        {
          if ((HAL_GetTick() - tickstart) > RCC_LSE_TIMEOUT_VALUE)
 80042b2:	4d3a      	ldr	r5, [pc, #232]	@ (800439c <HAL_RCC_OscConfig+0x35c>)
        while (READ_BIT(RCC->BDCR, RCC_BDCR_LSERDY) == 0U)
 80042b4:	4643      	mov	r3, r8
 80042b6:	6ddb      	ldr	r3, [r3, #92]	@ 0x5c
 80042b8:	421f      	tst	r7, r3
 80042ba:	d171      	bne.n	80043a0 <HAL_RCC_OscConfig+0x360>
          if ((HAL_GetTick() - tickstart) > RCC_LSE_TIMEOUT_VALUE)
 80042bc:	f7fe f9ba 	bl	8002634 <HAL_GetTick>
 80042c0:	1b80      	subs	r0, r0, r6
 80042c2:	42a8      	cmp	r0, r5
 80042c4:	d9f6      	bls.n	80042b4 <HAL_RCC_OscConfig+0x274>
          {
            return HAL_TIMEOUT;
 80042c6:	2003      	movs	r0, #3
 80042c8:	e102      	b.n	80044d0 <HAL_RCC_OscConfig+0x490>
        __HAL_RCC_LSI_DISABLE();
 80042ca:	4a2a      	ldr	r2, [pc, #168]	@ (8004374 <HAL_RCC_OscConfig+0x334>)
 80042cc:	6e13      	ldr	r3, [r2, #96]	@ 0x60
 80042ce:	2101      	movs	r1, #1
 80042d0:	438b      	bics	r3, r1
 80042d2:	6613      	str	r3, [r2, #96]	@ 0x60
        tickstart = HAL_GetTick();
 80042d4:	f7fe f9ae 	bl	8002634 <HAL_GetTick>
 80042d8:	0005      	movs	r5, r0
        while (READ_BIT(RCC->CSR, RCC_CSR_LSIRDY) != 0U)
 80042da:	4f26      	ldr	r7, [pc, #152]	@ (8004374 <HAL_RCC_OscConfig+0x334>)
 80042dc:	2602      	movs	r6, #2
 80042de:	6e3b      	ldr	r3, [r7, #96]	@ 0x60
 80042e0:	421e      	tst	r6, r3
 80042e2:	d0af      	beq.n	8004244 <HAL_RCC_OscConfig+0x204>
          if ((HAL_GetTick() - tickstart) > LSI_TIMEOUT_VALUE)
 80042e4:	f7fe f9a6 	bl	8002634 <HAL_GetTick>
 80042e8:	1b40      	subs	r0, r0, r5
 80042ea:	2802      	cmp	r0, #2
 80042ec:	d9f7      	bls.n	80042de <HAL_RCC_OscConfig+0x29e>
            return HAL_TIMEOUT;
 80042ee:	2003      	movs	r0, #3
 80042f0:	e0ee      	b.n	80044d0 <HAL_RCC_OscConfig+0x490>
      if ((((RCC->BDCR) & RCC_BDCR_LSERDY) != 0U) && (RCC_OscInitStruct->LSEState == RCC_LSE_OFF))
 80042f2:	4b20      	ldr	r3, [pc, #128]	@ (8004374 <HAL_RCC_OscConfig+0x334>)
 80042f4:	6ddb      	ldr	r3, [r3, #92]	@ 0x5c
 80042f6:	079b      	lsls	r3, r3, #30
 80042f8:	d555      	bpl.n	80043a6 <HAL_RCC_OscConfig+0x366>
 80042fa:	68a3      	ldr	r3, [r4, #8]
 80042fc:	2b00      	cmp	r3, #0
 80042fe:	d152      	bne.n	80043a6 <HAL_RCC_OscConfig+0x366>
        return HAL_ERROR;
 8004300:	2001      	movs	r0, #1
 8004302:	e0e5      	b.n	80044d0 <HAL_RCC_OscConfig+0x490>
        SET_BIT(PWR->CR1, PWR_CR1_DBP);
 8004304:	4a24      	ldr	r2, [pc, #144]	@ (8004398 <HAL_RCC_OscConfig+0x358>)
 8004306:	6811      	ldr	r1, [r2, #0]
 8004308:	2380      	movs	r3, #128	@ 0x80
 800430a:	005b      	lsls	r3, r3, #1
 800430c:	430b      	orrs	r3, r1
 800430e:	6013      	str	r3, [r2, #0]
        tickstart = HAL_GetTick();
 8004310:	f7fe f990 	bl	8002634 <HAL_GetTick>
 8004314:	0006      	movs	r6, r0
        while (HAL_IS_BIT_CLR(PWR->CR1, PWR_CR1_DBP))
 8004316:	4d20      	ldr	r5, [pc, #128]	@ (8004398 <HAL_RCC_OscConfig+0x358>)
 8004318:	2780      	movs	r7, #128	@ 0x80
 800431a:	007f      	lsls	r7, r7, #1
 800431c:	682b      	ldr	r3, [r5, #0]
 800431e:	423b      	tst	r3, r7
 8004320:	d1b0      	bne.n	8004284 <HAL_RCC_OscConfig+0x244>
          if ((HAL_GetTick() - tickstart) > RCC_DBP_TIMEOUT_VALUE)
 8004322:	f7fe f987 	bl	8002634 <HAL_GetTick>
 8004326:	1b80      	subs	r0, r0, r6
 8004328:	2802      	cmp	r0, #2
 800432a:	d9f7      	bls.n	800431c <HAL_RCC_OscConfig+0x2dc>
            return HAL_TIMEOUT;
 800432c:	2003      	movs	r0, #3
 800432e:	e0cf      	b.n	80044d0 <HAL_RCC_OscConfig+0x490>
      __HAL_RCC_LSE_CONFIG(RCC_OscInitStruct->LSEState);
 8004330:	4a10      	ldr	r2, [pc, #64]	@ (8004374 <HAL_RCC_OscConfig+0x334>)
 8004332:	6dd3      	ldr	r3, [r2, #92]	@ 0x5c
 8004334:	2101      	movs	r1, #1
 8004336:	430b      	orrs	r3, r1
 8004338:	65d3      	str	r3, [r2, #92]	@ 0x5c
 800433a:	e7b1      	b.n	80042a0 <HAL_RCC_OscConfig+0x260>
 800433c:	4b0d      	ldr	r3, [pc, #52]	@ (8004374 <HAL_RCC_OscConfig+0x334>)
 800433e:	6dda      	ldr	r2, [r3, #92]	@ 0x5c
 8004340:	2104      	movs	r1, #4
 8004342:	430a      	orrs	r2, r1
 8004344:	65da      	str	r2, [r3, #92]	@ 0x5c
 8004346:	6dda      	ldr	r2, [r3, #92]	@ 0x5c
 8004348:	3903      	subs	r1, #3
 800434a:	430a      	orrs	r2, r1
 800434c:	65da      	str	r2, [r3, #92]	@ 0x5c
 800434e:	e7a7      	b.n	80042a0 <HAL_RCC_OscConfig+0x260>
        }
      }
      else
      {
        /* Get Start Tick*/
        tickstart = HAL_GetTick();
 8004350:	f7fe f970 	bl	8002634 <HAL_GetTick>
 8004354:	0006      	movs	r6, r0

        /* Wait till LSE is disabled */
        while (READ_BIT(RCC->BDCR, RCC_BDCR_LSERDY) != 0U)
 8004356:	4b07      	ldr	r3, [pc, #28]	@ (8004374 <HAL_RCC_OscConfig+0x334>)
 8004358:	4698      	mov	r8, r3
 800435a:	2702      	movs	r7, #2
        {
          if ((HAL_GetTick() - tickstart) > RCC_LSE_TIMEOUT_VALUE)
 800435c:	4d0f      	ldr	r5, [pc, #60]	@ (800439c <HAL_RCC_OscConfig+0x35c>)
        while (READ_BIT(RCC->BDCR, RCC_BDCR_LSERDY) != 0U)
 800435e:	4643      	mov	r3, r8
 8004360:	6ddb      	ldr	r3, [r3, #92]	@ 0x5c
 8004362:	421f      	tst	r7, r3
 8004364:	d01c      	beq.n	80043a0 <HAL_RCC_OscConfig+0x360>
          if ((HAL_GetTick() - tickstart) > RCC_LSE_TIMEOUT_VALUE)
 8004366:	f7fe f965 	bl	8002634 <HAL_GetTick>
 800436a:	1b80      	subs	r0, r0, r6
 800436c:	42a8      	cmp	r0, r5
 800436e:	d9f6      	bls.n	800435e <HAL_RCC_OscConfig+0x31e>
          {
            return HAL_TIMEOUT;
 8004370:	2003      	movs	r0, #3
 8004372:	e0ad      	b.n	80044d0 <HAL_RCC_OscConfig+0x490>
 8004374:	40021000 	.word	0x40021000
 8004378:	fffeffff 	.word	0xfffeffff
 800437c:	fffbffff 	.word	0xfffbffff
 8004380:	ffff80ff 	.word	0xffff80ff
 8004384:	ffffc7ff 	.word	0xffffc7ff
 8004388:	20000018 	.word	0x20000018
 800438c:	00f42400 	.word	0x00f42400
 8004390:	20000020 	.word	0x20000020
 8004394:	fffffeff 	.word	0xfffffeff
 8004398:	40007000 	.word	0x40007000
 800439c:	00001388 	.word	0x00001388
          }
        }
      }

      /* Restore clock configuration if changed */
      if (pwrclkchanged == SET)
 80043a0:	464b      	mov	r3, r9
 80043a2:	2b01      	cmp	r3, #1
 80043a4:	d021      	beq.n	80043ea <HAL_RCC_OscConfig+0x3aa>
#endif /* RCC_HSI48_SUPPORT */
  /*-------------------------------- PLL Configuration -----------------------*/
  /* Check the parameters */
  assert_param(IS_RCC_PLL(RCC_OscInitStruct->PLL.PLLState));

  if (RCC_OscInitStruct->PLL.PLLState != RCC_PLL_NONE)
 80043a6:	69e3      	ldr	r3, [r4, #28]
          return HAL_ERROR;
        }
      }
    }
  }
  return HAL_OK;
 80043a8:	2000      	movs	r0, #0
  if (RCC_OscInitStruct->PLL.PLLState != RCC_PLL_NONE)
 80043aa:	2b00      	cmp	r3, #0
 80043ac:	d100      	bne.n	80043b0 <HAL_RCC_OscConfig+0x370>
 80043ae:	e08f      	b.n	80044d0 <HAL_RCC_OscConfig+0x490>
    if (__HAL_RCC_GET_SYSCLK_SOURCE() != RCC_SYSCLKSOURCE_STATUS_PLLCLK)
 80043b0:	4a62      	ldr	r2, [pc, #392]	@ (800453c <HAL_RCC_OscConfig+0x4fc>)
 80043b2:	6891      	ldr	r1, [r2, #8]
 80043b4:	2238      	movs	r2, #56	@ 0x38
 80043b6:	400a      	ands	r2, r1
 80043b8:	2a10      	cmp	r2, #16
 80043ba:	d064      	beq.n	8004486 <HAL_RCC_OscConfig+0x446>
      if (RCC_OscInitStruct->PLL.PLLState == RCC_PLL_ON)
 80043bc:	2b02      	cmp	r3, #2
 80043be:	d01a      	beq.n	80043f6 <HAL_RCC_OscConfig+0x3b6>
        __HAL_RCC_PLL_DISABLE();
 80043c0:	4a5e      	ldr	r2, [pc, #376]	@ (800453c <HAL_RCC_OscConfig+0x4fc>)
 80043c2:	6813      	ldr	r3, [r2, #0]
 80043c4:	495e      	ldr	r1, [pc, #376]	@ (8004540 <HAL_RCC_OscConfig+0x500>)
 80043c6:	400b      	ands	r3, r1
 80043c8:	6013      	str	r3, [r2, #0]
        tickstart = HAL_GetTick();
 80043ca:	f7fe f933 	bl	8002634 <HAL_GetTick>
 80043ce:	0004      	movs	r4, r0
        while (READ_BIT(RCC->CR, RCC_CR_PLLRDY) != 0U)
 80043d0:	4e5a      	ldr	r6, [pc, #360]	@ (800453c <HAL_RCC_OscConfig+0x4fc>)
 80043d2:	2580      	movs	r5, #128	@ 0x80
 80043d4:	04ad      	lsls	r5, r5, #18
 80043d6:	6833      	ldr	r3, [r6, #0]
 80043d8:	422b      	tst	r3, r5
 80043da:	d04d      	beq.n	8004478 <HAL_RCC_OscConfig+0x438>
          if ((HAL_GetTick() - tickstart) > PLL_TIMEOUT_VALUE)
 80043dc:	f7fe f92a 	bl	8002634 <HAL_GetTick>
 80043e0:	1b00      	subs	r0, r0, r4
 80043e2:	2802      	cmp	r0, #2
 80043e4:	d9f7      	bls.n	80043d6 <HAL_RCC_OscConfig+0x396>
            return HAL_TIMEOUT;
 80043e6:	2003      	movs	r0, #3
 80043e8:	e072      	b.n	80044d0 <HAL_RCC_OscConfig+0x490>
        __HAL_RCC_PWR_CLK_DISABLE();
 80043ea:	4a54      	ldr	r2, [pc, #336]	@ (800453c <HAL_RCC_OscConfig+0x4fc>)
 80043ec:	6bd3      	ldr	r3, [r2, #60]	@ 0x3c
 80043ee:	4955      	ldr	r1, [pc, #340]	@ (8004544 <HAL_RCC_OscConfig+0x504>)
 80043f0:	400b      	ands	r3, r1
 80043f2:	63d3      	str	r3, [r2, #60]	@ 0x3c
 80043f4:	e7d7      	b.n	80043a6 <HAL_RCC_OscConfig+0x366>
        __HAL_RCC_PLL_DISABLE();
 80043f6:	4a51      	ldr	r2, [pc, #324]	@ (800453c <HAL_RCC_OscConfig+0x4fc>)
 80043f8:	6813      	ldr	r3, [r2, #0]
 80043fa:	4951      	ldr	r1, [pc, #324]	@ (8004540 <HAL_RCC_OscConfig+0x500>)
 80043fc:	400b      	ands	r3, r1
 80043fe:	6013      	str	r3, [r2, #0]
        tickstart = HAL_GetTick();
 8004400:	f7fe f918 	bl	8002634 <HAL_GetTick>
 8004404:	0005      	movs	r5, r0
        while (READ_BIT(RCC->CR, RCC_CR_PLLRDY) != 0U)
 8004406:	4f4d      	ldr	r7, [pc, #308]	@ (800453c <HAL_RCC_OscConfig+0x4fc>)
 8004408:	2680      	movs	r6, #128	@ 0x80
 800440a:	04b6      	lsls	r6, r6, #18
 800440c:	683b      	ldr	r3, [r7, #0]
 800440e:	4233      	tst	r3, r6
 8004410:	d006      	beq.n	8004420 <HAL_RCC_OscConfig+0x3e0>
          if ((HAL_GetTick() - tickstart) > PLL_TIMEOUT_VALUE)
 8004412:	f7fe f90f 	bl	8002634 <HAL_GetTick>
 8004416:	1b40      	subs	r0, r0, r5
 8004418:	2802      	cmp	r0, #2
 800441a:	d9f7      	bls.n	800440c <HAL_RCC_OscConfig+0x3cc>
            return HAL_TIMEOUT;
 800441c:	2003      	movs	r0, #3
 800441e:	e057      	b.n	80044d0 <HAL_RCC_OscConfig+0x490>
        __HAL_RCC_PLL_CONFIG(RCC_OscInitStruct->PLL.PLLSource,
 8004420:	4a46      	ldr	r2, [pc, #280]	@ (800453c <HAL_RCC_OscConfig+0x4fc>)
 8004422:	68d1      	ldr	r1, [r2, #12]
 8004424:	6a23      	ldr	r3, [r4, #32]
 8004426:	6a60      	ldr	r0, [r4, #36]	@ 0x24
 8004428:	4303      	orrs	r3, r0
 800442a:	4847      	ldr	r0, [pc, #284]	@ (8004548 <HAL_RCC_OscConfig+0x508>)
 800442c:	4001      	ands	r1, r0
 800442e:	430b      	orrs	r3, r1
 8004430:	6ae1      	ldr	r1, [r4, #44]	@ 0x2c
 8004432:	430b      	orrs	r3, r1
 8004434:	6b21      	ldr	r1, [r4, #48]	@ 0x30
 8004436:	430b      	orrs	r3, r1
 8004438:	6aa1      	ldr	r1, [r4, #40]	@ 0x28
 800443a:	0209      	lsls	r1, r1, #8
 800443c:	430b      	orrs	r3, r1
 800443e:	60d3      	str	r3, [r2, #12]
        __HAL_RCC_PLL_ENABLE();
 8004440:	6811      	ldr	r1, [r2, #0]
 8004442:	2380      	movs	r3, #128	@ 0x80
 8004444:	045b      	lsls	r3, r3, #17
 8004446:	430b      	orrs	r3, r1
 8004448:	6013      	str	r3, [r2, #0]
        __HAL_RCC_PLLCLKOUT_ENABLE(RCC_PLLRCLK);
 800444a:	68d1      	ldr	r1, [r2, #12]
 800444c:	2380      	movs	r3, #128	@ 0x80
 800444e:	055b      	lsls	r3, r3, #21
 8004450:	430b      	orrs	r3, r1
 8004452:	60d3      	str	r3, [r2, #12]
        tickstart = HAL_GetTick();
 8004454:	f7fe f8ee 	bl	8002634 <HAL_GetTick>
 8004458:	0004      	movs	r4, r0
        while (READ_BIT(RCC->CR, RCC_CR_PLLRDY) == 0U)
 800445a:	4e38      	ldr	r6, [pc, #224]	@ (800453c <HAL_RCC_OscConfig+0x4fc>)
 800445c:	2580      	movs	r5, #128	@ 0x80
 800445e:	04ad      	lsls	r5, r5, #18
 8004460:	6833      	ldr	r3, [r6, #0]
 8004462:	422b      	tst	r3, r5
 8004464:	d106      	bne.n	8004474 <HAL_RCC_OscConfig+0x434>
          if ((HAL_GetTick() - tickstart) > PLL_TIMEOUT_VALUE)
 8004466:	f7fe f8e5 	bl	8002634 <HAL_GetTick>
 800446a:	1b00      	subs	r0, r0, r4
 800446c:	2802      	cmp	r0, #2
 800446e:	d9f7      	bls.n	8004460 <HAL_RCC_OscConfig+0x420>
            return HAL_TIMEOUT;
 8004470:	2003      	movs	r0, #3
 8004472:	e02d      	b.n	80044d0 <HAL_RCC_OscConfig+0x490>
  return HAL_OK;
 8004474:	2000      	movs	r0, #0
 8004476:	e02b      	b.n	80044d0 <HAL_RCC_OscConfig+0x490>
        RCC->PLLCFGR &= ~(RCC_PLLCFGR_PLLSRC | RCC_PLLCFGR_PLLPEN | RCC_PLLCFGR_PLLREN);
 8004478:	4a30      	ldr	r2, [pc, #192]	@ (800453c <HAL_RCC_OscConfig+0x4fc>)
 800447a:	68d3      	ldr	r3, [r2, #12]
 800447c:	4933      	ldr	r1, [pc, #204]	@ (800454c <HAL_RCC_OscConfig+0x50c>)
 800447e:	400b      	ands	r3, r1
 8004480:	60d3      	str	r3, [r2, #12]
  return HAL_OK;
 8004482:	2000      	movs	r0, #0
 8004484:	e024      	b.n	80044d0 <HAL_RCC_OscConfig+0x490>
      if ((RCC_OscInitStruct->PLL.PLLState) == RCC_PLL_OFF)
 8004486:	2b01      	cmp	r3, #1
 8004488:	d02d      	beq.n	80044e6 <HAL_RCC_OscConfig+0x4a6>
        temp_pllckcfg = RCC->PLLCFGR;
 800448a:	4b2c      	ldr	r3, [pc, #176]	@ (800453c <HAL_RCC_OscConfig+0x4fc>)
 800448c:	68da      	ldr	r2, [r3, #12]
        if ((READ_BIT(temp_pllckcfg, RCC_PLLCFGR_PLLSRC) != RCC_OscInitStruct->PLL.PLLSource) ||
 800448e:	2303      	movs	r3, #3
 8004490:	4013      	ands	r3, r2
 8004492:	6a21      	ldr	r1, [r4, #32]
          return HAL_ERROR;
 8004494:	2001      	movs	r0, #1
        if ((READ_BIT(temp_pllckcfg, RCC_PLLCFGR_PLLSRC) != RCC_OscInitStruct->PLL.PLLSource) ||
 8004496:	428b      	cmp	r3, r1
 8004498:	d11a      	bne.n	80044d0 <HAL_RCC_OscConfig+0x490>
            (READ_BIT(temp_pllckcfg, RCC_PLLCFGR_PLLM) != RCC_OscInitStruct->PLL.PLLM) ||
 800449a:	2370      	movs	r3, #112	@ 0x70
 800449c:	4013      	ands	r3, r2
        if ((READ_BIT(temp_pllckcfg, RCC_PLLCFGR_PLLSRC) != RCC_OscInitStruct->PLL.PLLSource) ||
 800449e:	6a61      	ldr	r1, [r4, #36]	@ 0x24
 80044a0:	428b      	cmp	r3, r1
 80044a2:	d115      	bne.n	80044d0 <HAL_RCC_OscConfig+0x490>
            (READ_BIT(temp_pllckcfg, RCC_PLLCFGR_PLLN) != (RCC_OscInitStruct->PLL.PLLN << RCC_PLLCFGR_PLLN_Pos)) ||
 80044a4:	21fe      	movs	r1, #254	@ 0xfe
 80044a6:	01c9      	lsls	r1, r1, #7
 80044a8:	4011      	ands	r1, r2
 80044aa:	6aa3      	ldr	r3, [r4, #40]	@ 0x28
 80044ac:	021b      	lsls	r3, r3, #8
            (READ_BIT(temp_pllckcfg, RCC_PLLCFGR_PLLM) != RCC_OscInitStruct->PLL.PLLM) ||
 80044ae:	4299      	cmp	r1, r3
 80044b0:	d10e      	bne.n	80044d0 <HAL_RCC_OscConfig+0x490>
            (READ_BIT(temp_pllckcfg, RCC_PLLCFGR_PLLP) != RCC_OscInitStruct->PLL.PLLP) ||
 80044b2:	23f8      	movs	r3, #248	@ 0xf8
 80044b4:	039b      	lsls	r3, r3, #14
 80044b6:	4013      	ands	r3, r2
            (READ_BIT(temp_pllckcfg, RCC_PLLCFGR_PLLN) != (RCC_OscInitStruct->PLL.PLLN << RCC_PLLCFGR_PLLN_Pos)) ||
 80044b8:	6ae1      	ldr	r1, [r4, #44]	@ 0x2c
 80044ba:	428b      	cmp	r3, r1
 80044bc:	d108      	bne.n	80044d0 <HAL_RCC_OscConfig+0x490>
            (READ_BIT(temp_pllckcfg, RCC_PLLCFGR_PLLR) != RCC_OscInitStruct->PLL.PLLR))
 80044be:	0f53      	lsrs	r3, r2, #29
 80044c0:	075b      	lsls	r3, r3, #29
            (READ_BIT(temp_pllckcfg, RCC_PLLCFGR_PLLP) != RCC_OscInitStruct->PLL.PLLP) ||
 80044c2:	6b22      	ldr	r2, [r4, #48]	@ 0x30
 80044c4:	1a9b      	subs	r3, r3, r2
 80044c6:	1e5a      	subs	r2, r3, #1
 80044c8:	4193      	sbcs	r3, r2
 80044ca:	b2d8      	uxtb	r0, r3
 80044cc:	e000      	b.n	80044d0 <HAL_RCC_OscConfig+0x490>
    return HAL_ERROR;
 80044ce:	2001      	movs	r0, #1
}
 80044d0:	b003      	add	sp, #12
 80044d2:	bcc0      	pop	{r6, r7}
 80044d4:	46b9      	mov	r9, r7
 80044d6:	46b0      	mov	r8, r6
 80044d8:	bdf0      	pop	{r4, r5, r6, r7, pc}
        return HAL_ERROR;
 80044da:	2001      	movs	r0, #1
 80044dc:	e7f8      	b.n	80044d0 <HAL_RCC_OscConfig+0x490>
          return HAL_ERROR;
 80044de:	2001      	movs	r0, #1
 80044e0:	e7f6      	b.n	80044d0 <HAL_RCC_OscConfig+0x490>
        return HAL_ERROR;
 80044e2:	2001      	movs	r0, #1
 80044e4:	e7f4      	b.n	80044d0 <HAL_RCC_OscConfig+0x490>
        return HAL_ERROR;
 80044e6:	2001      	movs	r0, #1
 80044e8:	e7f2      	b.n	80044d0 <HAL_RCC_OscConfig+0x490>
        return HAL_ERROR;
 80044ea:	2001      	movs	r0, #1
 80044ec:	e7f0      	b.n	80044d0 <HAL_RCC_OscConfig+0x490>
        __HAL_RCC_HSI_CALIBRATIONVALUE_ADJUST(RCC_OscInitStruct->HSICalibrationValue);
 80044ee:	4913      	ldr	r1, [pc, #76]	@ (800453c <HAL_RCC_OscConfig+0x4fc>)
 80044f0:	684a      	ldr	r2, [r1, #4]
 80044f2:	6963      	ldr	r3, [r4, #20]
 80044f4:	021b      	lsls	r3, r3, #8
 80044f6:	4816      	ldr	r0, [pc, #88]	@ (8004550 <HAL_RCC_OscConfig+0x510>)
 80044f8:	4002      	ands	r2, r0
 80044fa:	4313      	orrs	r3, r2
 80044fc:	604b      	str	r3, [r1, #4]
        if (temp_sysclksrc == RCC_SYSCLKSOURCE_STATUS_HSI)
 80044fe:	e60a      	b.n	8004116 <HAL_RCC_OscConfig+0xd6>
      if ((READ_BIT(RCC->CR, RCC_CR_HSIRDY) != 0U) && (RCC_OscInitStruct->HSIState == RCC_HSI_OFF))
 8004500:	4b0e      	ldr	r3, [pc, #56]	@ (800453c <HAL_RCC_OscConfig+0x4fc>)
 8004502:	681b      	ldr	r3, [r3, #0]
 8004504:	055b      	lsls	r3, r3, #21
 8004506:	d5f2      	bpl.n	80044ee <HAL_RCC_OscConfig+0x4ae>
 8004508:	68e3      	ldr	r3, [r4, #12]
 800450a:	2b00      	cmp	r3, #0
 800450c:	d0ed      	beq.n	80044ea <HAL_RCC_OscConfig+0x4aa>
        __HAL_RCC_HSI_CALIBRATIONVALUE_ADJUST(RCC_OscInitStruct->HSICalibrationValue);
 800450e:	490b      	ldr	r1, [pc, #44]	@ (800453c <HAL_RCC_OscConfig+0x4fc>)
 8004510:	684a      	ldr	r2, [r1, #4]
 8004512:	6963      	ldr	r3, [r4, #20]
 8004514:	021b      	lsls	r3, r3, #8
 8004516:	480e      	ldr	r0, [pc, #56]	@ (8004550 <HAL_RCC_OscConfig+0x510>)
 8004518:	4002      	ands	r2, r0
 800451a:	4313      	orrs	r3, r2
 800451c:	604b      	str	r3, [r1, #4]
        if (temp_sysclksrc == RCC_SYSCLKSOURCE_STATUS_HSI)
 800451e:	e5fa      	b.n	8004116 <HAL_RCC_OscConfig+0xd6>
      if ((READ_BIT(RCC->CR, RCC_CR_HSIRDY) != 0U) && (RCC_OscInitStruct->HSIState == RCC_HSI_OFF))
 8004520:	68e3      	ldr	r3, [r4, #12]
        return HAL_ERROR;
 8004522:	2001      	movs	r0, #1
      if ((READ_BIT(RCC->CR, RCC_CR_HSIRDY) != 0U) && (RCC_OscInitStruct->HSIState == RCC_HSI_OFF))
 8004524:	2b00      	cmp	r3, #0
 8004526:	d0d3      	beq.n	80044d0 <HAL_RCC_OscConfig+0x490>
        __HAL_RCC_HSI_CALIBRATIONVALUE_ADJUST(RCC_OscInitStruct->HSICalibrationValue);
 8004528:	4904      	ldr	r1, [pc, #16]	@ (800453c <HAL_RCC_OscConfig+0x4fc>)
 800452a:	684a      	ldr	r2, [r1, #4]
 800452c:	6963      	ldr	r3, [r4, #20]
 800452e:	021b      	lsls	r3, r3, #8
 8004530:	4807      	ldr	r0, [pc, #28]	@ (8004550 <HAL_RCC_OscConfig+0x510>)
 8004532:	4002      	ands	r2, r0
 8004534:	4313      	orrs	r3, r2
 8004536:	604b      	str	r3, [r1, #4]
        if (temp_sysclksrc == RCC_SYSCLKSOURCE_STATUS_HSI)
 8004538:	e5df      	b.n	80040fa <HAL_RCC_OscConfig+0xba>
 800453a:	46c0      	nop			@ (mov r8, r8)
 800453c:	40021000 	.word	0x40021000
 8004540:	feffffff 	.word	0xfeffffff
 8004544:	efffffff 	.word	0xefffffff
 8004548:	1fc1808c 	.word	0x1fc1808c
 800454c:	effefffc 	.word	0xeffefffc
 8004550:	ffff80ff 	.word	0xffff80ff

08004554 <HAL_RCC_GetSysClockFreq>:
  *
  *
  * @retval SYSCLK frequency
  */
uint32_t HAL_RCC_GetSysClockFreq(void)
{
 8004554:	b510      	push	{r4, lr}
  uint32_t pllvco, pllsource, pllr, pllm, hsidiv;
  uint32_t sysclockfreq;

  if (__HAL_RCC_GET_SYSCLK_SOURCE() == RCC_SYSCLKSOURCE_STATUS_HSI)
 8004556:	4b29      	ldr	r3, [pc, #164]	@ (80045fc <HAL_RCC_GetSysClockFreq+0xa8>)
 8004558:	689b      	ldr	r3, [r3, #8]
 800455a:	2238      	movs	r2, #56	@ 0x38
 800455c:	421a      	tst	r2, r3
 800455e:	d106      	bne.n	800456e <HAL_RCC_GetSysClockFreq+0x1a>
  {
    /* HSISYS can be derived for HSI16 */
    hsidiv = (1UL << ((READ_BIT(RCC->CR, RCC_CR_HSIDIV)) >> RCC_CR_HSIDIV_Pos));
 8004560:	4b26      	ldr	r3, [pc, #152]	@ (80045fc <HAL_RCC_GetSysClockFreq+0xa8>)
 8004562:	681b      	ldr	r3, [r3, #0]
 8004564:	049b      	lsls	r3, r3, #18
 8004566:	0f5b      	lsrs	r3, r3, #29

    /* HSI used as system clock source */
    sysclockfreq = (HSI_VALUE / hsidiv);
 8004568:	4825      	ldr	r0, [pc, #148]	@ (8004600 <HAL_RCC_GetSysClockFreq+0xac>)
 800456a:	40d8      	lsrs	r0, r3
  {
    sysclockfreq = 0U;
  }

  return sysclockfreq;
}
 800456c:	bd10      	pop	{r4, pc}
  else if (__HAL_RCC_GET_SYSCLK_SOURCE() == RCC_SYSCLKSOURCE_STATUS_HSE)
 800456e:	4b23      	ldr	r3, [pc, #140]	@ (80045fc <HAL_RCC_GetSysClockFreq+0xa8>)
 8004570:	689a      	ldr	r2, [r3, #8]
 8004572:	2338      	movs	r3, #56	@ 0x38
 8004574:	4013      	ands	r3, r2
 8004576:	2b08      	cmp	r3, #8
 8004578:	d03a      	beq.n	80045f0 <HAL_RCC_GetSysClockFreq+0x9c>
  else if (__HAL_RCC_GET_SYSCLK_SOURCE() == RCC_SYSCLKSOURCE_STATUS_PLLCLK)
 800457a:	4b20      	ldr	r3, [pc, #128]	@ (80045fc <HAL_RCC_GetSysClockFreq+0xa8>)
 800457c:	689a      	ldr	r2, [r3, #8]
 800457e:	2338      	movs	r3, #56	@ 0x38
 8004580:	4013      	ands	r3, r2
 8004582:	2b10      	cmp	r3, #16
 8004584:	d014      	beq.n	80045b0 <HAL_RCC_GetSysClockFreq+0x5c>
  else if (__HAL_RCC_GET_SYSCLK_SOURCE() == RCC_SYSCLKSOURCE_STATUS_LSE)
 8004586:	4b1d      	ldr	r3, [pc, #116]	@ (80045fc <HAL_RCC_GetSysClockFreq+0xa8>)
 8004588:	689a      	ldr	r2, [r3, #8]
 800458a:	2338      	movs	r3, #56	@ 0x38
 800458c:	4013      	ands	r3, r2
 800458e:	2b20      	cmp	r3, #32
 8004590:	d030      	beq.n	80045f4 <HAL_RCC_GetSysClockFreq+0xa0>
  else if (__HAL_RCC_GET_SYSCLK_SOURCE() == RCC_SYSCLKSOURCE_STATUS_LSI)
 8004592:	4b1a      	ldr	r3, [pc, #104]	@ (80045fc <HAL_RCC_GetSysClockFreq+0xa8>)
 8004594:	689b      	ldr	r3, [r3, #8]
 8004596:	2038      	movs	r0, #56	@ 0x38
 8004598:	4018      	ands	r0, r3
    sysclockfreq = LSI_VALUE;
 800459a:	3818      	subs	r0, #24
 800459c:	1e43      	subs	r3, r0, #1
 800459e:	4198      	sbcs	r0, r3
 80045a0:	4240      	negs	r0, r0
 80045a2:	4b18      	ldr	r3, [pc, #96]	@ (8004604 <HAL_RCC_GetSysClockFreq+0xb0>)
 80045a4:	4018      	ands	r0, r3
 80045a6:	23fa      	movs	r3, #250	@ 0xfa
 80045a8:	01db      	lsls	r3, r3, #7
 80045aa:	469c      	mov	ip, r3
 80045ac:	4460      	add	r0, ip
 80045ae:	e7dd      	b.n	800456c <HAL_RCC_GetSysClockFreq+0x18>
    pllsource = (RCC->PLLCFGR & RCC_PLLCFGR_PLLSRC);
 80045b0:	4a12      	ldr	r2, [pc, #72]	@ (80045fc <HAL_RCC_GetSysClockFreq+0xa8>)
 80045b2:	68d3      	ldr	r3, [r2, #12]
    pllm = ((RCC->PLLCFGR & RCC_PLLCFGR_PLLM) >> RCC_PLLCFGR_PLLM_Pos) + 1U ;
 80045b4:	68d1      	ldr	r1, [r2, #12]
 80045b6:	0649      	lsls	r1, r1, #25
 80045b8:	0f49      	lsrs	r1, r1, #29
 80045ba:	3101      	adds	r1, #1
    pllsource = (RCC->PLLCFGR & RCC_PLLCFGR_PLLSRC);
 80045bc:	43db      	mvns	r3, r3
    switch (pllsource)
 80045be:	079b      	lsls	r3, r3, #30
 80045c0:	d00e      	beq.n	80045e0 <HAL_RCC_GetSysClockFreq+0x8c>
        pllvco = (HSI_VALUE / pllm) * ((RCC->PLLCFGR & RCC_PLLCFGR_PLLN) >> RCC_PLLCFGR_PLLN_Pos) ;
 80045c2:	4b0e      	ldr	r3, [pc, #56]	@ (80045fc <HAL_RCC_GetSysClockFreq+0xa8>)
 80045c4:	68dc      	ldr	r4, [r3, #12]
 80045c6:	0464      	lsls	r4, r4, #17
 80045c8:	0e64      	lsrs	r4, r4, #25
 80045ca:	480d      	ldr	r0, [pc, #52]	@ (8004600 <HAL_RCC_GetSysClockFreq+0xac>)
 80045cc:	f7fb fda2 	bl	8000114 <__udivsi3>
 80045d0:	4360      	muls	r0, r4
    pllr = (((RCC->PLLCFGR & RCC_PLLCFGR_PLLR) >> RCC_PLLCFGR_PLLR_Pos) + 1U);
 80045d2:	4b0a      	ldr	r3, [pc, #40]	@ (80045fc <HAL_RCC_GetSysClockFreq+0xa8>)
 80045d4:	68d9      	ldr	r1, [r3, #12]
 80045d6:	0f49      	lsrs	r1, r1, #29
 80045d8:	3101      	adds	r1, #1
    sysclockfreq = pllvco / pllr;
 80045da:	f7fb fd9b 	bl	8000114 <__udivsi3>
 80045de:	e7c5      	b.n	800456c <HAL_RCC_GetSysClockFreq+0x18>
        pllvco = (HSE_VALUE / pllm) * ((RCC->PLLCFGR & RCC_PLLCFGR_PLLN) >> RCC_PLLCFGR_PLLN_Pos);
 80045e0:	68d4      	ldr	r4, [r2, #12]
 80045e2:	0464      	lsls	r4, r4, #17
 80045e4:	0e64      	lsrs	r4, r4, #25
 80045e6:	4808      	ldr	r0, [pc, #32]	@ (8004608 <HAL_RCC_GetSysClockFreq+0xb4>)
 80045e8:	f7fb fd94 	bl	8000114 <__udivsi3>
 80045ec:	4360      	muls	r0, r4
        break;
 80045ee:	e7f0      	b.n	80045d2 <HAL_RCC_GetSysClockFreq+0x7e>
    sysclockfreq = HSE_VALUE;
 80045f0:	4805      	ldr	r0, [pc, #20]	@ (8004608 <HAL_RCC_GetSysClockFreq+0xb4>)
 80045f2:	e7bb      	b.n	800456c <HAL_RCC_GetSysClockFreq+0x18>
    sysclockfreq = LSE_VALUE;
 80045f4:	2080      	movs	r0, #128	@ 0x80
 80045f6:	0200      	lsls	r0, r0, #8
 80045f8:	e7b8      	b.n	800456c <HAL_RCC_GetSysClockFreq+0x18>
 80045fa:	46c0      	nop			@ (mov r8, r8)
 80045fc:	40021000 	.word	0x40021000
 8004600:	00f42400 	.word	0x00f42400
 8004604:	ffff8300 	.word	0xffff8300
 8004608:	007a1200 	.word	0x007a1200

0800460c <HAL_RCC_ClockConfig>:
{
 800460c:	b5f8      	push	{r3, r4, r5, r6, r7, lr}
 800460e:	46ce      	mov	lr, r9
 8004610:	4647      	mov	r7, r8
 8004612:	b580      	push	{r7, lr}
 8004614:	0004      	movs	r4, r0
 8004616:	000d      	movs	r5, r1
  if (RCC_ClkInitStruct == NULL)
 8004618:	2800      	cmp	r0, #0
 800461a:	d100      	bne.n	800461e <HAL_RCC_ClockConfig+0x12>
 800461c:	e0b6      	b.n	800478c <HAL_RCC_ClockConfig+0x180>
  if (FLatency > __HAL_FLASH_GET_LATENCY())
 800461e:	4b5d      	ldr	r3, [pc, #372]	@ (8004794 <HAL_RCC_ClockConfig+0x188>)
 8004620:	681a      	ldr	r2, [r3, #0]
 8004622:	2307      	movs	r3, #7
 8004624:	4013      	ands	r3, r2
 8004626:	428b      	cmp	r3, r1
 8004628:	d321      	bcc.n	800466e <HAL_RCC_ClockConfig+0x62>
  if (((RCC_ClkInitStruct->ClockType) & RCC_CLOCKTYPE_HCLK) == RCC_CLOCKTYPE_HCLK)
 800462a:	6823      	ldr	r3, [r4, #0]
 800462c:	079a      	lsls	r2, r3, #30
 800462e:	d50e      	bpl.n	800464e <HAL_RCC_ClockConfig+0x42>
    if (((RCC_ClkInitStruct->ClockType) & RCC_CLOCKTYPE_PCLK1) == RCC_CLOCKTYPE_PCLK1)
 8004630:	075b      	lsls	r3, r3, #29
 8004632:	d505      	bpl.n	8004640 <HAL_RCC_ClockConfig+0x34>
      MODIFY_REG(RCC->CFGR, RCC_CFGR_PPRE, RCC_HCLK_DIV16);
 8004634:	4a58      	ldr	r2, [pc, #352]	@ (8004798 <HAL_RCC_ClockConfig+0x18c>)
 8004636:	6891      	ldr	r1, [r2, #8]
 8004638:	23e0      	movs	r3, #224	@ 0xe0
 800463a:	01db      	lsls	r3, r3, #7
 800463c:	430b      	orrs	r3, r1
 800463e:	6093      	str	r3, [r2, #8]
    MODIFY_REG(RCC->CFGR, RCC_CFGR_HPRE, RCC_ClkInitStruct->AHBCLKDivider);
 8004640:	4a55      	ldr	r2, [pc, #340]	@ (8004798 <HAL_RCC_ClockConfig+0x18c>)
 8004642:	6893      	ldr	r3, [r2, #8]
 8004644:	4955      	ldr	r1, [pc, #340]	@ (800479c <HAL_RCC_ClockConfig+0x190>)
 8004646:	400b      	ands	r3, r1
 8004648:	68a1      	ldr	r1, [r4, #8]
 800464a:	430b      	orrs	r3, r1
 800464c:	6093      	str	r3, [r2, #8]
  if (((RCC_ClkInitStruct->ClockType) & RCC_CLOCKTYPE_SYSCLK) == RCC_CLOCKTYPE_SYSCLK)
 800464e:	6823      	ldr	r3, [r4, #0]
 8004650:	07db      	lsls	r3, r3, #31
 8004652:	d55b      	bpl.n	800470c <HAL_RCC_ClockConfig+0x100>
    if (RCC_ClkInitStruct->SYSCLKSource == RCC_SYSCLKSOURCE_HSE)
 8004654:	6863      	ldr	r3, [r4, #4]
 8004656:	2b01      	cmp	r3, #1
 8004658:	d023      	beq.n	80046a2 <HAL_RCC_ClockConfig+0x96>
    else if (RCC_ClkInitStruct->SYSCLKSource == RCC_SYSCLKSOURCE_PLLCLK)
 800465a:	2b02      	cmp	r3, #2
 800465c:	d042      	beq.n	80046e4 <HAL_RCC_ClockConfig+0xd8>
    else if (RCC_ClkInitStruct->SYSCLKSource == RCC_SYSCLKSOURCE_HSI)
 800465e:	2b00      	cmp	r3, #0
 8004660:	d146      	bne.n	80046f0 <HAL_RCC_ClockConfig+0xe4>
      if (READ_BIT(RCC->CR, RCC_CR_HSIRDY) == 0U)
 8004662:	4a4d      	ldr	r2, [pc, #308]	@ (8004798 <HAL_RCC_ClockConfig+0x18c>)
 8004664:	6812      	ldr	r2, [r2, #0]
 8004666:	0552      	lsls	r2, r2, #21
 8004668:	d420      	bmi.n	80046ac <HAL_RCC_ClockConfig+0xa0>
        return HAL_ERROR;
 800466a:	2001      	movs	r0, #1
 800466c:	e070      	b.n	8004750 <HAL_RCC_ClockConfig+0x144>
    __HAL_FLASH_SET_LATENCY(FLatency);
 800466e:	4a49      	ldr	r2, [pc, #292]	@ (8004794 <HAL_RCC_ClockConfig+0x188>)
 8004670:	6813      	ldr	r3, [r2, #0]
 8004672:	2107      	movs	r1, #7
 8004674:	438b      	bics	r3, r1
 8004676:	432b      	orrs	r3, r5
 8004678:	6013      	str	r3, [r2, #0]
    tickstart = HAL_GetTick();
 800467a:	f7fd ffdb 	bl	8002634 <HAL_GetTick>
 800467e:	0006      	movs	r6, r0
    while ((FLASH->ACR & FLASH_ACR_LATENCY) != FLatency)
 8004680:	4b44      	ldr	r3, [pc, #272]	@ (8004794 <HAL_RCC_ClockConfig+0x188>)
 8004682:	4698      	mov	r8, r3
 8004684:	2707      	movs	r7, #7
      if ((HAL_GetTick() - tickstart) > CLOCKSWITCH_TIMEOUT_VALUE)
 8004686:	4b46      	ldr	r3, [pc, #280]	@ (80047a0 <HAL_RCC_ClockConfig+0x194>)
 8004688:	4699      	mov	r9, r3
    while ((FLASH->ACR & FLASH_ACR_LATENCY) != FLatency)
 800468a:	4643      	mov	r3, r8
 800468c:	681b      	ldr	r3, [r3, #0]
 800468e:	403b      	ands	r3, r7
 8004690:	42ab      	cmp	r3, r5
 8004692:	d0ca      	beq.n	800462a <HAL_RCC_ClockConfig+0x1e>
      if ((HAL_GetTick() - tickstart) > CLOCKSWITCH_TIMEOUT_VALUE)
 8004694:	f7fd ffce 	bl	8002634 <HAL_GetTick>
 8004698:	1b80      	subs	r0, r0, r6
 800469a:	4548      	cmp	r0, r9
 800469c:	d9f5      	bls.n	800468a <HAL_RCC_ClockConfig+0x7e>
        return HAL_TIMEOUT;
 800469e:	2003      	movs	r0, #3
 80046a0:	e056      	b.n	8004750 <HAL_RCC_ClockConfig+0x144>
      if (READ_BIT(RCC->CR, RCC_CR_HSERDY) == 0U)
 80046a2:	4a3d      	ldr	r2, [pc, #244]	@ (8004798 <HAL_RCC_ClockConfig+0x18c>)
 80046a4:	6812      	ldr	r2, [r2, #0]
 80046a6:	0392      	lsls	r2, r2, #14
 80046a8:	d400      	bmi.n	80046ac <HAL_RCC_ClockConfig+0xa0>
 80046aa:	e071      	b.n	8004790 <HAL_RCC_ClockConfig+0x184>
    MODIFY_REG(RCC->CFGR, RCC_CFGR_SW, RCC_ClkInitStruct->SYSCLKSource);
 80046ac:	493a      	ldr	r1, [pc, #232]	@ (8004798 <HAL_RCC_ClockConfig+0x18c>)
 80046ae:	688a      	ldr	r2, [r1, #8]
 80046b0:	2007      	movs	r0, #7
 80046b2:	4382      	bics	r2, r0
 80046b4:	4313      	orrs	r3, r2
 80046b6:	608b      	str	r3, [r1, #8]
    tickstart = HAL_GetTick();
 80046b8:	f7fd ffbc 	bl	8002634 <HAL_GetTick>
 80046bc:	0006      	movs	r6, r0
    while (__HAL_RCC_GET_SYSCLK_SOURCE() != (RCC_ClkInitStruct->SYSCLKSource << RCC_CFGR_SWS_Pos))
 80046be:	4b36      	ldr	r3, [pc, #216]	@ (8004798 <HAL_RCC_ClockConfig+0x18c>)
 80046c0:	4698      	mov	r8, r3
 80046c2:	2738      	movs	r7, #56	@ 0x38
      if ((HAL_GetTick() - tickstart) > CLOCKSWITCH_TIMEOUT_VALUE)
 80046c4:	4b36      	ldr	r3, [pc, #216]	@ (80047a0 <HAL_RCC_ClockConfig+0x194>)
 80046c6:	4699      	mov	r9, r3
    while (__HAL_RCC_GET_SYSCLK_SOURCE() != (RCC_ClkInitStruct->SYSCLKSource << RCC_CFGR_SWS_Pos))
 80046c8:	4643      	mov	r3, r8
 80046ca:	689a      	ldr	r2, [r3, #8]
 80046cc:	403a      	ands	r2, r7
 80046ce:	6863      	ldr	r3, [r4, #4]
 80046d0:	00db      	lsls	r3, r3, #3
 80046d2:	429a      	cmp	r2, r3
 80046d4:	d01a      	beq.n	800470c <HAL_RCC_ClockConfig+0x100>
      if ((HAL_GetTick() - tickstart) > CLOCKSWITCH_TIMEOUT_VALUE)
 80046d6:	f7fd ffad 	bl	8002634 <HAL_GetTick>
 80046da:	1b80      	subs	r0, r0, r6
 80046dc:	4548      	cmp	r0, r9
 80046de:	d9f3      	bls.n	80046c8 <HAL_RCC_ClockConfig+0xbc>
        return HAL_TIMEOUT;
 80046e0:	2003      	movs	r0, #3
 80046e2:	e035      	b.n	8004750 <HAL_RCC_ClockConfig+0x144>
      if (READ_BIT(RCC->CR, RCC_CR_PLLRDY) == 0U)
 80046e4:	4a2c      	ldr	r2, [pc, #176]	@ (8004798 <HAL_RCC_ClockConfig+0x18c>)
 80046e6:	6812      	ldr	r2, [r2, #0]
 80046e8:	0192      	lsls	r2, r2, #6
 80046ea:	d4df      	bmi.n	80046ac <HAL_RCC_ClockConfig+0xa0>
        return HAL_ERROR;
 80046ec:	2001      	movs	r0, #1
 80046ee:	e02f      	b.n	8004750 <HAL_RCC_ClockConfig+0x144>
    else if (RCC_ClkInitStruct->SYSCLKSource == RCC_SYSCLKSOURCE_LSI)
 80046f0:	2b03      	cmp	r3, #3
 80046f2:	d005      	beq.n	8004700 <HAL_RCC_ClockConfig+0xf4>
      if (READ_BIT(RCC->BDCR, RCC_BDCR_LSERDY) == 0U)
 80046f4:	4a28      	ldr	r2, [pc, #160]	@ (8004798 <HAL_RCC_ClockConfig+0x18c>)
 80046f6:	6dd2      	ldr	r2, [r2, #92]	@ 0x5c
 80046f8:	0792      	lsls	r2, r2, #30
 80046fa:	d4d7      	bmi.n	80046ac <HAL_RCC_ClockConfig+0xa0>
        return HAL_ERROR;
 80046fc:	2001      	movs	r0, #1
 80046fe:	e027      	b.n	8004750 <HAL_RCC_ClockConfig+0x144>
      if (READ_BIT(RCC->CSR, RCC_CSR_LSIRDY) == 0U)
 8004700:	4a25      	ldr	r2, [pc, #148]	@ (8004798 <HAL_RCC_ClockConfig+0x18c>)
 8004702:	6e12      	ldr	r2, [r2, #96]	@ 0x60
 8004704:	0792      	lsls	r2, r2, #30
 8004706:	d4d1      	bmi.n	80046ac <HAL_RCC_ClockConfig+0xa0>
        return HAL_ERROR;
 8004708:	2001      	movs	r0, #1
 800470a:	e021      	b.n	8004750 <HAL_RCC_ClockConfig+0x144>
  if (FLatency < __HAL_FLASH_GET_LATENCY())
 800470c:	4b21      	ldr	r3, [pc, #132]	@ (8004794 <HAL_RCC_ClockConfig+0x188>)
 800470e:	681a      	ldr	r2, [r3, #0]
 8004710:	2307      	movs	r3, #7
 8004712:	4013      	ands	r3, r2
 8004714:	42ab      	cmp	r3, r5
 8004716:	d81f      	bhi.n	8004758 <HAL_RCC_ClockConfig+0x14c>
  if (((RCC_ClkInitStruct->ClockType) & RCC_CLOCKTYPE_PCLK1) == RCC_CLOCKTYPE_PCLK1)
 8004718:	6823      	ldr	r3, [r4, #0]
 800471a:	075b      	lsls	r3, r3, #29
 800471c:	d506      	bpl.n	800472c <HAL_RCC_ClockConfig+0x120>
    MODIFY_REG(RCC->CFGR, RCC_CFGR_PPRE, RCC_ClkInitStruct->APB1CLKDivider);
 800471e:	4a1e      	ldr	r2, [pc, #120]	@ (8004798 <HAL_RCC_ClockConfig+0x18c>)
 8004720:	6893      	ldr	r3, [r2, #8]
 8004722:	4920      	ldr	r1, [pc, #128]	@ (80047a4 <HAL_RCC_ClockConfig+0x198>)
 8004724:	400b      	ands	r3, r1
 8004726:	68e1      	ldr	r1, [r4, #12]
 8004728:	430b      	orrs	r3, r1
 800472a:	6093      	str	r3, [r2, #8]
  SystemCoreClock = (HAL_RCC_GetSysClockFreq() >> ((AHBPrescTable[(RCC->CFGR & RCC_CFGR_HPRE) >> RCC_CFGR_HPRE_Pos]) & 0x1FU));
 800472c:	f7ff ff12 	bl	8004554 <HAL_RCC_GetSysClockFreq>
 8004730:	4b19      	ldr	r3, [pc, #100]	@ (8004798 <HAL_RCC_ClockConfig+0x18c>)
 8004732:	689b      	ldr	r3, [r3, #8]
 8004734:	491c      	ldr	r1, [pc, #112]	@ (80047a8 <HAL_RCC_ClockConfig+0x19c>)
 8004736:	4a1d      	ldr	r2, [pc, #116]	@ (80047ac <HAL_RCC_ClockConfig+0x1a0>)
 8004738:	051b      	lsls	r3, r3, #20
 800473a:	0f1b      	lsrs	r3, r3, #28
 800473c:	009b      	lsls	r3, r3, #2
 800473e:	589b      	ldr	r3, [r3, r2]
 8004740:	221f      	movs	r2, #31
 8004742:	4013      	ands	r3, r2
 8004744:	40d8      	lsrs	r0, r3
 8004746:	6008      	str	r0, [r1, #0]
  return HAL_InitTick(uwTickPrio);
 8004748:	4b19      	ldr	r3, [pc, #100]	@ (80047b0 <HAL_RCC_ClockConfig+0x1a4>)
 800474a:	6818      	ldr	r0, [r3, #0]
 800474c:	f7fd ff2a 	bl	80025a4 <HAL_InitTick>
}
 8004750:	bcc0      	pop	{r6, r7}
 8004752:	46b9      	mov	r9, r7
 8004754:	46b0      	mov	r8, r6
 8004756:	bdf8      	pop	{r3, r4, r5, r6, r7, pc}
    __HAL_FLASH_SET_LATENCY(FLatency);
 8004758:	4a0e      	ldr	r2, [pc, #56]	@ (8004794 <HAL_RCC_ClockConfig+0x188>)
 800475a:	6813      	ldr	r3, [r2, #0]
 800475c:	2107      	movs	r1, #7
 800475e:	438b      	bics	r3, r1
 8004760:	432b      	orrs	r3, r5
 8004762:	6013      	str	r3, [r2, #0]
    tickstart = HAL_GetTick();
 8004764:	f7fd ff66 	bl	8002634 <HAL_GetTick>
 8004768:	0006      	movs	r6, r0
    while ((FLASH->ACR & FLASH_ACR_LATENCY) != FLatency)
 800476a:	4b0a      	ldr	r3, [pc, #40]	@ (8004794 <HAL_RCC_ClockConfig+0x188>)
 800476c:	4698      	mov	r8, r3
 800476e:	2707      	movs	r7, #7
      if ((HAL_GetTick() - tickstart) > CLOCKSWITCH_TIMEOUT_VALUE)
 8004770:	4b0b      	ldr	r3, [pc, #44]	@ (80047a0 <HAL_RCC_ClockConfig+0x194>)
 8004772:	4699      	mov	r9, r3
    while ((FLASH->ACR & FLASH_ACR_LATENCY) != FLatency)
 8004774:	4643      	mov	r3, r8
 8004776:	681b      	ldr	r3, [r3, #0]
 8004778:	403b      	ands	r3, r7
 800477a:	42ab      	cmp	r3, r5
 800477c:	d0cc      	beq.n	8004718 <HAL_RCC_ClockConfig+0x10c>
      if ((HAL_GetTick() - tickstart) > CLOCKSWITCH_TIMEOUT_VALUE)
 800477e:	f7fd ff59 	bl	8002634 <HAL_GetTick>
 8004782:	1b80      	subs	r0, r0, r6
 8004784:	4548      	cmp	r0, r9
 8004786:	d9f5      	bls.n	8004774 <HAL_RCC_ClockConfig+0x168>
        return HAL_TIMEOUT;
 8004788:	2003      	movs	r0, #3
 800478a:	e7e1      	b.n	8004750 <HAL_RCC_ClockConfig+0x144>
    return HAL_ERROR;
 800478c:	2001      	movs	r0, #1
 800478e:	e7df      	b.n	8004750 <HAL_RCC_ClockConfig+0x144>
        return HAL_ERROR;
 8004790:	2001      	movs	r0, #1
 8004792:	e7dd      	b.n	8004750 <HAL_RCC_ClockConfig+0x144>
 8004794:	40022000 	.word	0x40022000
 8004798:	40021000 	.word	0x40021000
 800479c:	fffff0ff 	.word	0xfffff0ff
 80047a0:	00001388 	.word	0x00001388
 80047a4:	ffff8fff 	.word	0xffff8fff
 80047a8:	20000018 	.word	0x20000018
 80047ac:	080071ec 	.word	0x080071ec
 80047b0:	20000020 	.word	0x20000020

080047b4 <HAL_RCCEx_PeriphCLKConfig>:
  *         the RTC clock source: in this case the access to Backup domain is enabled.
  *
  * @retval HAL status
  */
HAL_StatusTypeDef HAL_RCCEx_PeriphCLKConfig(RCC_PeriphCLKInitTypeDef  *PeriphClkInit)
{
 80047b4:	b5f0      	push	{r4, r5, r6, r7, lr}
 80047b6:	46d6      	mov	lr, sl
 80047b8:	464f      	mov	r7, r9
 80047ba:	4646      	mov	r6, r8
 80047bc:	b5c0      	push	{r6, r7, lr}
 80047be:	b082      	sub	sp, #8
 80047c0:	0004      	movs	r4, r0

  /* Check the parameters */
  assert_param(IS_RCC_PERIPHCLOCK(PeriphClkInit->PeriphClockSelection));

  /*-------------------------- RTC clock source configuration ----------------------*/
  if ((PeriphClkInit->PeriphClockSelection & RCC_PERIPHCLK_RTC) == RCC_PERIPHCLK_RTC)
 80047c2:	6803      	ldr	r3, [r0, #0]
  HAL_StatusTypeDef status = HAL_OK;   /* Final status */
 80047c4:	2000      	movs	r0, #0
  if ((PeriphClkInit->PeriphClockSelection & RCC_PERIPHCLK_RTC) == RCC_PERIPHCLK_RTC)
 80047c6:	039b      	lsls	r3, r3, #14
 80047c8:	d52a      	bpl.n	8004820 <HAL_RCCEx_PeriphCLKConfig+0x6c>

    /* Check for RTC Parameters used to output RTCCLK */
    assert_param(IS_RCC_RTCCLKSOURCE(PeriphClkInit->RTCClockSelection));

    /* Enable Power Clock */
    if (__HAL_RCC_PWR_IS_CLK_DISABLED())
 80047ca:	4b57      	ldr	r3, [pc, #348]	@ (8004928 <HAL_RCCEx_PeriphCLKConfig+0x174>)
 80047cc:	6bdb      	ldr	r3, [r3, #60]	@ 0x3c
    FlagStatus       pwrclkchanged = RESET;
 80047ce:	2200      	movs	r2, #0
 80047d0:	4692      	mov	sl, r2
    if (__HAL_RCC_PWR_IS_CLK_DISABLED())
 80047d2:	00db      	lsls	r3, r3, #3
 80047d4:	d40b      	bmi.n	80047ee <HAL_RCCEx_PeriphCLKConfig+0x3a>
    {
      __HAL_RCC_PWR_CLK_ENABLE();
 80047d6:	4b54      	ldr	r3, [pc, #336]	@ (8004928 <HAL_RCCEx_PeriphCLKConfig+0x174>)
 80047d8:	6bda      	ldr	r2, [r3, #60]	@ 0x3c
 80047da:	2180      	movs	r1, #128	@ 0x80
 80047dc:	0549      	lsls	r1, r1, #21
 80047de:	430a      	orrs	r2, r1
 80047e0:	63da      	str	r2, [r3, #60]	@ 0x3c
 80047e2:	6bdb      	ldr	r3, [r3, #60]	@ 0x3c
 80047e4:	400b      	ands	r3, r1
 80047e6:	9301      	str	r3, [sp, #4]
 80047e8:	9b01      	ldr	r3, [sp, #4]
      pwrclkchanged = SET;
 80047ea:	2301      	movs	r3, #1
 80047ec:	469a      	mov	sl, r3
    }

    /* Enable write access to Backup domain */
    SET_BIT(PWR->CR1, PWR_CR1_DBP);
 80047ee:	4a4f      	ldr	r2, [pc, #316]	@ (800492c <HAL_RCCEx_PeriphCLKConfig+0x178>)
 80047f0:	6811      	ldr	r1, [r2, #0]
 80047f2:	2380      	movs	r3, #128	@ 0x80
 80047f4:	005b      	lsls	r3, r3, #1
 80047f6:	430b      	orrs	r3, r1
 80047f8:	6013      	str	r3, [r2, #0]

    /* Wait for Backup domain Write protection disable */
    tickstart = HAL_GetTick();
 80047fa:	f7fd ff1b 	bl	8002634 <HAL_GetTick>
 80047fe:	0005      	movs	r5, r0

    while ((PWR->CR1 & PWR_CR1_DBP) == 0U)
 8004800:	4f4a      	ldr	r7, [pc, #296]	@ (800492c <HAL_RCCEx_PeriphCLKConfig+0x178>)
 8004802:	2680      	movs	r6, #128	@ 0x80
 8004804:	0076      	lsls	r6, r6, #1
 8004806:	683b      	ldr	r3, [r7, #0]
 8004808:	4233      	tst	r3, r6
 800480a:	d000      	beq.n	800480e <HAL_RCCEx_PeriphCLKConfig+0x5a>
 800480c:	e07a      	b.n	8004904 <HAL_RCCEx_PeriphCLKConfig+0x150>
    {
      if ((HAL_GetTick() - tickstart) > RCC_DBP_TIMEOUT_VALUE)
 800480e:	f7fd ff11 	bl	8002634 <HAL_GetTick>
 8004812:	1b40      	subs	r0, r0, r5
 8004814:	2802      	cmp	r0, #2
 8004816:	d9f6      	bls.n	8004806 <HAL_RCCEx_PeriphCLKConfig+0x52>
      {
        ret = HAL_TIMEOUT;
 8004818:	2003      	movs	r0, #3
      /* set overall return value */
      status = ret;
    }

    /* Restore clock configuration if changed */
    if (pwrclkchanged == SET)
 800481a:	4653      	mov	r3, sl
 800481c:	2b01      	cmp	r3, #1
 800481e:	d05d      	beq.n	80048dc <HAL_RCCEx_PeriphCLKConfig+0x128>
      __HAL_RCC_PWR_CLK_DISABLE();
    }
  }

  /*-------------------------- USART1 clock source configuration -------------------*/
  if (((PeriphClkInit->PeriphClockSelection) & RCC_PERIPHCLK_USART1) == RCC_PERIPHCLK_USART1)
 8004820:	6823      	ldr	r3, [r4, #0]
 8004822:	07db      	lsls	r3, r3, #31
 8004824:	d506      	bpl.n	8004834 <HAL_RCCEx_PeriphCLKConfig+0x80>
  {
    /* Check the parameters */
    assert_param(IS_RCC_USART1CLKSOURCE(PeriphClkInit->Usart1ClockSelection));

    /* Configure the USART1 clock source */
    __HAL_RCC_USART1_CONFIG(PeriphClkInit->Usart1ClockSelection);
 8004826:	4a40      	ldr	r2, [pc, #256]	@ (8004928 <HAL_RCCEx_PeriphCLKConfig+0x174>)
 8004828:	6d53      	ldr	r3, [r2, #84]	@ 0x54
 800482a:	2103      	movs	r1, #3
 800482c:	438b      	bics	r3, r1
 800482e:	6861      	ldr	r1, [r4, #4]
 8004830:	430b      	orrs	r3, r1
 8004832:	6553      	str	r3, [r2, #84]	@ 0x54
    __HAL_RCC_LPTIM2_CONFIG(PeriphClkInit->Lptim2ClockSelection);
  }
#endif /* RCC_CCIPR_LPTIM2SEL */

  /*-------------------------- I2C1 clock source configuration ---------------------*/
  if (((PeriphClkInit->PeriphClockSelection) & RCC_PERIPHCLK_I2C1) == RCC_PERIPHCLK_I2C1)
 8004834:	6823      	ldr	r3, [r4, #0]
 8004836:	069b      	lsls	r3, r3, #26
 8004838:	d506      	bpl.n	8004848 <HAL_RCCEx_PeriphCLKConfig+0x94>
  {
    /* Check the parameters */
    assert_param(IS_RCC_I2C1CLKSOURCE(PeriphClkInit->I2c1ClockSelection));

    /* Configure the I2C1 clock source */
    __HAL_RCC_I2C1_CONFIG(PeriphClkInit->I2c1ClockSelection);
 800483a:	4a3b      	ldr	r2, [pc, #236]	@ (8004928 <HAL_RCCEx_PeriphCLKConfig+0x174>)
 800483c:	6d53      	ldr	r3, [r2, #84]	@ 0x54
 800483e:	493c      	ldr	r1, [pc, #240]	@ (8004930 <HAL_RCCEx_PeriphCLKConfig+0x17c>)
 8004840:	400b      	ands	r3, r1
 8004842:	68a1      	ldr	r1, [r4, #8]
 8004844:	430b      	orrs	r3, r1
 8004846:	6553      	str	r3, [r2, #84]	@ 0x54
      __HAL_RCC_PLLCLKOUT_ENABLE(RCC_PLLQCLK);
    }
  }
#endif /* RNG */
  /*-------------------------- ADC clock source configuration ----------------------*/
  if (((PeriphClkInit->PeriphClockSelection) & RCC_PERIPHCLK_ADC) == RCC_PERIPHCLK_ADC)
 8004848:	6823      	ldr	r3, [r4, #0]
 800484a:	045b      	lsls	r3, r3, #17
 800484c:	d50b      	bpl.n	8004866 <HAL_RCCEx_PeriphCLKConfig+0xb2>
  {
    /* Check the parameters */
    assert_param(IS_RCC_ADCCLKSOURCE(PeriphClkInit->AdcClockSelection));

    /* Configure the ADC interface clock source */
    __HAL_RCC_ADC_CONFIG(PeriphClkInit->AdcClockSelection);
 800484e:	4a36      	ldr	r2, [pc, #216]	@ (8004928 <HAL_RCCEx_PeriphCLKConfig+0x174>)
 8004850:	6d53      	ldr	r3, [r2, #84]	@ 0x54
 8004852:	009b      	lsls	r3, r3, #2
 8004854:	089b      	lsrs	r3, r3, #2
 8004856:	6921      	ldr	r1, [r4, #16]
 8004858:	430b      	orrs	r3, r1
 800485a:	6553      	str	r3, [r2, #84]	@ 0x54

    if (PeriphClkInit->AdcClockSelection == RCC_ADCCLKSOURCE_PLLADC)
 800485c:	2380      	movs	r3, #128	@ 0x80
 800485e:	05db      	lsls	r3, r3, #23
 8004860:	6922      	ldr	r2, [r4, #16]
 8004862:	429a      	cmp	r2, r3
 8004864:	d040      	beq.n	80048e8 <HAL_RCCEx_PeriphCLKConfig+0x134>
    }
  }
#endif /* RCC_CCIPR_TIM15SEL */

  /*-------------------------- I2S1 clock source configuration ---------------------*/
  if (((PeriphClkInit->PeriphClockSelection) & RCC_PERIPHCLK_I2S1) == RCC_PERIPHCLK_I2S1)
 8004866:	6823      	ldr	r3, [r4, #0]
 8004868:	051b      	lsls	r3, r3, #20
 800486a:	d50b      	bpl.n	8004884 <HAL_RCCEx_PeriphCLKConfig+0xd0>
  {
    /* Check the parameters */
    assert_param(IS_RCC_I2S1CLKSOURCE(PeriphClkInit->I2s1ClockSelection));

    /* Configure the I2S1 clock source */
    __HAL_RCC_I2S1_CONFIG(PeriphClkInit->I2s1ClockSelection);
 800486c:	4a2e      	ldr	r2, [pc, #184]	@ (8004928 <HAL_RCCEx_PeriphCLKConfig+0x174>)
 800486e:	6d53      	ldr	r3, [r2, #84]	@ 0x54
 8004870:	4930      	ldr	r1, [pc, #192]	@ (8004934 <HAL_RCCEx_PeriphCLKConfig+0x180>)
 8004872:	400b      	ands	r3, r1
 8004874:	68e1      	ldr	r1, [r4, #12]
 8004876:	430b      	orrs	r3, r1
 8004878:	6553      	str	r3, [r2, #84]	@ 0x54

    if (PeriphClkInit->I2s1ClockSelection == RCC_I2S1CLKSOURCE_PLL)
 800487a:	2380      	movs	r3, #128	@ 0x80
 800487c:	01db      	lsls	r3, r3, #7
 800487e:	68e2      	ldr	r2, [r4, #12]
 8004880:	429a      	cmp	r2, r3
 8004882:	d038      	beq.n	80048f6 <HAL_RCCEx_PeriphCLKConfig+0x142>
    }
  }
#endif /* FDCAN1 || FDCAN2 */

  return status;
}
 8004884:	b002      	add	sp, #8
 8004886:	bce0      	pop	{r5, r6, r7}
 8004888:	46ba      	mov	sl, r7
 800488a:	46b1      	mov	r9, r6
 800488c:	46a8      	mov	r8, r5
 800488e:	bdf0      	pop	{r4, r5, r6, r7, pc}
      if ((tmpregister != RCC_RTCCLKSOURCE_NONE) && (tmpregister != PeriphClkInit->RTCClockSelection))
 8004890:	6963      	ldr	r3, [r4, #20]
 8004892:	428b      	cmp	r3, r1
 8004894:	d03e      	beq.n	8004914 <HAL_RCCEx_PeriphCLKConfig+0x160>
        tmpregister = READ_BIT(RCC->BDCR, ~(RCC_BDCR_RTCSEL));
 8004896:	4b24      	ldr	r3, [pc, #144]	@ (8004928 <HAL_RCCEx_PeriphCLKConfig+0x174>)
 8004898:	6dda      	ldr	r2, [r3, #92]	@ 0x5c
 800489a:	4927      	ldr	r1, [pc, #156]	@ (8004938 <HAL_RCCEx_PeriphCLKConfig+0x184>)
 800489c:	4011      	ands	r1, r2
        __HAL_RCC_BACKUPRESET_FORCE();
 800489e:	6ddd      	ldr	r5, [r3, #92]	@ 0x5c
 80048a0:	2080      	movs	r0, #128	@ 0x80
 80048a2:	0240      	lsls	r0, r0, #9
 80048a4:	4328      	orrs	r0, r5
 80048a6:	65d8      	str	r0, [r3, #92]	@ 0x5c
        __HAL_RCC_BACKUPRESET_RELEASE();
 80048a8:	6dd8      	ldr	r0, [r3, #92]	@ 0x5c
 80048aa:	4d24      	ldr	r5, [pc, #144]	@ (800493c <HAL_RCCEx_PeriphCLKConfig+0x188>)
 80048ac:	4028      	ands	r0, r5
 80048ae:	65d8      	str	r0, [r3, #92]	@ 0x5c
        RCC->BDCR = tmpregister;
 80048b0:	65d9      	str	r1, [r3, #92]	@ 0x5c
      if (HAL_IS_BIT_SET(tmpregister, RCC_BDCR_LSEON))
 80048b2:	07d2      	lsls	r2, r2, #31
 80048b4:	d52e      	bpl.n	8004914 <HAL_RCCEx_PeriphCLKConfig+0x160>
        tickstart = HAL_GetTick();
 80048b6:	f7fd febd 	bl	8002634 <HAL_GetTick>
 80048ba:	0005      	movs	r5, r0
        while (READ_BIT(RCC->BDCR, RCC_BDCR_LSERDY) == 0U)
 80048bc:	4b1a      	ldr	r3, [pc, #104]	@ (8004928 <HAL_RCCEx_PeriphCLKConfig+0x174>)
 80048be:	4698      	mov	r8, r3
 80048c0:	2602      	movs	r6, #2
          if ((HAL_GetTick() - tickstart) > RCC_LSE_TIMEOUT_VALUE)
 80048c2:	4b1f      	ldr	r3, [pc, #124]	@ (8004940 <HAL_RCCEx_PeriphCLKConfig+0x18c>)
 80048c4:	4699      	mov	r9, r3
        while (READ_BIT(RCC->BDCR, RCC_BDCR_LSERDY) == 0U)
 80048c6:	4643      	mov	r3, r8
 80048c8:	6ddb      	ldr	r3, [r3, #92]	@ 0x5c
 80048ca:	421e      	tst	r6, r3
 80048cc:	d122      	bne.n	8004914 <HAL_RCCEx_PeriphCLKConfig+0x160>
          if ((HAL_GetTick() - tickstart) > RCC_LSE_TIMEOUT_VALUE)
 80048ce:	f7fd feb1 	bl	8002634 <HAL_GetTick>
 80048d2:	1b40      	subs	r0, r0, r5
 80048d4:	4548      	cmp	r0, r9
 80048d6:	d9f6      	bls.n	80048c6 <HAL_RCCEx_PeriphCLKConfig+0x112>
            ret = HAL_TIMEOUT;
 80048d8:	2003      	movs	r0, #3
 80048da:	e79e      	b.n	800481a <HAL_RCCEx_PeriphCLKConfig+0x66>
      __HAL_RCC_PWR_CLK_DISABLE();
 80048dc:	4a12      	ldr	r2, [pc, #72]	@ (8004928 <HAL_RCCEx_PeriphCLKConfig+0x174>)
 80048de:	6bd3      	ldr	r3, [r2, #60]	@ 0x3c
 80048e0:	4918      	ldr	r1, [pc, #96]	@ (8004944 <HAL_RCCEx_PeriphCLKConfig+0x190>)
 80048e2:	400b      	ands	r3, r1
 80048e4:	63d3      	str	r3, [r2, #60]	@ 0x3c
 80048e6:	e79b      	b.n	8004820 <HAL_RCCEx_PeriphCLKConfig+0x6c>
      __HAL_RCC_PLLCLKOUT_ENABLE(RCC_PLLPCLK);
 80048e8:	4a0f      	ldr	r2, [pc, #60]	@ (8004928 <HAL_RCCEx_PeriphCLKConfig+0x174>)
 80048ea:	68d1      	ldr	r1, [r2, #12]
 80048ec:	2380      	movs	r3, #128	@ 0x80
 80048ee:	025b      	lsls	r3, r3, #9
 80048f0:	430b      	orrs	r3, r1
 80048f2:	60d3      	str	r3, [r2, #12]
 80048f4:	e7b7      	b.n	8004866 <HAL_RCCEx_PeriphCLKConfig+0xb2>
      __HAL_RCC_PLLCLKOUT_ENABLE(RCC_PLLPCLK);
 80048f6:	4a0c      	ldr	r2, [pc, #48]	@ (8004928 <HAL_RCCEx_PeriphCLKConfig+0x174>)
 80048f8:	68d1      	ldr	r1, [r2, #12]
 80048fa:	2380      	movs	r3, #128	@ 0x80
 80048fc:	025b      	lsls	r3, r3, #9
 80048fe:	430b      	orrs	r3, r1
 8004900:	60d3      	str	r3, [r2, #12]
  return status;
 8004902:	e7bf      	b.n	8004884 <HAL_RCCEx_PeriphCLKConfig+0xd0>
      tmpregister = READ_BIT(RCC->BDCR, RCC_BDCR_RTCSEL);
 8004904:	4b08      	ldr	r3, [pc, #32]	@ (8004928 <HAL_RCCEx_PeriphCLKConfig+0x174>)
 8004906:	6dda      	ldr	r2, [r3, #92]	@ 0x5c
 8004908:	23c0      	movs	r3, #192	@ 0xc0
 800490a:	009b      	lsls	r3, r3, #2
 800490c:	0011      	movs	r1, r2
 800490e:	4019      	ands	r1, r3
      if ((tmpregister != RCC_RTCCLKSOURCE_NONE) && (tmpregister != PeriphClkInit->RTCClockSelection))
 8004910:	421a      	tst	r2, r3
 8004912:	d1bd      	bne.n	8004890 <HAL_RCCEx_PeriphCLKConfig+0xdc>
        __HAL_RCC_RTC_CONFIG(PeriphClkInit->RTCClockSelection);
 8004914:	4a04      	ldr	r2, [pc, #16]	@ (8004928 <HAL_RCCEx_PeriphCLKConfig+0x174>)
 8004916:	6dd3      	ldr	r3, [r2, #92]	@ 0x5c
 8004918:	4907      	ldr	r1, [pc, #28]	@ (8004938 <HAL_RCCEx_PeriphCLKConfig+0x184>)
 800491a:	400b      	ands	r3, r1
 800491c:	6961      	ldr	r1, [r4, #20]
 800491e:	430b      	orrs	r3, r1
 8004920:	65d3      	str	r3, [r2, #92]	@ 0x5c
  HAL_StatusTypeDef status = HAL_OK;   /* Final status */
 8004922:	2000      	movs	r0, #0
 8004924:	e779      	b.n	800481a <HAL_RCCEx_PeriphCLKConfig+0x66>
 8004926:	46c0      	nop			@ (mov r8, r8)
 8004928:	40021000 	.word	0x40021000
 800492c:	40007000 	.word	0x40007000
 8004930:	ffffcfff 	.word	0xffffcfff
 8004934:	ffff3fff 	.word	0xffff3fff
 8004938:	fffffcff 	.word	0xfffffcff
 800493c:	fffeffff 	.word	0xfffeffff
 8004940:	00001388 	.word	0x00001388
 8004944:	efffffff 	.word	0xefffffff

08004948 <HAL_RTC_WaitForSynchro>:
  *         correctly copied into the RTC_TR and RTC_DR shadow registers.
  * @param  hrtc RTC handle
  * @retval HAL status
  */
HAL_StatusTypeDef HAL_RTC_WaitForSynchro(RTC_HandleTypeDef* hrtc)
{
 8004948:	b5f8      	push	{r3, r4, r5, r6, r7, lr}
 800494a:	0004      	movs	r4, r0
  uint32_t tickstart;

  /* Clear RSF flag, keep reserved bits at reset values (setting other flags has no effect) */
  hrtc->Instance->ICSR = ((uint32_t)(RTC_RSF_MASK & RTC_ICSR_RESERVED_MASK));
 800494c:	6803      	ldr	r3, [r0, #0]
 800494e:	4a0a      	ldr	r2, [pc, #40]	@ (8004978 <HAL_RTC_WaitForSynchro+0x30>)
 8004950:	60da      	str	r2, [r3, #12]

  tickstart = HAL_GetTick();
 8004952:	f7fd fe6f 	bl	8002634 <HAL_GetTick>
 8004956:	0005      	movs	r5, r0

  /* Wait the registers to be synchronised */
  while((hrtc->Instance->ICSR & RTC_ICSR_RSF) == 0U)
 8004958:	2620      	movs	r6, #32
  {
    if((HAL_GetTick() - tickstart ) > RTC_TIMEOUT_VALUE)
 800495a:	27fa      	movs	r7, #250	@ 0xfa
 800495c:	00bf      	lsls	r7, r7, #2
  while((hrtc->Instance->ICSR & RTC_ICSR_RSF) == 0U)
 800495e:	6823      	ldr	r3, [r4, #0]
 8004960:	68db      	ldr	r3, [r3, #12]
 8004962:	421e      	tst	r6, r3
 8004964:	d106      	bne.n	8004974 <HAL_RTC_WaitForSynchro+0x2c>
    if((HAL_GetTick() - tickstart ) > RTC_TIMEOUT_VALUE)
 8004966:	f7fd fe65 	bl	8002634 <HAL_GetTick>
 800496a:	1b40      	subs	r0, r0, r5
 800496c:	42b8      	cmp	r0, r7
 800496e:	d9f6      	bls.n	800495e <HAL_RTC_WaitForSynchro+0x16>
    {
      return HAL_TIMEOUT;
 8004970:	2003      	movs	r0, #3
 8004972:	e000      	b.n	8004976 <HAL_RTC_WaitForSynchro+0x2e>
    }
  }

  return HAL_OK;
 8004974:	2000      	movs	r0, #0
}
 8004976:	bdf8      	pop	{r3, r4, r5, r6, r7, pc}
 8004978:	0001005f 	.word	0x0001005f

0800497c <RTC_EnterInitMode>:
  *         __HAL_RTC_WRITEPROTECTION_DISABLE() before calling this function.
  * @param  hrtc RTC handle
  * @retval HAL status
  */
HAL_StatusTypeDef RTC_EnterInitMode(RTC_HandleTypeDef* hrtc)
{
 800497c:	b5f0      	push	{r4, r5, r6, r7, lr}
 800497e:	46c6      	mov	lr, r8
 8004980:	b500      	push	{lr}
 8004982:	0004      	movs	r4, r0
  uint32_t tickstart;
  HAL_StatusTypeDef status = HAL_OK;  

  /* Check if the Initialization mode is set */
  if((hrtc->Instance->ICSR & RTC_ICSR_INITF) == 0U)
 8004984:	6802      	ldr	r2, [r0, #0]
 8004986:	68d3      	ldr	r3, [r2, #12]
  HAL_StatusTypeDef status = HAL_OK;  
 8004988:	2500      	movs	r5, #0
  if((hrtc->Instance->ICSR & RTC_ICSR_INITF) == 0U)
 800498a:	065b      	lsls	r3, r3, #25
 800498c:	d503      	bpl.n	8004996 <RTC_EnterInitMode+0x1a>
      }
    }
  }

  return status;
}
 800498e:	0028      	movs	r0, r5
 8004990:	bc80      	pop	{r7}
 8004992:	46b8      	mov	r8, r7
 8004994:	bdf0      	pop	{r4, r5, r6, r7, pc}
    SET_BIT(hrtc->Instance->ICSR, RTC_ICSR_INIT);
 8004996:	68d3      	ldr	r3, [r2, #12]
 8004998:	2180      	movs	r1, #128	@ 0x80
 800499a:	430b      	orrs	r3, r1
 800499c:	60d3      	str	r3, [r2, #12]
    tickstart = HAL_GetTick();
 800499e:	f7fd fe49 	bl	8002634 <HAL_GetTick>
 80049a2:	0006      	movs	r6, r0
    while(((hrtc->Instance->ICSR & RTC_ICSR_INITF) == 0U) && (status != HAL_TIMEOUT))
 80049a4:	2740      	movs	r7, #64	@ 0x40
      if((HAL_GetTick()  - tickstart ) > RTC_TIMEOUT_VALUE)
 80049a6:	23fa      	movs	r3, #250	@ 0xfa
 80049a8:	009b      	lsls	r3, r3, #2
 80049aa:	4698      	mov	r8, r3
    while(((hrtc->Instance->ICSR & RTC_ICSR_INITF) == 0U) && (status != HAL_TIMEOUT))
 80049ac:	6823      	ldr	r3, [r4, #0]
 80049ae:	68db      	ldr	r3, [r3, #12]
 80049b0:	421f      	tst	r7, r3
 80049b2:	d1ec      	bne.n	800498e <RTC_EnterInitMode+0x12>
 80049b4:	2d03      	cmp	r5, #3
 80049b6:	d0ea      	beq.n	800498e <RTC_EnterInitMode+0x12>
      if((HAL_GetTick()  - tickstart ) > RTC_TIMEOUT_VALUE)
 80049b8:	f7fd fe3c 	bl	8002634 <HAL_GetTick>
 80049bc:	1b80      	subs	r0, r0, r6
 80049be:	4540      	cmp	r0, r8
 80049c0:	d9f4      	bls.n	80049ac <RTC_EnterInitMode+0x30>
        hrtc->State = HAL_RTC_STATE_TIMEOUT;
 80049c2:	2329      	movs	r3, #41	@ 0x29
 80049c4:	2203      	movs	r2, #3
 80049c6:	54e2      	strb	r2, [r4, r3]
        status = HAL_TIMEOUT;
 80049c8:	2503      	movs	r5, #3
 80049ca:	e7ef      	b.n	80049ac <RTC_EnterInitMode+0x30>

080049cc <RTC_ExitInitMode>:
  * @brief  Exit the RTC Initialization mode.
  * @param  hrtc RTC handle
  * @retval HAL status
  */
HAL_StatusTypeDef RTC_ExitInitMode(RTC_HandleTypeDef *hrtc)
{
 80049cc:	b510      	push	{r4, lr}
 80049ce:	0004      	movs	r4, r0
  HAL_StatusTypeDef status = HAL_OK;

  /* Exit Initialization mode */
  CLEAR_BIT(RTC->ICSR, RTC_ICSR_INIT);
 80049d0:	4b11      	ldr	r3, [pc, #68]	@ (8004a18 <RTC_ExitInitMode+0x4c>)
 80049d2:	68da      	ldr	r2, [r3, #12]
 80049d4:	2180      	movs	r1, #128	@ 0x80
 80049d6:	438a      	bics	r2, r1
 80049d8:	60da      	str	r2, [r3, #12]

  /* If CR_BYPSHAD bit = 0, wait for synchro */
  if (READ_BIT(RTC->CR, RTC_CR_BYPSHAD) == 0U)
 80049da:	699b      	ldr	r3, [r3, #24]
 80049dc:	069b      	lsls	r3, r3, #26
 80049de:	d408      	bmi.n	80049f2 <RTC_ExitInitMode+0x26>
  {
    if (HAL_RTC_WaitForSynchro(hrtc) != HAL_OK)
 80049e0:	f7ff ffb2 	bl	8004948 <HAL_RTC_WaitForSynchro>
 80049e4:	2800      	cmp	r0, #0
 80049e6:	d016      	beq.n	8004a16 <RTC_ExitInitMode+0x4a>
    {
      hrtc->State = HAL_RTC_STATE_TIMEOUT;
 80049e8:	2329      	movs	r3, #41	@ 0x29
 80049ea:	2203      	movs	r2, #3
 80049ec:	54e2      	strb	r2, [r4, r3]
      status = HAL_TIMEOUT;
 80049ee:	2003      	movs	r0, #3
 80049f0:	e011      	b.n	8004a16 <RTC_ExitInitMode+0x4a>
  }
  else /* WA 2.7.1 Calendar initialization may fail in case of consecutive INIT mode entry.
          Please look at STM32G0 Errata sheet on the internet for details. */
  {
    /* Clear BYPSHAD bit */
    CLEAR_BIT(RTC->CR, RTC_CR_BYPSHAD);
 80049f2:	4a09      	ldr	r2, [pc, #36]	@ (8004a18 <RTC_ExitInitMode+0x4c>)
 80049f4:	6993      	ldr	r3, [r2, #24]
 80049f6:	2120      	movs	r1, #32
 80049f8:	438b      	bics	r3, r1
 80049fa:	6193      	str	r3, [r2, #24]
    if (HAL_RTC_WaitForSynchro(hrtc) != HAL_OK)
 80049fc:	f7ff ffa4 	bl	8004948 <HAL_RTC_WaitForSynchro>
 8004a00:	2800      	cmp	r0, #0
 8004a02:	d003      	beq.n	8004a0c <RTC_ExitInitMode+0x40>
    {
      hrtc->State = HAL_RTC_STATE_TIMEOUT;
 8004a04:	2329      	movs	r3, #41	@ 0x29
 8004a06:	2203      	movs	r2, #3
 8004a08:	54e2      	strb	r2, [r4, r3]
      status = HAL_TIMEOUT;
 8004a0a:	2003      	movs	r0, #3
    }
    /* Restore BYPSHAD bit */
    SET_BIT(RTC->CR, RTC_CR_BYPSHAD);
 8004a0c:	4a02      	ldr	r2, [pc, #8]	@ (8004a18 <RTC_ExitInitMode+0x4c>)
 8004a0e:	6993      	ldr	r3, [r2, #24]
 8004a10:	2120      	movs	r1, #32
 8004a12:	430b      	orrs	r3, r1
 8004a14:	6193      	str	r3, [r2, #24]
  }

  return status;
}
 8004a16:	bd10      	pop	{r4, pc}
 8004a18:	40002800 	.word	0x40002800

08004a1c <HAL_RTC_Init>:
{
 8004a1c:	b510      	push	{r4, lr}
 8004a1e:	1e04      	subs	r4, r0, #0
  if(hrtc != NULL)
 8004a20:	d054      	beq.n	8004acc <HAL_RTC_Init+0xb0>
    if(hrtc->State == HAL_RTC_STATE_RESET)
 8004a22:	2329      	movs	r3, #41	@ 0x29
 8004a24:	5cc3      	ldrb	r3, [r0, r3]
 8004a26:	2b00      	cmp	r3, #0
 8004a28:	d00b      	beq.n	8004a42 <HAL_RTC_Init+0x26>
    hrtc->State = HAL_RTC_STATE_BUSY;
 8004a2a:	2329      	movs	r3, #41	@ 0x29
 8004a2c:	2202      	movs	r2, #2
 8004a2e:	54e2      	strb	r2, [r4, r3]
    if (__HAL_RTC_IS_CALENDAR_INITIALIZED(hrtc) == 0U)
 8004a30:	6822      	ldr	r2, [r4, #0]
 8004a32:	68d3      	ldr	r3, [r2, #12]
 8004a34:	06db      	lsls	r3, r3, #27
 8004a36:	d50d      	bpl.n	8004a54 <HAL_RTC_Init+0x38>
      hrtc->State = HAL_RTC_STATE_READY;
 8004a38:	2329      	movs	r3, #41	@ 0x29
 8004a3a:	2201      	movs	r2, #1
 8004a3c:	54e2      	strb	r2, [r4, r3]
 8004a3e:	2000      	movs	r0, #0
}
 8004a40:	bd10      	pop	{r4, pc}
      hrtc->Lock = HAL_UNLOCKED;
 8004a42:	3328      	adds	r3, #40	@ 0x28
 8004a44:	2200      	movs	r2, #0
 8004a46:	54c2      	strb	r2, [r0, r3]
      hrtc->TampOffset = (TAMP_BASE - RTC_BASE);
 8004a48:	2388      	movs	r3, #136	@ 0x88
 8004a4a:	021b      	lsls	r3, r3, #8
 8004a4c:	6043      	str	r3, [r0, #4]
      HAL_RTC_MspInit(hrtc);
 8004a4e:	f7fd fcad 	bl	80023ac <HAL_RTC_MspInit>
 8004a52:	e7ea      	b.n	8004a2a <HAL_RTC_Init+0xe>
      __HAL_RTC_WRITEPROTECTION_DISABLE(hrtc);
 8004a54:	23ca      	movs	r3, #202	@ 0xca
 8004a56:	6253      	str	r3, [r2, #36]	@ 0x24
 8004a58:	6823      	ldr	r3, [r4, #0]
 8004a5a:	2253      	movs	r2, #83	@ 0x53
 8004a5c:	625a      	str	r2, [r3, #36]	@ 0x24
      status = RTC_EnterInitMode(hrtc);
 8004a5e:	0020      	movs	r0, r4
 8004a60:	f7ff ff8c 	bl	800497c <RTC_EnterInitMode>
      if(status == HAL_OK)
 8004a64:	2800      	cmp	r0, #0
 8004a66:	d003      	beq.n	8004a70 <HAL_RTC_Init+0x54>
      __HAL_RTC_WRITEPROTECTION_ENABLE(hrtc);
 8004a68:	6823      	ldr	r3, [r4, #0]
 8004a6a:	22ff      	movs	r2, #255	@ 0xff
 8004a6c:	625a      	str	r2, [r3, #36]	@ 0x24
  return status;
 8004a6e:	e7e7      	b.n	8004a40 <HAL_RTC_Init+0x24>
        hrtc->Instance->CR &= ~(RTC_CR_FMT | RTC_CR_POL | RTC_CR_OSEL | RTC_CR_TAMPOE);
 8004a70:	6822      	ldr	r2, [r4, #0]
 8004a72:	6993      	ldr	r3, [r2, #24]
 8004a74:	4916      	ldr	r1, [pc, #88]	@ (8004ad0 <HAL_RTC_Init+0xb4>)
 8004a76:	400b      	ands	r3, r1
 8004a78:	6193      	str	r3, [r2, #24]
        hrtc->Instance->CR |= (hrtc->Init.HourFormat | hrtc->Init.OutPut | hrtc->Init.OutPutPolarity);
 8004a7a:	6822      	ldr	r2, [r4, #0]
 8004a7c:	6991      	ldr	r1, [r2, #24]
 8004a7e:	68a3      	ldr	r3, [r4, #8]
 8004a80:	6960      	ldr	r0, [r4, #20]
 8004a82:	4303      	orrs	r3, r0
 8004a84:	69e0      	ldr	r0, [r4, #28]
 8004a86:	4303      	orrs	r3, r0
 8004a88:	430b      	orrs	r3, r1
 8004a8a:	6193      	str	r3, [r2, #24]
        hrtc->Instance->PRER = (hrtc->Init.SynchPrediv);
 8004a8c:	6823      	ldr	r3, [r4, #0]
 8004a8e:	6922      	ldr	r2, [r4, #16]
 8004a90:	611a      	str	r2, [r3, #16]
        hrtc->Instance->PRER |= (hrtc->Init.AsynchPrediv << RTC_PRER_PREDIV_A_Pos);
 8004a92:	6822      	ldr	r2, [r4, #0]
 8004a94:	6911      	ldr	r1, [r2, #16]
 8004a96:	68e3      	ldr	r3, [r4, #12]
 8004a98:	041b      	lsls	r3, r3, #16
 8004a9a:	430b      	orrs	r3, r1
 8004a9c:	6113      	str	r3, [r2, #16]
        status = RTC_ExitInitMode(hrtc);
 8004a9e:	0020      	movs	r0, r4
 8004aa0:	f7ff ff94 	bl	80049cc <RTC_ExitInitMode>
      if (status == HAL_OK)
 8004aa4:	2800      	cmp	r0, #0
 8004aa6:	d1df      	bne.n	8004a68 <HAL_RTC_Init+0x4c>
        hrtc->Instance->CR &= ~(RTC_CR_TAMPALRM_PU |RTC_CR_TAMPALRM_TYPE | RTC_CR_OUT2EN);
 8004aa8:	6822      	ldr	r2, [r4, #0]
 8004aaa:	6993      	ldr	r3, [r2, #24]
 8004aac:	00db      	lsls	r3, r3, #3
 8004aae:	08db      	lsrs	r3, r3, #3
 8004ab0:	6193      	str	r3, [r2, #24]
        hrtc->Instance->CR |= (hrtc->Init.OutPutPullUp | hrtc->Init.OutPutType | hrtc->Init.OutPutRemap);
 8004ab2:	6822      	ldr	r2, [r4, #0]
 8004ab4:	6991      	ldr	r1, [r2, #24]
 8004ab6:	6a63      	ldr	r3, [r4, #36]	@ 0x24
 8004ab8:	6a20      	ldr	r0, [r4, #32]
 8004aba:	4303      	orrs	r3, r0
 8004abc:	69a0      	ldr	r0, [r4, #24]
 8004abe:	4303      	orrs	r3, r0
 8004ac0:	430b      	orrs	r3, r1
 8004ac2:	6193      	str	r3, [r2, #24]
      __HAL_RTC_WRITEPROTECTION_ENABLE(hrtc);
 8004ac4:	6823      	ldr	r3, [r4, #0]
 8004ac6:	22ff      	movs	r2, #255	@ 0xff
 8004ac8:	625a      	str	r2, [r3, #36]	@ 0x24
    if (status == HAL_OK)
 8004aca:	e7b5      	b.n	8004a38 <HAL_RTC_Init+0x1c>
  HAL_StatusTypeDef status = HAL_ERROR;
 8004acc:	2001      	movs	r0, #1
 8004ace:	e7b7      	b.n	8004a40 <HAL_RTC_Init+0x24>
 8004ad0:	fb8fffbf 	.word	0xfb8fffbf

08004ad4 <RTC_ByteToBcd2>:
uint8_t RTC_ByteToBcd2(uint8_t Value)
{
  uint32_t bcdhigh = 0U;
  uint8_t Param = Value;

  while(Param >= 10U)
 8004ad4:	2809      	cmp	r0, #9
 8004ad6:	d909      	bls.n	8004aec <RTC_ByteToBcd2+0x18>
  uint32_t bcdhigh = 0U;
 8004ad8:	2300      	movs	r3, #0
  {
    bcdhigh++;
 8004ada:	3301      	adds	r3, #1
    Param -= 10U;
 8004adc:	380a      	subs	r0, #10
 8004ade:	b2c0      	uxtb	r0, r0
  while(Param >= 10U)
 8004ae0:	2809      	cmp	r0, #9
 8004ae2:	d8fa      	bhi.n	8004ada <RTC_ByteToBcd2+0x6>
  }

  return  ((uint8_t)(bcdhigh << 4U) | Param);
 8004ae4:	011b      	lsls	r3, r3, #4
 8004ae6:	4318      	orrs	r0, r3
 8004ae8:	b2c0      	uxtb	r0, r0
}
 8004aea:	4770      	bx	lr
  uint32_t bcdhigh = 0U;
 8004aec:	2300      	movs	r3, #0
 8004aee:	e7f9      	b.n	8004ae4 <RTC_ByteToBcd2+0x10>

08004af0 <HAL_RTC_SetTime>:
{
 8004af0:	b5f8      	push	{r3, r4, r5, r6, r7, lr}
 8004af2:	0004      	movs	r4, r0
 8004af4:	000e      	movs	r6, r1
 8004af6:	0015      	movs	r5, r2
  __HAL_LOCK(hrtc);
 8004af8:	2328      	movs	r3, #40	@ 0x28
 8004afa:	5cc3      	ldrb	r3, [r0, r3]
 8004afc:	2b01      	cmp	r3, #1
 8004afe:	d056      	beq.n	8004bae <HAL_RTC_SetTime+0xbe>
 8004b00:	2328      	movs	r3, #40	@ 0x28
 8004b02:	2201      	movs	r2, #1
 8004b04:	54c2      	strb	r2, [r0, r3]
  hrtc->State = HAL_RTC_STATE_BUSY;
 8004b06:	3301      	adds	r3, #1
 8004b08:	3201      	adds	r2, #1
 8004b0a:	54c2      	strb	r2, [r0, r3]
  __HAL_RTC_WRITEPROTECTION_DISABLE(hrtc);
 8004b0c:	6803      	ldr	r3, [r0, #0]
 8004b0e:	32c8      	adds	r2, #200	@ 0xc8
 8004b10:	625a      	str	r2, [r3, #36]	@ 0x24
 8004b12:	6803      	ldr	r3, [r0, #0]
 8004b14:	3a77      	subs	r2, #119	@ 0x77
 8004b16:	625a      	str	r2, [r3, #36]	@ 0x24
  status = RTC_EnterInitMode(hrtc);
 8004b18:	f7ff ff30 	bl	800497c <RTC_EnterInitMode>
  if(status == HAL_OK)
 8004b1c:	2800      	cmp	r0, #0
 8004b1e:	d148      	bne.n	8004bb2 <HAL_RTC_SetTime+0xc2>
    if(Format == RTC_FORMAT_BIN)
 8004b20:	2d00      	cmp	r5, #0
 8004b22:	d133      	bne.n	8004b8c <HAL_RTC_SetTime+0x9c>
    if((hrtc->Instance->CR & RTC_CR_FMT) != 0U)
 8004b24:	6823      	ldr	r3, [r4, #0]
 8004b26:	699b      	ldr	r3, [r3, #24]
 8004b28:	065b      	lsls	r3, r3, #25
 8004b2a:	d401      	bmi.n	8004b30 <HAL_RTC_SetTime+0x40>
        sTime->TimeFormat = 0x00U;
 8004b2c:	2300      	movs	r3, #0
 8004b2e:	70f3      	strb	r3, [r6, #3]
      tmpreg = (uint32_t)(((uint32_t)RTC_ByteToBcd2(sTime->Hours) << RTC_TR_HU_Pos) | \
 8004b30:	7830      	ldrb	r0, [r6, #0]
 8004b32:	f7ff ffcf 	bl	8004ad4 <RTC_ByteToBcd2>
 8004b36:	0007      	movs	r7, r0
                          ((uint32_t)RTC_ByteToBcd2(sTime->Minutes) << RTC_TR_MNU_Pos) | \
 8004b38:	7870      	ldrb	r0, [r6, #1]
 8004b3a:	f7ff ffcb 	bl	8004ad4 <RTC_ByteToBcd2>
 8004b3e:	0005      	movs	r5, r0
                          ((uint32_t)RTC_ByteToBcd2(sTime->Seconds) << RTC_TR_SU_Pos) | \
 8004b40:	78b0      	ldrb	r0, [r6, #2]
 8004b42:	f7ff ffc7 	bl	8004ad4 <RTC_ByteToBcd2>
                          (((uint32_t)sTime->TimeFormat) << RTC_TR_PM_Pos));
 8004b46:	78f2      	ldrb	r2, [r6, #3]
 8004b48:	0592      	lsls	r2, r2, #22
      tmpreg = (uint32_t)(((uint32_t)RTC_ByteToBcd2(sTime->Hours) << RTC_TR_HU_Pos) | \
 8004b4a:	4310      	orrs	r0, r2
 8004b4c:	043f      	lsls	r7, r7, #16
 8004b4e:	4338      	orrs	r0, r7
                          ((uint32_t)RTC_ByteToBcd2(sTime->Minutes) << RTC_TR_MNU_Pos) | \
 8004b50:	022d      	lsls	r5, r5, #8
      tmpreg = (uint32_t)(((uint32_t)RTC_ByteToBcd2(sTime->Hours) << RTC_TR_HU_Pos) | \
 8004b52:	4328      	orrs	r0, r5
    hrtc->Instance->TR = (uint32_t)(tmpreg & RTC_TR_RESERVED_MASK);
 8004b54:	6823      	ldr	r3, [r4, #0]
 8004b56:	4a1a      	ldr	r2, [pc, #104]	@ (8004bc0 <HAL_RTC_SetTime+0xd0>)
 8004b58:	4010      	ands	r0, r2
 8004b5a:	6018      	str	r0, [r3, #0]
    hrtc->Instance->CR &= ((uint32_t)~RTC_CR_BKP);
 8004b5c:	6822      	ldr	r2, [r4, #0]
 8004b5e:	6993      	ldr	r3, [r2, #24]
 8004b60:	4918      	ldr	r1, [pc, #96]	@ (8004bc4 <HAL_RTC_SetTime+0xd4>)
 8004b62:	400b      	ands	r3, r1
 8004b64:	6193      	str	r3, [r2, #24]
    hrtc->Instance->CR |= (uint32_t)(sTime->DayLightSaving | sTime->StoreOperation);
 8004b66:	6822      	ldr	r2, [r4, #0]
 8004b68:	6991      	ldr	r1, [r2, #24]
 8004b6a:	68f3      	ldr	r3, [r6, #12]
 8004b6c:	6930      	ldr	r0, [r6, #16]
 8004b6e:	4303      	orrs	r3, r0
 8004b70:	430b      	orrs	r3, r1
 8004b72:	6193      	str	r3, [r2, #24]
    status = RTC_ExitInitMode(hrtc);
 8004b74:	0020      	movs	r0, r4
 8004b76:	f7ff ff29 	bl	80049cc <RTC_ExitInitMode>
  __HAL_RTC_WRITEPROTECTION_ENABLE(hrtc);
 8004b7a:	6823      	ldr	r3, [r4, #0]
 8004b7c:	22ff      	movs	r2, #255	@ 0xff
 8004b7e:	625a      	str	r2, [r3, #36]	@ 0x24
  if (status == HAL_OK)
 8004b80:	2800      	cmp	r0, #0
 8004b82:	d119      	bne.n	8004bb8 <HAL_RTC_SetTime+0xc8>
   hrtc->State = HAL_RTC_STATE_READY;
 8004b84:	2329      	movs	r3, #41	@ 0x29
 8004b86:	3afe      	subs	r2, #254	@ 0xfe
 8004b88:	54e2      	strb	r2, [r4, r3]
 8004b8a:	e015      	b.n	8004bb8 <HAL_RTC_SetTime+0xc8>
    if((hrtc->Instance->CR & RTC_CR_FMT) != 0U)
 8004b8c:	6823      	ldr	r3, [r4, #0]
 8004b8e:	699b      	ldr	r3, [r3, #24]
 8004b90:	065b      	lsls	r3, r3, #25
 8004b92:	d401      	bmi.n	8004b98 <HAL_RTC_SetTime+0xa8>
        sTime->TimeFormat = 0x00U;
 8004b94:	2300      	movs	r3, #0
 8004b96:	70f3      	strb	r3, [r6, #3]
      tmpreg = (((uint32_t)(sTime->Hours) << RTC_TR_HU_Pos) | \
 8004b98:	7830      	ldrb	r0, [r6, #0]
 8004b9a:	0400      	lsls	r0, r0, #16
                ((uint32_t)(sTime->Minutes) << RTC_TR_MNU_Pos) | \
 8004b9c:	7873      	ldrb	r3, [r6, #1]
 8004b9e:	021b      	lsls	r3, r3, #8
      tmpreg = (((uint32_t)(sTime->Hours) << RTC_TR_HU_Pos) | \
 8004ba0:	4318      	orrs	r0, r3
                ((uint32_t)(sTime->Seconds) << RTC_TR_SU_Pos) | \
 8004ba2:	78b3      	ldrb	r3, [r6, #2]
                ((uint32_t)(sTime->Minutes) << RTC_TR_MNU_Pos) | \
 8004ba4:	4318      	orrs	r0, r3
                ((uint32_t)(sTime->TimeFormat) << RTC_TR_PM_Pos));
 8004ba6:	78f3      	ldrb	r3, [r6, #3]
 8004ba8:	059b      	lsls	r3, r3, #22
      tmpreg = (((uint32_t)(sTime->Hours) << RTC_TR_HU_Pos) | \
 8004baa:	4318      	orrs	r0, r3
 8004bac:	e7d2      	b.n	8004b54 <HAL_RTC_SetTime+0x64>
  __HAL_LOCK(hrtc);
 8004bae:	2002      	movs	r0, #2
 8004bb0:	e005      	b.n	8004bbe <HAL_RTC_SetTime+0xce>
  __HAL_RTC_WRITEPROTECTION_ENABLE(hrtc);
 8004bb2:	6823      	ldr	r3, [r4, #0]
 8004bb4:	22ff      	movs	r2, #255	@ 0xff
 8004bb6:	625a      	str	r2, [r3, #36]	@ 0x24
  __HAL_UNLOCK(hrtc);
 8004bb8:	2328      	movs	r3, #40	@ 0x28
 8004bba:	2200      	movs	r2, #0
 8004bbc:	54e2      	strb	r2, [r4, r3]
}
 8004bbe:	bdf8      	pop	{r3, r4, r5, r6, r7, pc}
 8004bc0:	007f7f7f 	.word	0x007f7f7f
 8004bc4:	fffbffff 	.word	0xfffbffff

08004bc8 <RTC_Bcd2ToByte>:
  * @retval Converted word
  */
uint8_t RTC_Bcd2ToByte(uint8_t Value)
{
  uint32_t tmp;
  tmp = (((uint32_t)Value & 0xF0U) >> 4U) * 10U;
 8004bc8:	0902      	lsrs	r2, r0, #4
 8004bca:	0093      	lsls	r3, r2, #2
 8004bcc:	189b      	adds	r3, r3, r2
 8004bce:	005b      	lsls	r3, r3, #1
  return (uint8_t)(tmp + ((uint32_t)Value & 0x0FU));
 8004bd0:	220f      	movs	r2, #15
 8004bd2:	4010      	ands	r0, r2
 8004bd4:	1818      	adds	r0, r3, r0
 8004bd6:	b2c0      	uxtb	r0, r0
}
 8004bd8:	4770      	bx	lr
	...

08004bdc <HAL_RTC_GetTime>:
{
 8004bdc:	b570      	push	{r4, r5, r6, lr}
 8004bde:	000c      	movs	r4, r1
  sTime->SubSeconds = (uint32_t)(hrtc->Instance->SSR);
 8004be0:	6803      	ldr	r3, [r0, #0]
 8004be2:	689b      	ldr	r3, [r3, #8]
 8004be4:	604b      	str	r3, [r1, #4]
  sTime->SecondFraction = (uint32_t)(hrtc->Instance->PRER & RTC_PRER_PREDIV_S);
 8004be6:	6803      	ldr	r3, [r0, #0]
 8004be8:	691b      	ldr	r3, [r3, #16]
 8004bea:	045b      	lsls	r3, r3, #17
 8004bec:	0c5b      	lsrs	r3, r3, #17
 8004bee:	608b      	str	r3, [r1, #8]
  tmpreg = (uint32_t)(hrtc->Instance->TR & RTC_TR_RESERVED_MASK);
 8004bf0:	6803      	ldr	r3, [r0, #0]
 8004bf2:	681b      	ldr	r3, [r3, #0]
 8004bf4:	490d      	ldr	r1, [pc, #52]	@ (8004c2c <HAL_RTC_GetTime+0x50>)
 8004bf6:	400b      	ands	r3, r1
  sTime->Hours = (uint8_t)((tmpreg & (RTC_TR_HT | RTC_TR_HU)) >> RTC_TR_HU_Pos);
 8004bf8:	0298      	lsls	r0, r3, #10
 8004bfa:	0e80      	lsrs	r0, r0, #26
 8004bfc:	7020      	strb	r0, [r4, #0]
  sTime->Minutes = (uint8_t)((tmpreg & (RTC_TR_MNT | RTC_TR_MNU)) >> RTC_TR_MNU_Pos);
 8004bfe:	0a1d      	lsrs	r5, r3, #8
 8004c00:	b2ed      	uxtb	r5, r5
 8004c02:	7065      	strb	r5, [r4, #1]
  sTime->Seconds = (uint8_t)((tmpreg & (RTC_TR_ST | RTC_TR_SU)) >> RTC_TR_SU_Pos);
 8004c04:	b2de      	uxtb	r6, r3
 8004c06:	70a6      	strb	r6, [r4, #2]
  sTime->TimeFormat = (uint8_t)((tmpreg & (RTC_TR_PM)) >> RTC_TR_PM_Pos);
 8004c08:	0d9b      	lsrs	r3, r3, #22
 8004c0a:	70e3      	strb	r3, [r4, #3]
  if(Format == RTC_FORMAT_BIN)
 8004c0c:	2a00      	cmp	r2, #0
 8004c0e:	d10a      	bne.n	8004c26 <HAL_RTC_GetTime+0x4a>
    sTime->Hours = (uint8_t)RTC_Bcd2ToByte(sTime->Hours);
 8004c10:	f7ff ffda 	bl	8004bc8 <RTC_Bcd2ToByte>
 8004c14:	7020      	strb	r0, [r4, #0]
    sTime->Minutes = (uint8_t)RTC_Bcd2ToByte(sTime->Minutes);
 8004c16:	0028      	movs	r0, r5
 8004c18:	f7ff ffd6 	bl	8004bc8 <RTC_Bcd2ToByte>
 8004c1c:	7060      	strb	r0, [r4, #1]
    sTime->Seconds = (uint8_t)RTC_Bcd2ToByte(sTime->Seconds);
 8004c1e:	0030      	movs	r0, r6
 8004c20:	f7ff ffd2 	bl	8004bc8 <RTC_Bcd2ToByte>
 8004c24:	70a0      	strb	r0, [r4, #2]
}
 8004c26:	2000      	movs	r0, #0
 8004c28:	bd70      	pop	{r4, r5, r6, pc}
 8004c2a:	46c0      	nop			@ (mov r8, r8)
 8004c2c:	007f7f7f 	.word	0x007f7f7f

08004c30 <HAL_RTC_GetDate>:
{
 8004c30:	b570      	push	{r4, r5, r6, lr}
 8004c32:	000c      	movs	r4, r1
  datetmpreg = (uint32_t)(hrtc->Instance->DR & RTC_DR_RESERVED_MASK);
 8004c34:	6803      	ldr	r3, [r0, #0]
 8004c36:	685b      	ldr	r3, [r3, #4]
 8004c38:	490d      	ldr	r1, [pc, #52]	@ (8004c70 <HAL_RTC_GetDate+0x40>)
 8004c3a:	400b      	ands	r3, r1
  sDate->Year = (uint8_t)((datetmpreg & (RTC_DR_YT | RTC_DR_YU)) >> RTC_DR_YU_Pos);
 8004c3c:	0c18      	lsrs	r0, r3, #16
 8004c3e:	70e0      	strb	r0, [r4, #3]
  sDate->Month = (uint8_t)((datetmpreg & (RTC_DR_MT | RTC_DR_MU)) >> RTC_DR_MU_Pos);
 8004c40:	04dd      	lsls	r5, r3, #19
 8004c42:	0eed      	lsrs	r5, r5, #27
 8004c44:	7065      	strb	r5, [r4, #1]
  sDate->Date = (uint8_t)((datetmpreg & (RTC_DR_DT | RTC_DR_DU)) >> RTC_DR_DU_Pos);
 8004c46:	b2de      	uxtb	r6, r3
 8004c48:	70a6      	strb	r6, [r4, #2]
  sDate->WeekDay = (uint8_t)((datetmpreg & (RTC_DR_WDU)) >> RTC_DR_WDU_Pos);
 8004c4a:	041b      	lsls	r3, r3, #16
 8004c4c:	0f5b      	lsrs	r3, r3, #29
 8004c4e:	7023      	strb	r3, [r4, #0]
  if(Format == RTC_FORMAT_BIN)
 8004c50:	2a00      	cmp	r2, #0
 8004c52:	d10a      	bne.n	8004c6a <HAL_RTC_GetDate+0x3a>
    sDate->Year = (uint8_t)RTC_Bcd2ToByte(sDate->Year);
 8004c54:	f7ff ffb8 	bl	8004bc8 <RTC_Bcd2ToByte>
 8004c58:	70e0      	strb	r0, [r4, #3]
    sDate->Month = (uint8_t)RTC_Bcd2ToByte(sDate->Month);
 8004c5a:	0028      	movs	r0, r5
 8004c5c:	f7ff ffb4 	bl	8004bc8 <RTC_Bcd2ToByte>
 8004c60:	7060      	strb	r0, [r4, #1]
    sDate->Date = (uint8_t)RTC_Bcd2ToByte(sDate->Date);
 8004c62:	0030      	movs	r0, r6
 8004c64:	f7ff ffb0 	bl	8004bc8 <RTC_Bcd2ToByte>
 8004c68:	70a0      	strb	r0, [r4, #2]
}
 8004c6a:	2000      	movs	r0, #0
 8004c6c:	bd70      	pop	{r4, r5, r6, pc}
 8004c6e:	46c0      	nop			@ (mov r8, r8)
 8004c70:	00ffff3f 	.word	0x00ffff3f

08004c74 <HAL_TIM_Base_Start>:
  * @brief  Starts the TIM Base generation.
  * @param  htim TIM Base handle
  * @retval HAL status
  */
HAL_StatusTypeDef HAL_TIM_Base_Start(TIM_HandleTypeDef *htim)
{
 8004c74:	0003      	movs	r3, r0

  /* Check the parameters */
  assert_param(IS_TIM_INSTANCE(htim->Instance));

  /* Check the TIM state */
  if (htim->State != HAL_TIM_STATE_READY)
 8004c76:	223d      	movs	r2, #61	@ 0x3d
 8004c78:	5c82      	ldrb	r2, [r0, r2]
  {
    return HAL_ERROR;
 8004c7a:	2001      	movs	r0, #1
  if (htim->State != HAL_TIM_STATE_READY)
 8004c7c:	2a01      	cmp	r2, #1
 8004c7e:	d10e      	bne.n	8004c9e <HAL_TIM_Base_Start+0x2a>
  }

  /* Set the TIM state */
  htim->State = HAL_TIM_STATE_BUSY;
 8004c80:	323c      	adds	r2, #60	@ 0x3c
 8004c82:	2102      	movs	r1, #2
 8004c84:	5499      	strb	r1, [r3, r2]

  /* Enable the Peripheral, except in trigger mode where enable is automatically done with trigger */
  if (IS_TIM_SLAVE_INSTANCE(htim->Instance))
 8004c86:	681b      	ldr	r3, [r3, #0]
 8004c88:	4a0e      	ldr	r2, [pc, #56]	@ (8004cc4 <HAL_TIM_Base_Start+0x50>)
 8004c8a:	4293      	cmp	r3, r2
 8004c8c:	d008      	beq.n	8004ca0 <HAL_TIM_Base_Start+0x2c>
 8004c8e:	4a0e      	ldr	r2, [pc, #56]	@ (8004cc8 <HAL_TIM_Base_Start+0x54>)
 8004c90:	4293      	cmp	r3, r2
 8004c92:	d005      	beq.n	8004ca0 <HAL_TIM_Base_Start+0x2c>
      __HAL_TIM_ENABLE(htim);
    }
  }
  else
  {
    __HAL_TIM_ENABLE(htim);
 8004c94:	681a      	ldr	r2, [r3, #0]
 8004c96:	2101      	movs	r1, #1
 8004c98:	430a      	orrs	r2, r1
 8004c9a:	601a      	str	r2, [r3, #0]
  }

  /* Return function status */
  return HAL_OK;
 8004c9c:	2000      	movs	r0, #0
}
 8004c9e:	4770      	bx	lr
    tmpsmcr = htim->Instance->SMCR & TIM_SMCR_SMS;
 8004ca0:	689a      	ldr	r2, [r3, #8]
 8004ca2:	490a      	ldr	r1, [pc, #40]	@ (8004ccc <HAL_TIM_Base_Start+0x58>)
 8004ca4:	400a      	ands	r2, r1
    if (!IS_TIM_SLAVEMODE_TRIGGER_ENABLED(tmpsmcr))
 8004ca6:	2a06      	cmp	r2, #6
 8004ca8:	d008      	beq.n	8004cbc <HAL_TIM_Base_Start+0x48>
 8004caa:	3907      	subs	r1, #7
 8004cac:	428a      	cmp	r2, r1
 8004cae:	d007      	beq.n	8004cc0 <HAL_TIM_Base_Start+0x4c>
      __HAL_TIM_ENABLE(htim);
 8004cb0:	681a      	ldr	r2, [r3, #0]
 8004cb2:	2101      	movs	r1, #1
 8004cb4:	430a      	orrs	r2, r1
 8004cb6:	601a      	str	r2, [r3, #0]
  return HAL_OK;
 8004cb8:	2000      	movs	r0, #0
 8004cba:	e7f0      	b.n	8004c9e <HAL_TIM_Base_Start+0x2a>
 8004cbc:	2000      	movs	r0, #0
 8004cbe:	e7ee      	b.n	8004c9e <HAL_TIM_Base_Start+0x2a>
 8004cc0:	2000      	movs	r0, #0
 8004cc2:	e7ec      	b.n	8004c9e <HAL_TIM_Base_Start+0x2a>
 8004cc4:	40012c00 	.word	0x40012c00
 8004cc8:	40000400 	.word	0x40000400
 8004ccc:	00010007 	.word	0x00010007

08004cd0 <HAL_TIM_Base_Stop>:
{
  /* Check the parameters */
  assert_param(IS_TIM_INSTANCE(htim->Instance));

  /* Disable the Peripheral */
  __HAL_TIM_DISABLE(htim);
 8004cd0:	6803      	ldr	r3, [r0, #0]
 8004cd2:	6a19      	ldr	r1, [r3, #32]
 8004cd4:	4a07      	ldr	r2, [pc, #28]	@ (8004cf4 <HAL_TIM_Base_Stop+0x24>)
 8004cd6:	4211      	tst	r1, r2
 8004cd8:	d107      	bne.n	8004cea <HAL_TIM_Base_Stop+0x1a>
 8004cda:	6a19      	ldr	r1, [r3, #32]
 8004cdc:	4a06      	ldr	r2, [pc, #24]	@ (8004cf8 <HAL_TIM_Base_Stop+0x28>)
 8004cde:	4211      	tst	r1, r2
 8004ce0:	d103      	bne.n	8004cea <HAL_TIM_Base_Stop+0x1a>
 8004ce2:	681a      	ldr	r2, [r3, #0]
 8004ce4:	2101      	movs	r1, #1
 8004ce6:	438a      	bics	r2, r1
 8004ce8:	601a      	str	r2, [r3, #0]

  /* Set the TIM state */
  htim->State = HAL_TIM_STATE_READY;
 8004cea:	233d      	movs	r3, #61	@ 0x3d
 8004cec:	2201      	movs	r2, #1
 8004cee:	54c2      	strb	r2, [r0, r3]

  /* Return function status */
  return HAL_OK;
}
 8004cf0:	2000      	movs	r0, #0
 8004cf2:	4770      	bx	lr
 8004cf4:	00001111 	.word	0x00001111
 8004cf8:	00000444 	.word	0x00000444

08004cfc <HAL_TIM_Base_Start_IT>:
  * @brief  Starts the TIM Base generation in interrupt mode.
  * @param  htim TIM Base handle
  * @retval HAL status
  */
HAL_StatusTypeDef HAL_TIM_Base_Start_IT(TIM_HandleTypeDef *htim)
{
 8004cfc:	0003      	movs	r3, r0

  /* Check the parameters */
  assert_param(IS_TIM_INSTANCE(htim->Instance));

  /* Check the TIM state */
  if (htim->State != HAL_TIM_STATE_READY)
 8004cfe:	223d      	movs	r2, #61	@ 0x3d
 8004d00:	5c82      	ldrb	r2, [r0, r2]
  {
    return HAL_ERROR;
 8004d02:	2001      	movs	r0, #1
  if (htim->State != HAL_TIM_STATE_READY)
 8004d04:	2a01      	cmp	r2, #1
 8004d06:	d112      	bne.n	8004d2e <HAL_TIM_Base_Start_IT+0x32>
  }

  /* Set the TIM state */
  htim->State = HAL_TIM_STATE_BUSY;
 8004d08:	323c      	adds	r2, #60	@ 0x3c
 8004d0a:	2102      	movs	r1, #2
 8004d0c:	5499      	strb	r1, [r3, r2]

  /* Enable the TIM Update interrupt */
  __HAL_TIM_ENABLE_IT(htim, TIM_IT_UPDATE);
 8004d0e:	6819      	ldr	r1, [r3, #0]
 8004d10:	68ca      	ldr	r2, [r1, #12]
 8004d12:	4302      	orrs	r2, r0
 8004d14:	60ca      	str	r2, [r1, #12]

  /* Enable the Peripheral, except in trigger mode where enable is automatically done with trigger */
  if (IS_TIM_SLAVE_INSTANCE(htim->Instance))
 8004d16:	681b      	ldr	r3, [r3, #0]
 8004d18:	4a0e      	ldr	r2, [pc, #56]	@ (8004d54 <HAL_TIM_Base_Start_IT+0x58>)
 8004d1a:	4293      	cmp	r3, r2
 8004d1c:	d008      	beq.n	8004d30 <HAL_TIM_Base_Start_IT+0x34>
 8004d1e:	4a0e      	ldr	r2, [pc, #56]	@ (8004d58 <HAL_TIM_Base_Start_IT+0x5c>)
 8004d20:	4293      	cmp	r3, r2
 8004d22:	d005      	beq.n	8004d30 <HAL_TIM_Base_Start_IT+0x34>
      __HAL_TIM_ENABLE(htim);
    }
  }
  else
  {
    __HAL_TIM_ENABLE(htim);
 8004d24:	681a      	ldr	r2, [r3, #0]
 8004d26:	2101      	movs	r1, #1
 8004d28:	430a      	orrs	r2, r1
 8004d2a:	601a      	str	r2, [r3, #0]
  }

  /* Return function status */
  return HAL_OK;
 8004d2c:	2000      	movs	r0, #0
}
 8004d2e:	4770      	bx	lr
    tmpsmcr = htim->Instance->SMCR & TIM_SMCR_SMS;
 8004d30:	689a      	ldr	r2, [r3, #8]
 8004d32:	490a      	ldr	r1, [pc, #40]	@ (8004d5c <HAL_TIM_Base_Start_IT+0x60>)
 8004d34:	400a      	ands	r2, r1
    if (!IS_TIM_SLAVEMODE_TRIGGER_ENABLED(tmpsmcr))
 8004d36:	2a06      	cmp	r2, #6
 8004d38:	d008      	beq.n	8004d4c <HAL_TIM_Base_Start_IT+0x50>
 8004d3a:	3907      	subs	r1, #7
 8004d3c:	428a      	cmp	r2, r1
 8004d3e:	d007      	beq.n	8004d50 <HAL_TIM_Base_Start_IT+0x54>
      __HAL_TIM_ENABLE(htim);
 8004d40:	681a      	ldr	r2, [r3, #0]
 8004d42:	2101      	movs	r1, #1
 8004d44:	430a      	orrs	r2, r1
 8004d46:	601a      	str	r2, [r3, #0]
  return HAL_OK;
 8004d48:	2000      	movs	r0, #0
 8004d4a:	e7f0      	b.n	8004d2e <HAL_TIM_Base_Start_IT+0x32>
 8004d4c:	2000      	movs	r0, #0
 8004d4e:	e7ee      	b.n	8004d2e <HAL_TIM_Base_Start_IT+0x32>
 8004d50:	2000      	movs	r0, #0
 8004d52:	e7ec      	b.n	8004d2e <HAL_TIM_Base_Start_IT+0x32>
 8004d54:	40012c00 	.word	0x40012c00
 8004d58:	40000400 	.word	0x40000400
 8004d5c:	00010007 	.word	0x00010007

08004d60 <HAL_TIM_Base_Stop_IT>:
{
  /* Check the parameters */
  assert_param(IS_TIM_INSTANCE(htim->Instance));

  /* Disable the TIM Update interrupt */
  __HAL_TIM_DISABLE_IT(htim, TIM_IT_UPDATE);
 8004d60:	6802      	ldr	r2, [r0, #0]
 8004d62:	68d3      	ldr	r3, [r2, #12]
 8004d64:	2101      	movs	r1, #1
 8004d66:	438b      	bics	r3, r1
 8004d68:	60d3      	str	r3, [r2, #12]

  /* Disable the Peripheral */
  __HAL_TIM_DISABLE(htim);
 8004d6a:	6803      	ldr	r3, [r0, #0]
 8004d6c:	6a19      	ldr	r1, [r3, #32]
 8004d6e:	4a08      	ldr	r2, [pc, #32]	@ (8004d90 <HAL_TIM_Base_Stop_IT+0x30>)
 8004d70:	4211      	tst	r1, r2
 8004d72:	d107      	bne.n	8004d84 <HAL_TIM_Base_Stop_IT+0x24>
 8004d74:	6a19      	ldr	r1, [r3, #32]
 8004d76:	4a07      	ldr	r2, [pc, #28]	@ (8004d94 <HAL_TIM_Base_Stop_IT+0x34>)
 8004d78:	4211      	tst	r1, r2
 8004d7a:	d103      	bne.n	8004d84 <HAL_TIM_Base_Stop_IT+0x24>
 8004d7c:	681a      	ldr	r2, [r3, #0]
 8004d7e:	2101      	movs	r1, #1
 8004d80:	438a      	bics	r2, r1
 8004d82:	601a      	str	r2, [r3, #0]

  /* Set the TIM state */
  htim->State = HAL_TIM_STATE_READY;
 8004d84:	233d      	movs	r3, #61	@ 0x3d
 8004d86:	2201      	movs	r2, #1
 8004d88:	54c2      	strb	r2, [r0, r3]

  /* Return function status */
  return HAL_OK;
}
 8004d8a:	2000      	movs	r0, #0
 8004d8c:	4770      	bx	lr
 8004d8e:	46c0      	nop			@ (mov r8, r8)
 8004d90:	00001111 	.word	0x00001111
 8004d94:	00000444 	.word	0x00000444

08004d98 <HAL_TIM_PeriodElapsedCallback>:
  UNUSED(htim);

  /* NOTE : This function should not be modified, when the callback is needed,
            the HAL_TIM_PeriodElapsedCallback could be implemented in the user file
   */
}
 8004d98:	4770      	bx	lr

08004d9a <HAL_TIM_OC_DelayElapsedCallback>:
  UNUSED(htim);

  /* NOTE : This function should not be modified, when the callback is needed,
            the HAL_TIM_OC_DelayElapsedCallback could be implemented in the user file
   */
}
 8004d9a:	4770      	bx	lr

08004d9c <HAL_TIM_IC_CaptureCallback>:
  UNUSED(htim);

  /* NOTE : This function should not be modified, when the callback is needed,
            the HAL_TIM_IC_CaptureCallback could be implemented in the user file
   */
}
 8004d9c:	4770      	bx	lr

08004d9e <HAL_TIM_PWM_PulseFinishedCallback>:
  UNUSED(htim);

  /* NOTE : This function should not be modified, when the callback is needed,
            the HAL_TIM_PWM_PulseFinishedCallback could be implemented in the user file
   */
}
 8004d9e:	4770      	bx	lr

08004da0 <HAL_TIM_TriggerCallback>:
  UNUSED(htim);

  /* NOTE : This function should not be modified, when the callback is needed,
            the HAL_TIM_TriggerCallback could be implemented in the user file
   */
}
 8004da0:	4770      	bx	lr
	...

08004da4 <HAL_TIM_IRQHandler>:
{
 8004da4:	b570      	push	{r4, r5, r6, lr}
 8004da6:	0004      	movs	r4, r0
  uint32_t itsource = htim->Instance->DIER;
 8004da8:	6803      	ldr	r3, [r0, #0]
 8004daa:	68de      	ldr	r6, [r3, #12]
  uint32_t itflag   = htim->Instance->SR;
 8004dac:	691d      	ldr	r5, [r3, #16]
  if ((itflag & (TIM_FLAG_CC1)) == (TIM_FLAG_CC1))
 8004dae:	07aa      	lsls	r2, r5, #30
 8004db0:	d50e      	bpl.n	8004dd0 <HAL_TIM_IRQHandler+0x2c>
    if ((itsource & (TIM_IT_CC1)) == (TIM_IT_CC1))
 8004db2:	07b2      	lsls	r2, r6, #30
 8004db4:	d50c      	bpl.n	8004dd0 <HAL_TIM_IRQHandler+0x2c>
        __HAL_TIM_CLEAR_FLAG(htim, TIM_FLAG_CC1);
 8004db6:	2203      	movs	r2, #3
 8004db8:	4252      	negs	r2, r2
 8004dba:	611a      	str	r2, [r3, #16]
        htim->Channel = HAL_TIM_ACTIVE_CHANNEL_1;
 8004dbc:	2301      	movs	r3, #1
 8004dbe:	7703      	strb	r3, [r0, #28]
        if ((htim->Instance->CCMR1 & TIM_CCMR1_CC1S) != 0x00U)
 8004dc0:	6803      	ldr	r3, [r0, #0]
 8004dc2:	699b      	ldr	r3, [r3, #24]
 8004dc4:	079b      	lsls	r3, r3, #30
 8004dc6:	d053      	beq.n	8004e70 <HAL_TIM_IRQHandler+0xcc>
          HAL_TIM_IC_CaptureCallback(htim);
 8004dc8:	f7ff ffe8 	bl	8004d9c <HAL_TIM_IC_CaptureCallback>
        htim->Channel = HAL_TIM_ACTIVE_CHANNEL_CLEARED;
 8004dcc:	2300      	movs	r3, #0
 8004dce:	7723      	strb	r3, [r4, #28]
  if ((itflag & (TIM_FLAG_CC2)) == (TIM_FLAG_CC2))
 8004dd0:	076b      	lsls	r3, r5, #29
 8004dd2:	d512      	bpl.n	8004dfa <HAL_TIM_IRQHandler+0x56>
    if ((itsource & (TIM_IT_CC2)) == (TIM_IT_CC2))
 8004dd4:	0773      	lsls	r3, r6, #29
 8004dd6:	d510      	bpl.n	8004dfa <HAL_TIM_IRQHandler+0x56>
      __HAL_TIM_CLEAR_FLAG(htim, TIM_FLAG_CC2);
 8004dd8:	6823      	ldr	r3, [r4, #0]
 8004dda:	2205      	movs	r2, #5
 8004ddc:	4252      	negs	r2, r2
 8004dde:	611a      	str	r2, [r3, #16]
      htim->Channel = HAL_TIM_ACTIVE_CHANNEL_2;
 8004de0:	2302      	movs	r3, #2
 8004de2:	7723      	strb	r3, [r4, #28]
      if ((htim->Instance->CCMR1 & TIM_CCMR1_CC2S) != 0x00U)
 8004de4:	6823      	ldr	r3, [r4, #0]
 8004de6:	699a      	ldr	r2, [r3, #24]
 8004de8:	23c0      	movs	r3, #192	@ 0xc0
 8004dea:	009b      	lsls	r3, r3, #2
 8004dec:	421a      	tst	r2, r3
 8004dee:	d045      	beq.n	8004e7c <HAL_TIM_IRQHandler+0xd8>
        HAL_TIM_IC_CaptureCallback(htim);
 8004df0:	0020      	movs	r0, r4
 8004df2:	f7ff ffd3 	bl	8004d9c <HAL_TIM_IC_CaptureCallback>
      htim->Channel = HAL_TIM_ACTIVE_CHANNEL_CLEARED;
 8004df6:	2300      	movs	r3, #0
 8004df8:	7723      	strb	r3, [r4, #28]
  if ((itflag & (TIM_FLAG_CC3)) == (TIM_FLAG_CC3))
 8004dfa:	072b      	lsls	r3, r5, #28
 8004dfc:	d510      	bpl.n	8004e20 <HAL_TIM_IRQHandler+0x7c>
    if ((itsource & (TIM_IT_CC3)) == (TIM_IT_CC3))
 8004dfe:	0733      	lsls	r3, r6, #28
 8004e00:	d50e      	bpl.n	8004e20 <HAL_TIM_IRQHandler+0x7c>
      __HAL_TIM_CLEAR_FLAG(htim, TIM_FLAG_CC3);
 8004e02:	6823      	ldr	r3, [r4, #0]
 8004e04:	2209      	movs	r2, #9
 8004e06:	4252      	negs	r2, r2
 8004e08:	611a      	str	r2, [r3, #16]
      htim->Channel = HAL_TIM_ACTIVE_CHANNEL_3;
 8004e0a:	2304      	movs	r3, #4
 8004e0c:	7723      	strb	r3, [r4, #28]
      if ((htim->Instance->CCMR2 & TIM_CCMR2_CC3S) != 0x00U)
 8004e0e:	6823      	ldr	r3, [r4, #0]
 8004e10:	69db      	ldr	r3, [r3, #28]
 8004e12:	079b      	lsls	r3, r3, #30
 8004e14:	d039      	beq.n	8004e8a <HAL_TIM_IRQHandler+0xe6>
        HAL_TIM_IC_CaptureCallback(htim);
 8004e16:	0020      	movs	r0, r4
 8004e18:	f7ff ffc0 	bl	8004d9c <HAL_TIM_IC_CaptureCallback>
      htim->Channel = HAL_TIM_ACTIVE_CHANNEL_CLEARED;
 8004e1c:	2300      	movs	r3, #0
 8004e1e:	7723      	strb	r3, [r4, #28]
  if ((itflag & (TIM_FLAG_CC4)) == (TIM_FLAG_CC4))
 8004e20:	06eb      	lsls	r3, r5, #27
 8004e22:	d512      	bpl.n	8004e4a <HAL_TIM_IRQHandler+0xa6>
    if ((itsource & (TIM_IT_CC4)) == (TIM_IT_CC4))
 8004e24:	06f3      	lsls	r3, r6, #27
 8004e26:	d510      	bpl.n	8004e4a <HAL_TIM_IRQHandler+0xa6>
      __HAL_TIM_CLEAR_FLAG(htim, TIM_FLAG_CC4);
 8004e28:	6823      	ldr	r3, [r4, #0]
 8004e2a:	2211      	movs	r2, #17
 8004e2c:	4252      	negs	r2, r2
 8004e2e:	611a      	str	r2, [r3, #16]
      htim->Channel = HAL_TIM_ACTIVE_CHANNEL_4;
 8004e30:	2308      	movs	r3, #8
 8004e32:	7723      	strb	r3, [r4, #28]
      if ((htim->Instance->CCMR2 & TIM_CCMR2_CC4S) != 0x00U)
 8004e34:	6823      	ldr	r3, [r4, #0]
 8004e36:	69da      	ldr	r2, [r3, #28]
 8004e38:	23c0      	movs	r3, #192	@ 0xc0
 8004e3a:	009b      	lsls	r3, r3, #2
 8004e3c:	421a      	tst	r2, r3
 8004e3e:	d02b      	beq.n	8004e98 <HAL_TIM_IRQHandler+0xf4>
        HAL_TIM_IC_CaptureCallback(htim);
 8004e40:	0020      	movs	r0, r4
 8004e42:	f7ff ffab 	bl	8004d9c <HAL_TIM_IC_CaptureCallback>
      htim->Channel = HAL_TIM_ACTIVE_CHANNEL_CLEARED;
 8004e46:	2300      	movs	r3, #0
 8004e48:	7723      	strb	r3, [r4, #28]
  if ((itflag & (TIM_FLAG_UPDATE)) == (TIM_FLAG_UPDATE))
 8004e4a:	07eb      	lsls	r3, r5, #31
 8004e4c:	d501      	bpl.n	8004e52 <HAL_TIM_IRQHandler+0xae>
    if ((itsource & (TIM_IT_UPDATE)) == (TIM_IT_UPDATE))
 8004e4e:	07f3      	lsls	r3, r6, #31
 8004e50:	d429      	bmi.n	8004ea6 <HAL_TIM_IRQHandler+0x102>
  if (((itflag & (TIM_FLAG_BREAK)) == (TIM_FLAG_BREAK)) || \
 8004e52:	2382      	movs	r3, #130	@ 0x82
 8004e54:	019b      	lsls	r3, r3, #6
 8004e56:	421d      	tst	r5, r3
 8004e58:	d03c      	beq.n	8004ed4 <HAL_TIM_IRQHandler+0x130>
    if ((itsource & (TIM_IT_BREAK)) == (TIM_IT_BREAK))
 8004e5a:	0633      	lsls	r3, r6, #24
 8004e5c:	d42b      	bmi.n	8004eb6 <HAL_TIM_IRQHandler+0x112>
  if ((itflag & (TIM_FLAG_TRIGGER)) == (TIM_FLAG_TRIGGER))
 8004e5e:	066b      	lsls	r3, r5, #25
 8004e60:	d501      	bpl.n	8004e66 <HAL_TIM_IRQHandler+0xc2>
    if ((itsource & (TIM_IT_TRIGGER)) == (TIM_IT_TRIGGER))
 8004e62:	0673      	lsls	r3, r6, #25
 8004e64:	d43b      	bmi.n	8004ede <HAL_TIM_IRQHandler+0x13a>
  if ((itflag & (TIM_FLAG_COM)) == (TIM_FLAG_COM))
 8004e66:	06ad      	lsls	r5, r5, #26
 8004e68:	d501      	bpl.n	8004e6e <HAL_TIM_IRQHandler+0xca>
    if ((itsource & (TIM_IT_COM)) == (TIM_IT_COM))
 8004e6a:	06b6      	lsls	r6, r6, #26
 8004e6c:	d43f      	bmi.n	8004eee <HAL_TIM_IRQHandler+0x14a>
}
 8004e6e:	bd70      	pop	{r4, r5, r6, pc}
          HAL_TIM_OC_DelayElapsedCallback(htim);
 8004e70:	f7ff ff93 	bl	8004d9a <HAL_TIM_OC_DelayElapsedCallback>
          HAL_TIM_PWM_PulseFinishedCallback(htim);
 8004e74:	0020      	movs	r0, r4
 8004e76:	f7ff ff92 	bl	8004d9e <HAL_TIM_PWM_PulseFinishedCallback>
 8004e7a:	e7a7      	b.n	8004dcc <HAL_TIM_IRQHandler+0x28>
        HAL_TIM_OC_DelayElapsedCallback(htim);
 8004e7c:	0020      	movs	r0, r4
 8004e7e:	f7ff ff8c 	bl	8004d9a <HAL_TIM_OC_DelayElapsedCallback>
        HAL_TIM_PWM_PulseFinishedCallback(htim);
 8004e82:	0020      	movs	r0, r4
 8004e84:	f7ff ff8b 	bl	8004d9e <HAL_TIM_PWM_PulseFinishedCallback>
 8004e88:	e7b5      	b.n	8004df6 <HAL_TIM_IRQHandler+0x52>
        HAL_TIM_OC_DelayElapsedCallback(htim);
 8004e8a:	0020      	movs	r0, r4
 8004e8c:	f7ff ff85 	bl	8004d9a <HAL_TIM_OC_DelayElapsedCallback>
        HAL_TIM_PWM_PulseFinishedCallback(htim);
 8004e90:	0020      	movs	r0, r4
 8004e92:	f7ff ff84 	bl	8004d9e <HAL_TIM_PWM_PulseFinishedCallback>
 8004e96:	e7c1      	b.n	8004e1c <HAL_TIM_IRQHandler+0x78>
        HAL_TIM_OC_DelayElapsedCallback(htim);
 8004e98:	0020      	movs	r0, r4
 8004e9a:	f7ff ff7e 	bl	8004d9a <HAL_TIM_OC_DelayElapsedCallback>
        HAL_TIM_PWM_PulseFinishedCallback(htim);
 8004e9e:	0020      	movs	r0, r4
 8004ea0:	f7ff ff7d 	bl	8004d9e <HAL_TIM_PWM_PulseFinishedCallback>
 8004ea4:	e7cf      	b.n	8004e46 <HAL_TIM_IRQHandler+0xa2>
      __HAL_TIM_CLEAR_FLAG(htim, TIM_FLAG_UPDATE);
 8004ea6:	6823      	ldr	r3, [r4, #0]
 8004ea8:	2202      	movs	r2, #2
 8004eaa:	4252      	negs	r2, r2
 8004eac:	611a      	str	r2, [r3, #16]
      HAL_TIM_PeriodElapsedCallback(htim);
 8004eae:	0020      	movs	r0, r4
 8004eb0:	f7ff ff72 	bl	8004d98 <HAL_TIM_PeriodElapsedCallback>
 8004eb4:	e7cd      	b.n	8004e52 <HAL_TIM_IRQHandler+0xae>
      __HAL_TIM_CLEAR_FLAG(htim, TIM_FLAG_BREAK | TIM_FLAG_SYSTEM_BREAK);
 8004eb6:	6823      	ldr	r3, [r4, #0]
 8004eb8:	4a11      	ldr	r2, [pc, #68]	@ (8004f00 <HAL_TIM_IRQHandler+0x15c>)
 8004eba:	611a      	str	r2, [r3, #16]
      HAL_TIMEx_BreakCallback(htim);
 8004ebc:	0020      	movs	r0, r4
 8004ebe:	f000 f9c6 	bl	800524e <HAL_TIMEx_BreakCallback>
  if ((itflag & (TIM_FLAG_BREAK2)) == (TIM_FLAG_BREAK2))
 8004ec2:	05eb      	lsls	r3, r5, #23
 8004ec4:	d5cb      	bpl.n	8004e5e <HAL_TIM_IRQHandler+0xba>
      __HAL_TIM_CLEAR_FLAG(htim, TIM_FLAG_BREAK2);
 8004ec6:	6823      	ldr	r3, [r4, #0]
 8004ec8:	4a0e      	ldr	r2, [pc, #56]	@ (8004f04 <HAL_TIM_IRQHandler+0x160>)
 8004eca:	611a      	str	r2, [r3, #16]
      HAL_TIMEx_Break2Callback(htim);
 8004ecc:	0020      	movs	r0, r4
 8004ece:	f000 f9bf 	bl	8005250 <HAL_TIMEx_Break2Callback>
 8004ed2:	e7c4      	b.n	8004e5e <HAL_TIM_IRQHandler+0xba>
  if ((itflag & (TIM_FLAG_BREAK2)) == (TIM_FLAG_BREAK2))
 8004ed4:	05eb      	lsls	r3, r5, #23
 8004ed6:	d5c2      	bpl.n	8004e5e <HAL_TIM_IRQHandler+0xba>
    if ((itsource & (TIM_IT_BREAK)) == (TIM_IT_BREAK))
 8004ed8:	0633      	lsls	r3, r6, #24
 8004eda:	d5c0      	bpl.n	8004e5e <HAL_TIM_IRQHandler+0xba>
 8004edc:	e7f3      	b.n	8004ec6 <HAL_TIM_IRQHandler+0x122>
      __HAL_TIM_CLEAR_FLAG(htim, TIM_FLAG_TRIGGER);
 8004ede:	6823      	ldr	r3, [r4, #0]
 8004ee0:	2241      	movs	r2, #65	@ 0x41
 8004ee2:	4252      	negs	r2, r2
 8004ee4:	611a      	str	r2, [r3, #16]
      HAL_TIM_TriggerCallback(htim);
 8004ee6:	0020      	movs	r0, r4
 8004ee8:	f7ff ff5a 	bl	8004da0 <HAL_TIM_TriggerCallback>
 8004eec:	e7bb      	b.n	8004e66 <HAL_TIM_IRQHandler+0xc2>
      __HAL_TIM_CLEAR_FLAG(htim, TIM_FLAG_COM);
 8004eee:	6823      	ldr	r3, [r4, #0]
 8004ef0:	2221      	movs	r2, #33	@ 0x21
 8004ef2:	4252      	negs	r2, r2
 8004ef4:	611a      	str	r2, [r3, #16]
      HAL_TIMEx_CommutCallback(htim);
 8004ef6:	0020      	movs	r0, r4
 8004ef8:	f000 f9a8 	bl	800524c <HAL_TIMEx_CommutCallback>
}
 8004efc:	e7b7      	b.n	8004e6e <HAL_TIM_IRQHandler+0xca>
 8004efe:	46c0      	nop			@ (mov r8, r8)
 8004f00:	ffffdf7f 	.word	0xffffdf7f
 8004f04:	fffffeff 	.word	0xfffffeff

08004f08 <TIM_Base_SetConfig>:
  * @retval None
  */
void TIM_Base_SetConfig(TIM_TypeDef *TIMx, const TIM_Base_InitTypeDef *Structure)
{
  uint32_t tmpcr1;
  tmpcr1 = TIMx->CR1;
 8004f08:	6803      	ldr	r3, [r0, #0]

  /* Set TIM Time Base Unit parameters ---------------------------------------*/
  if (IS_TIM_COUNTER_MODE_SELECT_INSTANCE(TIMx))
 8004f0a:	4a31      	ldr	r2, [pc, #196]	@ (8004fd0 <TIM_Base_SetConfig+0xc8>)
 8004f0c:	4290      	cmp	r0, r2
 8004f0e:	d015      	beq.n	8004f3c <TIM_Base_SetConfig+0x34>
 8004f10:	4a30      	ldr	r2, [pc, #192]	@ (8004fd4 <TIM_Base_SetConfig+0xcc>)
 8004f12:	4290      	cmp	r0, r2
 8004f14:	d012      	beq.n	8004f3c <TIM_Base_SetConfig+0x34>
    /* Select the Counter Mode */
    tmpcr1 &= ~(TIM_CR1_DIR | TIM_CR1_CMS);
    tmpcr1 |= Structure->CounterMode;
  }

  if (IS_TIM_CLOCK_DIVISION_INSTANCE(TIMx))
 8004f16:	4a30      	ldr	r2, [pc, #192]	@ (8004fd8 <TIM_Base_SetConfig+0xd0>)
 8004f18:	4290      	cmp	r0, r2
 8004f1a:	d03d      	beq.n	8004f98 <TIM_Base_SetConfig+0x90>
 8004f1c:	4a2f      	ldr	r2, [pc, #188]	@ (8004fdc <TIM_Base_SetConfig+0xd4>)
 8004f1e:	4290      	cmp	r0, r2
 8004f20:	d048      	beq.n	8004fb4 <TIM_Base_SetConfig+0xac>
 8004f22:	4a2f      	ldr	r2, [pc, #188]	@ (8004fe0 <TIM_Base_SetConfig+0xd8>)
 8004f24:	4290      	cmp	r0, r2
 8004f26:	d029      	beq.n	8004f7c <TIM_Base_SetConfig+0x74>
    tmpcr1 &= ~TIM_CR1_CKD;
    tmpcr1 |= (uint32_t)Structure->ClockDivision;
  }

  /* Set the auto-reload preload */
  MODIFY_REG(tmpcr1, TIM_CR1_ARPE, Structure->AutoReloadPreload);
 8004f28:	2280      	movs	r2, #128	@ 0x80
 8004f2a:	4393      	bics	r3, r2
 8004f2c:	694a      	ldr	r2, [r1, #20]
 8004f2e:	4313      	orrs	r3, r2

  TIMx->CR1 = tmpcr1;
 8004f30:	6003      	str	r3, [r0, #0]

  /* Set the Autoreload value */
  TIMx->ARR = (uint32_t)Structure->Period ;
 8004f32:	688b      	ldr	r3, [r1, #8]
 8004f34:	62c3      	str	r3, [r0, #44]	@ 0x2c

  /* Set the Prescaler value */
  TIMx->PSC = Structure->Prescaler;
 8004f36:	680b      	ldr	r3, [r1, #0]
 8004f38:	6283      	str	r3, [r0, #40]	@ 0x28

  if (IS_TIM_REPETITION_COUNTER_INSTANCE(TIMx))
 8004f3a:	e015      	b.n	8004f68 <TIM_Base_SetConfig+0x60>
    tmpcr1 &= ~(TIM_CR1_DIR | TIM_CR1_CMS);
 8004f3c:	2270      	movs	r2, #112	@ 0x70
 8004f3e:	4393      	bics	r3, r2
    tmpcr1 |= Structure->CounterMode;
 8004f40:	684a      	ldr	r2, [r1, #4]
 8004f42:	4313      	orrs	r3, r2
    tmpcr1 &= ~TIM_CR1_CKD;
 8004f44:	4a27      	ldr	r2, [pc, #156]	@ (8004fe4 <TIM_Base_SetConfig+0xdc>)
 8004f46:	4013      	ands	r3, r2
    tmpcr1 |= (uint32_t)Structure->ClockDivision;
 8004f48:	68ca      	ldr	r2, [r1, #12]
 8004f4a:	4313      	orrs	r3, r2
  MODIFY_REG(tmpcr1, TIM_CR1_ARPE, Structure->AutoReloadPreload);
 8004f4c:	2280      	movs	r2, #128	@ 0x80
 8004f4e:	4393      	bics	r3, r2
 8004f50:	694a      	ldr	r2, [r1, #20]
 8004f52:	4313      	orrs	r3, r2
  TIMx->CR1 = tmpcr1;
 8004f54:	6003      	str	r3, [r0, #0]
  TIMx->ARR = (uint32_t)Structure->Period ;
 8004f56:	688b      	ldr	r3, [r1, #8]
 8004f58:	62c3      	str	r3, [r0, #44]	@ 0x2c
  TIMx->PSC = Structure->Prescaler;
 8004f5a:	680b      	ldr	r3, [r1, #0]
 8004f5c:	6283      	str	r3, [r0, #40]	@ 0x28
  if (IS_TIM_REPETITION_COUNTER_INSTANCE(TIMx))
 8004f5e:	4b1c      	ldr	r3, [pc, #112]	@ (8004fd0 <TIM_Base_SetConfig+0xc8>)
 8004f60:	4298      	cmp	r0, r3
 8004f62:	d101      	bne.n	8004f68 <TIM_Base_SetConfig+0x60>
  {
    /* Set the Repetition Counter value */
    TIMx->RCR = Structure->RepetitionCounter;
 8004f64:	690b      	ldr	r3, [r1, #16]
 8004f66:	6303      	str	r3, [r0, #48]	@ 0x30
  }

  /* Generate an update event to reload the Prescaler
     and the repetition counter (only for advanced timer) value immediately */
  TIMx->EGR = TIM_EGR_UG;
 8004f68:	2301      	movs	r3, #1
 8004f6a:	6143      	str	r3, [r0, #20]

  /* Check if the update flag is set after the Update Generation, if so clear the UIF flag */
  if (HAL_IS_BIT_SET(TIMx->SR, TIM_FLAG_UPDATE))
 8004f6c:	6902      	ldr	r2, [r0, #16]
 8004f6e:	4213      	tst	r3, r2
 8004f70:	d003      	beq.n	8004f7a <TIM_Base_SetConfig+0x72>
  {
    /* Clear the update flag */
    CLEAR_BIT(TIMx->SR, TIM_FLAG_UPDATE);
 8004f72:	6903      	ldr	r3, [r0, #16]
 8004f74:	2201      	movs	r2, #1
 8004f76:	4393      	bics	r3, r2
 8004f78:	6103      	str	r3, [r0, #16]
  }
}
 8004f7a:	4770      	bx	lr
    tmpcr1 &= ~TIM_CR1_CKD;
 8004f7c:	4a19      	ldr	r2, [pc, #100]	@ (8004fe4 <TIM_Base_SetConfig+0xdc>)
 8004f7e:	4013      	ands	r3, r2
    tmpcr1 |= (uint32_t)Structure->ClockDivision;
 8004f80:	68ca      	ldr	r2, [r1, #12]
 8004f82:	4313      	orrs	r3, r2
  MODIFY_REG(tmpcr1, TIM_CR1_ARPE, Structure->AutoReloadPreload);
 8004f84:	2280      	movs	r2, #128	@ 0x80
 8004f86:	4393      	bics	r3, r2
 8004f88:	694a      	ldr	r2, [r1, #20]
 8004f8a:	4313      	orrs	r3, r2
  TIMx->CR1 = tmpcr1;
 8004f8c:	6003      	str	r3, [r0, #0]
  TIMx->ARR = (uint32_t)Structure->Period ;
 8004f8e:	688b      	ldr	r3, [r1, #8]
 8004f90:	62c3      	str	r3, [r0, #44]	@ 0x2c
  TIMx->PSC = Structure->Prescaler;
 8004f92:	680b      	ldr	r3, [r1, #0]
 8004f94:	6283      	str	r3, [r0, #40]	@ 0x28
  if (IS_TIM_REPETITION_COUNTER_INSTANCE(TIMx))
 8004f96:	e7e5      	b.n	8004f64 <TIM_Base_SetConfig+0x5c>
    tmpcr1 &= ~TIM_CR1_CKD;
 8004f98:	4a12      	ldr	r2, [pc, #72]	@ (8004fe4 <TIM_Base_SetConfig+0xdc>)
 8004f9a:	4013      	ands	r3, r2
    tmpcr1 |= (uint32_t)Structure->ClockDivision;
 8004f9c:	68ca      	ldr	r2, [r1, #12]
 8004f9e:	4313      	orrs	r3, r2
  MODIFY_REG(tmpcr1, TIM_CR1_ARPE, Structure->AutoReloadPreload);
 8004fa0:	2280      	movs	r2, #128	@ 0x80
 8004fa2:	4393      	bics	r3, r2
 8004fa4:	694a      	ldr	r2, [r1, #20]
 8004fa6:	4313      	orrs	r3, r2
  TIMx->CR1 = tmpcr1;
 8004fa8:	6003      	str	r3, [r0, #0]
  TIMx->ARR = (uint32_t)Structure->Period ;
 8004faa:	688b      	ldr	r3, [r1, #8]
 8004fac:	62c3      	str	r3, [r0, #44]	@ 0x2c
  TIMx->PSC = Structure->Prescaler;
 8004fae:	680b      	ldr	r3, [r1, #0]
 8004fb0:	6283      	str	r3, [r0, #40]	@ 0x28
  if (IS_TIM_REPETITION_COUNTER_INSTANCE(TIMx))
 8004fb2:	e7d9      	b.n	8004f68 <TIM_Base_SetConfig+0x60>
    tmpcr1 &= ~TIM_CR1_CKD;
 8004fb4:	4a0b      	ldr	r2, [pc, #44]	@ (8004fe4 <TIM_Base_SetConfig+0xdc>)
 8004fb6:	4013      	ands	r3, r2
    tmpcr1 |= (uint32_t)Structure->ClockDivision;
 8004fb8:	68ca      	ldr	r2, [r1, #12]
 8004fba:	4313      	orrs	r3, r2
  MODIFY_REG(tmpcr1, TIM_CR1_ARPE, Structure->AutoReloadPreload);
 8004fbc:	2280      	movs	r2, #128	@ 0x80
 8004fbe:	4393      	bics	r3, r2
 8004fc0:	694a      	ldr	r2, [r1, #20]
 8004fc2:	4313      	orrs	r3, r2
  TIMx->CR1 = tmpcr1;
 8004fc4:	6003      	str	r3, [r0, #0]
  TIMx->ARR = (uint32_t)Structure->Period ;
 8004fc6:	688b      	ldr	r3, [r1, #8]
 8004fc8:	62c3      	str	r3, [r0, #44]	@ 0x2c
  TIMx->PSC = Structure->Prescaler;
 8004fca:	680b      	ldr	r3, [r1, #0]
 8004fcc:	6283      	str	r3, [r0, #40]	@ 0x28
  if (IS_TIM_REPETITION_COUNTER_INSTANCE(TIMx))
 8004fce:	e7c9      	b.n	8004f64 <TIM_Base_SetConfig+0x5c>
 8004fd0:	40012c00 	.word	0x40012c00
 8004fd4:	40000400 	.word	0x40000400
 8004fd8:	40002000 	.word	0x40002000
 8004fdc:	40014400 	.word	0x40014400
 8004fe0:	40014800 	.word	0x40014800
 8004fe4:	fffffcff 	.word	0xfffffcff

08004fe8 <HAL_TIM_Base_Init>:
{
 8004fe8:	b570      	push	{r4, r5, r6, lr}
 8004fea:	1e04      	subs	r4, r0, #0
  if (htim == NULL)
 8004fec:	d02a      	beq.n	8005044 <HAL_TIM_Base_Init+0x5c>
  if (htim->State == HAL_TIM_STATE_RESET)
 8004fee:	233d      	movs	r3, #61	@ 0x3d
 8004ff0:	5cc3      	ldrb	r3, [r0, r3]
 8004ff2:	2b00      	cmp	r3, #0
 8004ff4:	d020      	beq.n	8005038 <HAL_TIM_Base_Init+0x50>
  htim->State = HAL_TIM_STATE_BUSY;
 8004ff6:	253d      	movs	r5, #61	@ 0x3d
 8004ff8:	2302      	movs	r3, #2
 8004ffa:	5563      	strb	r3, [r4, r5]
  TIM_Base_SetConfig(htim->Instance, &htim->Init);
 8004ffc:	0021      	movs	r1, r4
 8004ffe:	c901      	ldmia	r1!, {r0}
 8005000:	f7ff ff82 	bl	8004f08 <TIM_Base_SetConfig>
  htim->DMABurstState = HAL_DMA_BURST_STATE_READY;
 8005004:	2301      	movs	r3, #1
 8005006:	2248      	movs	r2, #72	@ 0x48
 8005008:	54a3      	strb	r3, [r4, r2]
  TIM_CHANNEL_STATE_SET_ALL(htim, HAL_TIM_CHANNEL_STATE_READY);
 800500a:	3a0a      	subs	r2, #10
 800500c:	54a3      	strb	r3, [r4, r2]
 800500e:	3201      	adds	r2, #1
 8005010:	54a3      	strb	r3, [r4, r2]
 8005012:	3201      	adds	r2, #1
 8005014:	54a3      	strb	r3, [r4, r2]
 8005016:	3201      	adds	r2, #1
 8005018:	54a3      	strb	r3, [r4, r2]
 800501a:	3201      	adds	r2, #1
 800501c:	54a3      	strb	r3, [r4, r2]
 800501e:	3201      	adds	r2, #1
 8005020:	54a3      	strb	r3, [r4, r2]
  TIM_CHANNEL_N_STATE_SET_ALL(htim, HAL_TIM_CHANNEL_STATE_READY);
 8005022:	3201      	adds	r2, #1
 8005024:	54a3      	strb	r3, [r4, r2]
 8005026:	3201      	adds	r2, #1
 8005028:	54a3      	strb	r3, [r4, r2]
 800502a:	3201      	adds	r2, #1
 800502c:	54a3      	strb	r3, [r4, r2]
 800502e:	3201      	adds	r2, #1
 8005030:	54a3      	strb	r3, [r4, r2]
  htim->State = HAL_TIM_STATE_READY;
 8005032:	5563      	strb	r3, [r4, r5]
  return HAL_OK;
 8005034:	2000      	movs	r0, #0
}
 8005036:	bd70      	pop	{r4, r5, r6, pc}
    htim->Lock = HAL_UNLOCKED;
 8005038:	333c      	adds	r3, #60	@ 0x3c
 800503a:	2200      	movs	r2, #0
 800503c:	54c2      	strb	r2, [r0, r3]
    HAL_TIM_Base_MspInit(htim);
 800503e:	f7fd f9e5 	bl	800240c <HAL_TIM_Base_MspInit>
 8005042:	e7d8      	b.n	8004ff6 <HAL_TIM_Base_Init+0xe>
    return HAL_ERROR;
 8005044:	2001      	movs	r0, #1
 8005046:	e7f6      	b.n	8005036 <HAL_TIM_Base_Init+0x4e>

08005048 <TIM_ETR_SetConfig>:
  *          This parameter must be a value between 0x00 and 0x0F
  * @retval None
  */
void TIM_ETR_SetConfig(TIM_TypeDef *TIMx, uint32_t TIM_ExtTRGPrescaler,
                       uint32_t TIM_ExtTRGPolarity, uint32_t ExtTRGFilter)
{
 8005048:	b530      	push	{r4, r5, lr}
  uint32_t tmpsmcr;

  tmpsmcr = TIMx->SMCR;
 800504a:	6884      	ldr	r4, [r0, #8]

  /* Reset the ETR Bits */
  tmpsmcr &= ~(TIM_SMCR_ETF | TIM_SMCR_ETPS | TIM_SMCR_ECE | TIM_SMCR_ETP);
 800504c:	4d03      	ldr	r5, [pc, #12]	@ (800505c <TIM_ETR_SetConfig+0x14>)
 800504e:	402c      	ands	r4, r5

  /* Set the Prescaler, the Filter value and the Polarity */
  tmpsmcr |= (uint32_t)(TIM_ExtTRGPrescaler | (TIM_ExtTRGPolarity | (ExtTRGFilter << 8U)));
 8005050:	021b      	lsls	r3, r3, #8
 8005052:	430a      	orrs	r2, r1
 8005054:	4313      	orrs	r3, r2
 8005056:	4323      	orrs	r3, r4

  /* Write to TIMx SMCR */
  TIMx->SMCR = tmpsmcr;
 8005058:	6083      	str	r3, [r0, #8]
}
 800505a:	bd30      	pop	{r4, r5, pc}
 800505c:	ffff00ff 	.word	0xffff00ff

08005060 <HAL_TIM_ConfigClockSource>:
{
 8005060:	b570      	push	{r4, r5, r6, lr}
 8005062:	0004      	movs	r4, r0
  __HAL_LOCK(htim);
 8005064:	233c      	movs	r3, #60	@ 0x3c
 8005066:	5cc3      	ldrb	r3, [r0, r3]
 8005068:	2b01      	cmp	r3, #1
 800506a:	d100      	bne.n	800506e <HAL_TIM_ConfigClockSource+0xe>
 800506c:	e0ad      	b.n	80051ca <HAL_TIM_ConfigClockSource+0x16a>
 800506e:	233c      	movs	r3, #60	@ 0x3c
 8005070:	2201      	movs	r2, #1
 8005072:	54c2      	strb	r2, [r0, r3]
  htim->State = HAL_TIM_STATE_BUSY;
 8005074:	3301      	adds	r3, #1
 8005076:	3201      	adds	r2, #1
 8005078:	54c2      	strb	r2, [r0, r3]
  tmpsmcr = htim->Instance->SMCR;
 800507a:	6802      	ldr	r2, [r0, #0]
 800507c:	6893      	ldr	r3, [r2, #8]
  tmpsmcr &= ~(TIM_SMCR_ETF | TIM_SMCR_ETPS | TIM_SMCR_ECE | TIM_SMCR_ETP);
 800507e:	4854      	ldr	r0, [pc, #336]	@ (80051d0 <HAL_TIM_ConfigClockSource+0x170>)
 8005080:	4003      	ands	r3, r0
  htim->Instance->SMCR = tmpsmcr;
 8005082:	6093      	str	r3, [r2, #8]
  switch (sClockSourceConfig->ClockSource)
 8005084:	680b      	ldr	r3, [r1, #0]
 8005086:	2b60      	cmp	r3, #96	@ 0x60
 8005088:	d064      	beq.n	8005154 <HAL_TIM_ConfigClockSource+0xf4>
 800508a:	d838      	bhi.n	80050fe <HAL_TIM_ConfigClockSource+0x9e>
 800508c:	2b40      	cmp	r3, #64	@ 0x40
 800508e:	d100      	bne.n	8005092 <HAL_TIM_ConfigClockSource+0x32>
 8005090:	e07c      	b.n	800518c <HAL_TIM_ConfigClockSource+0x12c>
 8005092:	d816      	bhi.n	80050c2 <HAL_TIM_ConfigClockSource+0x62>
 8005094:	2b20      	cmp	r3, #32
 8005096:	d006      	beq.n	80050a6 <HAL_TIM_ConfigClockSource+0x46>
 8005098:	d80f      	bhi.n	80050ba <HAL_TIM_ConfigClockSource+0x5a>
 800509a:	2210      	movs	r2, #16
 800509c:	0019      	movs	r1, r3
 800509e:	4391      	bics	r1, r2
 80050a0:	2001      	movs	r0, #1
 80050a2:	2900      	cmp	r1, #0
 80050a4:	d141      	bne.n	800512a <HAL_TIM_ConfigClockSource+0xca>
      TIM_ITRx_SetConfig(htim->Instance, sClockSourceConfig->ClockSource);
 80050a6:	6821      	ldr	r1, [r4, #0]
  tmpsmcr = TIMx->SMCR;
 80050a8:	688a      	ldr	r2, [r1, #8]
  tmpsmcr &= ~TIM_SMCR_TS;
 80050aa:	484a      	ldr	r0, [pc, #296]	@ (80051d4 <HAL_TIM_ConfigClockSource+0x174>)
 80050ac:	4002      	ands	r2, r0
  tmpsmcr |= (InputTriggerSource | TIM_SLAVEMODE_EXTERNAL1);
 80050ae:	4313      	orrs	r3, r2
 80050b0:	2207      	movs	r2, #7
 80050b2:	4313      	orrs	r3, r2
  TIMx->SMCR = tmpsmcr;
 80050b4:	608b      	str	r3, [r1, #8]
  HAL_StatusTypeDef status = HAL_OK;
 80050b6:	2000      	movs	r0, #0
}
 80050b8:	e037      	b.n	800512a <HAL_TIM_ConfigClockSource+0xca>
  switch (sClockSourceConfig->ClockSource)
 80050ba:	2001      	movs	r0, #1
 80050bc:	2b30      	cmp	r3, #48	@ 0x30
 80050be:	d0f2      	beq.n	80050a6 <HAL_TIM_ConfigClockSource+0x46>
 80050c0:	e033      	b.n	800512a <HAL_TIM_ConfigClockSource+0xca>
 80050c2:	2001      	movs	r0, #1
 80050c4:	2b50      	cmp	r3, #80	@ 0x50
 80050c6:	d130      	bne.n	800512a <HAL_TIM_ConfigClockSource+0xca>
      TIM_TI1_ConfigInputStage(htim->Instance,
 80050c8:	6823      	ldr	r3, [r4, #0]
                               sClockSourceConfig->ClockPolarity,
 80050ca:	6848      	ldr	r0, [r1, #4]
                               sClockSourceConfig->ClockFilter);
 80050cc:	68ca      	ldr	r2, [r1, #12]
  tmpccer = TIMx->CCER;
 80050ce:	6a19      	ldr	r1, [r3, #32]
  TIMx->CCER &= ~TIM_CCER_CC1E;
 80050d0:	6a1d      	ldr	r5, [r3, #32]
 80050d2:	2601      	movs	r6, #1
 80050d4:	43b5      	bics	r5, r6
 80050d6:	621d      	str	r5, [r3, #32]
  tmpccmr1 = TIMx->CCMR1;
 80050d8:	699d      	ldr	r5, [r3, #24]
  tmpccmr1 &= ~TIM_CCMR1_IC1F;
 80050da:	36ef      	adds	r6, #239	@ 0xef
 80050dc:	43b5      	bics	r5, r6
  tmpccmr1 |= (TIM_ICFilter << 4U);
 80050de:	0112      	lsls	r2, r2, #4
 80050e0:	432a      	orrs	r2, r5
  tmpccer &= ~(TIM_CCER_CC1P | TIM_CCER_CC1NP);
 80050e2:	250a      	movs	r5, #10
 80050e4:	43a9      	bics	r1, r5
  tmpccer |= TIM_ICPolarity;
 80050e6:	4301      	orrs	r1, r0
  TIMx->CCMR1 = tmpccmr1;
 80050e8:	619a      	str	r2, [r3, #24]
  TIMx->CCER = tmpccer;
 80050ea:	6219      	str	r1, [r3, #32]
      TIM_ITRx_SetConfig(htim->Instance, TIM_CLOCKSOURCE_TI1);
 80050ec:	6822      	ldr	r2, [r4, #0]
  tmpsmcr = TIMx->SMCR;
 80050ee:	6893      	ldr	r3, [r2, #8]
  tmpsmcr &= ~TIM_SMCR_TS;
 80050f0:	4938      	ldr	r1, [pc, #224]	@ (80051d4 <HAL_TIM_ConfigClockSource+0x174>)
 80050f2:	400b      	ands	r3, r1
  tmpsmcr |= (InputTriggerSource | TIM_SLAVEMODE_EXTERNAL1);
 80050f4:	2157      	movs	r1, #87	@ 0x57
 80050f6:	430b      	orrs	r3, r1
  TIMx->SMCR = tmpsmcr;
 80050f8:	6093      	str	r3, [r2, #8]
  HAL_StatusTypeDef status = HAL_OK;
 80050fa:	2000      	movs	r0, #0
}
 80050fc:	e015      	b.n	800512a <HAL_TIM_ConfigClockSource+0xca>
  switch (sClockSourceConfig->ClockSource)
 80050fe:	2280      	movs	r2, #128	@ 0x80
 8005100:	0152      	lsls	r2, r2, #5
 8005102:	4293      	cmp	r3, r2
 8005104:	d05d      	beq.n	80051c2 <HAL_TIM_ConfigClockSource+0x162>
 8005106:	2280      	movs	r2, #128	@ 0x80
 8005108:	0192      	lsls	r2, r2, #6
 800510a:	4293      	cmp	r3, r2
 800510c:	d014      	beq.n	8005138 <HAL_TIM_ConfigClockSource+0xd8>
 800510e:	2b70      	cmp	r3, #112	@ 0x70
 8005110:	d159      	bne.n	80051c6 <HAL_TIM_ConfigClockSource+0x166>
      TIM_ETR_SetConfig(htim->Instance,
 8005112:	68cb      	ldr	r3, [r1, #12]
 8005114:	684a      	ldr	r2, [r1, #4]
 8005116:	6889      	ldr	r1, [r1, #8]
 8005118:	6820      	ldr	r0, [r4, #0]
 800511a:	f7ff ff95 	bl	8005048 <TIM_ETR_SetConfig>
      tmpsmcr = htim->Instance->SMCR;
 800511e:	6822      	ldr	r2, [r4, #0]
 8005120:	6893      	ldr	r3, [r2, #8]
      tmpsmcr |= (TIM_SLAVEMODE_EXTERNAL1 | TIM_CLOCKSOURCE_ETRMODE1);
 8005122:	2177      	movs	r1, #119	@ 0x77
 8005124:	430b      	orrs	r3, r1
      htim->Instance->SMCR = tmpsmcr;
 8005126:	6093      	str	r3, [r2, #8]
  HAL_StatusTypeDef status = HAL_OK;
 8005128:	2000      	movs	r0, #0
  htim->State = HAL_TIM_STATE_READY;
 800512a:	233d      	movs	r3, #61	@ 0x3d
 800512c:	2201      	movs	r2, #1
 800512e:	54e2      	strb	r2, [r4, r3]
  __HAL_UNLOCK(htim);
 8005130:	3b01      	subs	r3, #1
 8005132:	2200      	movs	r2, #0
 8005134:	54e2      	strb	r2, [r4, r3]
}
 8005136:	bd70      	pop	{r4, r5, r6, pc}
      TIM_ETR_SetConfig(htim->Instance,
 8005138:	68cb      	ldr	r3, [r1, #12]
 800513a:	684a      	ldr	r2, [r1, #4]
 800513c:	6889      	ldr	r1, [r1, #8]
 800513e:	6820      	ldr	r0, [r4, #0]
 8005140:	f7ff ff82 	bl	8005048 <TIM_ETR_SetConfig>
      htim->Instance->SMCR |= TIM_SMCR_ECE;
 8005144:	6822      	ldr	r2, [r4, #0]
 8005146:	6891      	ldr	r1, [r2, #8]
 8005148:	2380      	movs	r3, #128	@ 0x80
 800514a:	01db      	lsls	r3, r3, #7
 800514c:	430b      	orrs	r3, r1
 800514e:	6093      	str	r3, [r2, #8]
  HAL_StatusTypeDef status = HAL_OK;
 8005150:	2000      	movs	r0, #0
      break;
 8005152:	e7ea      	b.n	800512a <HAL_TIM_ConfigClockSource+0xca>
      TIM_TI2_ConfigInputStage(htim->Instance,
 8005154:	6823      	ldr	r3, [r4, #0]
                               sClockSourceConfig->ClockPolarity,
 8005156:	684a      	ldr	r2, [r1, #4]
                               sClockSourceConfig->ClockFilter);
 8005158:	68c9      	ldr	r1, [r1, #12]
  tmpccer = TIMx->CCER;
 800515a:	6a18      	ldr	r0, [r3, #32]
  TIMx->CCER &= ~TIM_CCER_CC2E;
 800515c:	6a1d      	ldr	r5, [r3, #32]
 800515e:	2610      	movs	r6, #16
 8005160:	43b5      	bics	r5, r6
 8005162:	621d      	str	r5, [r3, #32]
  tmpccmr1 = TIMx->CCMR1;
 8005164:	699d      	ldr	r5, [r3, #24]
  tmpccmr1 &= ~TIM_CCMR1_IC2F;
 8005166:	4e1c      	ldr	r6, [pc, #112]	@ (80051d8 <HAL_TIM_ConfigClockSource+0x178>)
 8005168:	4035      	ands	r5, r6
  tmpccmr1 |= (TIM_ICFilter << 12U);
 800516a:	0309      	lsls	r1, r1, #12
 800516c:	4329      	orrs	r1, r5
  tmpccer &= ~(TIM_CCER_CC2P | TIM_CCER_CC2NP);
 800516e:	25a0      	movs	r5, #160	@ 0xa0
 8005170:	43a8      	bics	r0, r5
  tmpccer |= (TIM_ICPolarity << 4U);
 8005172:	0112      	lsls	r2, r2, #4
 8005174:	4302      	orrs	r2, r0
  TIMx->CCMR1 = tmpccmr1 ;
 8005176:	6199      	str	r1, [r3, #24]
  TIMx->CCER = tmpccer;
 8005178:	621a      	str	r2, [r3, #32]
      TIM_ITRx_SetConfig(htim->Instance, TIM_CLOCKSOURCE_TI2);
 800517a:	6822      	ldr	r2, [r4, #0]
  tmpsmcr = TIMx->SMCR;
 800517c:	6893      	ldr	r3, [r2, #8]
  tmpsmcr &= ~TIM_SMCR_TS;
 800517e:	4915      	ldr	r1, [pc, #84]	@ (80051d4 <HAL_TIM_ConfigClockSource+0x174>)
 8005180:	400b      	ands	r3, r1
  tmpsmcr |= (InputTriggerSource | TIM_SLAVEMODE_EXTERNAL1);
 8005182:	2167      	movs	r1, #103	@ 0x67
 8005184:	430b      	orrs	r3, r1
  TIMx->SMCR = tmpsmcr;
 8005186:	6093      	str	r3, [r2, #8]
  HAL_StatusTypeDef status = HAL_OK;
 8005188:	2000      	movs	r0, #0
}
 800518a:	e7ce      	b.n	800512a <HAL_TIM_ConfigClockSource+0xca>
      TIM_TI1_ConfigInputStage(htim->Instance,
 800518c:	6823      	ldr	r3, [r4, #0]
                               sClockSourceConfig->ClockPolarity,
 800518e:	6848      	ldr	r0, [r1, #4]
                               sClockSourceConfig->ClockFilter);
 8005190:	68ca      	ldr	r2, [r1, #12]
  tmpccer = TIMx->CCER;
 8005192:	6a19      	ldr	r1, [r3, #32]
  TIMx->CCER &= ~TIM_CCER_CC1E;
 8005194:	6a1d      	ldr	r5, [r3, #32]
 8005196:	2601      	movs	r6, #1
 8005198:	43b5      	bics	r5, r6
 800519a:	621d      	str	r5, [r3, #32]
  tmpccmr1 = TIMx->CCMR1;
 800519c:	699d      	ldr	r5, [r3, #24]
  tmpccmr1 &= ~TIM_CCMR1_IC1F;
 800519e:	36ef      	adds	r6, #239	@ 0xef
 80051a0:	43b5      	bics	r5, r6
  tmpccmr1 |= (TIM_ICFilter << 4U);
 80051a2:	0112      	lsls	r2, r2, #4
 80051a4:	432a      	orrs	r2, r5
  tmpccer &= ~(TIM_CCER_CC1P | TIM_CCER_CC1NP);
 80051a6:	250a      	movs	r5, #10
 80051a8:	43a9      	bics	r1, r5
  tmpccer |= TIM_ICPolarity;
 80051aa:	4301      	orrs	r1, r0
  TIMx->CCMR1 = tmpccmr1;
 80051ac:	619a      	str	r2, [r3, #24]
  TIMx->CCER = tmpccer;
 80051ae:	6219      	str	r1, [r3, #32]
      TIM_ITRx_SetConfig(htim->Instance, TIM_CLOCKSOURCE_TI1ED);
 80051b0:	6822      	ldr	r2, [r4, #0]
  tmpsmcr = TIMx->SMCR;
 80051b2:	6893      	ldr	r3, [r2, #8]
  tmpsmcr &= ~TIM_SMCR_TS;
 80051b4:	4907      	ldr	r1, [pc, #28]	@ (80051d4 <HAL_TIM_ConfigClockSource+0x174>)
 80051b6:	400b      	ands	r3, r1
  tmpsmcr |= (InputTriggerSource | TIM_SLAVEMODE_EXTERNAL1);
 80051b8:	2147      	movs	r1, #71	@ 0x47
 80051ba:	430b      	orrs	r3, r1
  TIMx->SMCR = tmpsmcr;
 80051bc:	6093      	str	r3, [r2, #8]
  HAL_StatusTypeDef status = HAL_OK;
 80051be:	2000      	movs	r0, #0
}
 80051c0:	e7b3      	b.n	800512a <HAL_TIM_ConfigClockSource+0xca>
  HAL_StatusTypeDef status = HAL_OK;
 80051c2:	2000      	movs	r0, #0
 80051c4:	e7b1      	b.n	800512a <HAL_TIM_ConfigClockSource+0xca>
  switch (sClockSourceConfig->ClockSource)
 80051c6:	2001      	movs	r0, #1
 80051c8:	e7af      	b.n	800512a <HAL_TIM_ConfigClockSource+0xca>
  __HAL_LOCK(htim);
 80051ca:	2002      	movs	r0, #2
 80051cc:	e7b3      	b.n	8005136 <HAL_TIM_ConfigClockSource+0xd6>
 80051ce:	46c0      	nop			@ (mov r8, r8)
 80051d0:	ffce0088 	.word	0xffce0088
 80051d4:	ffcfff8f 	.word	0xffcfff8f
 80051d8:	ffff0fff 	.word	0xffff0fff

080051dc <HAL_TIMEx_MasterConfigSynchronization>:
  *         mode.
  * @retval HAL status
  */
HAL_StatusTypeDef HAL_TIMEx_MasterConfigSynchronization(TIM_HandleTypeDef *htim,
                                                        const TIM_MasterConfigTypeDef *sMasterConfig)
{
 80051dc:	b530      	push	{r4, r5, lr}
  assert_param(IS_TIM_MASTER_INSTANCE(htim->Instance));
  assert_param(IS_TIM_TRGO_SOURCE(sMasterConfig->MasterOutputTrigger));
  assert_param(IS_TIM_MSM_STATE(sMasterConfig->MasterSlaveMode));

  /* Check input state */
  __HAL_LOCK(htim);
 80051de:	233c      	movs	r3, #60	@ 0x3c
 80051e0:	5cc3      	ldrb	r3, [r0, r3]
 80051e2:	2b01      	cmp	r3, #1
 80051e4:	d029      	beq.n	800523a <HAL_TIMEx_MasterConfigSynchronization+0x5e>
 80051e6:	233c      	movs	r3, #60	@ 0x3c
 80051e8:	2201      	movs	r2, #1
 80051ea:	54c2      	strb	r2, [r0, r3]

  /* Change the handler state */
  htim->State = HAL_TIM_STATE_BUSY;
 80051ec:	3301      	adds	r3, #1
 80051ee:	3201      	adds	r2, #1
 80051f0:	54c2      	strb	r2, [r0, r3]

  /* Get the TIMx CR2 register value */
  tmpcr2 = htim->Instance->CR2;
 80051f2:	6802      	ldr	r2, [r0, #0]
 80051f4:	6853      	ldr	r3, [r2, #4]

  /* Get the TIMx SMCR register value */
  tmpsmcr = htim->Instance->SMCR;
 80051f6:	6894      	ldr	r4, [r2, #8]

  /* If the timer supports ADC synchronization through TRGO2, set the master mode selection 2 */
  if (IS_TIM_TRGO2_INSTANCE(htim->Instance))
 80051f8:	4d11      	ldr	r5, [pc, #68]	@ (8005240 <HAL_TIMEx_MasterConfigSynchronization+0x64>)
 80051fa:	42aa      	cmp	r2, r5
 80051fc:	d018      	beq.n	8005230 <HAL_TIMEx_MasterConfigSynchronization+0x54>
    /* Select the TRGO2 source*/
    tmpcr2 |= sMasterConfig->MasterOutputTrigger2;
  }

  /* Reset the MMS Bits */
  tmpcr2 &= ~TIM_CR2_MMS;
 80051fe:	2570      	movs	r5, #112	@ 0x70
 8005200:	43ab      	bics	r3, r5
  /* Select the TRGO source */
  tmpcr2 |=  sMasterConfig->MasterOutputTrigger;
 8005202:	680d      	ldr	r5, [r1, #0]
 8005204:	432b      	orrs	r3, r5

  /* Update TIMx CR2 */
  htim->Instance->CR2 = tmpcr2;
 8005206:	6053      	str	r3, [r2, #4]

  if (IS_TIM_SLAVE_INSTANCE(htim->Instance))
 8005208:	6803      	ldr	r3, [r0, #0]
 800520a:	4a0d      	ldr	r2, [pc, #52]	@ (8005240 <HAL_TIMEx_MasterConfigSynchronization+0x64>)
 800520c:	4293      	cmp	r3, r2
 800520e:	d002      	beq.n	8005216 <HAL_TIMEx_MasterConfigSynchronization+0x3a>
 8005210:	4a0c      	ldr	r2, [pc, #48]	@ (8005244 <HAL_TIMEx_MasterConfigSynchronization+0x68>)
 8005212:	4293      	cmp	r3, r2
 8005214:	d104      	bne.n	8005220 <HAL_TIMEx_MasterConfigSynchronization+0x44>
  {
    /* Reset the MSM Bit */
    tmpsmcr &= ~TIM_SMCR_MSM;
 8005216:	2280      	movs	r2, #128	@ 0x80
 8005218:	4394      	bics	r4, r2
    /* Set master mode */
    tmpsmcr |= sMasterConfig->MasterSlaveMode;
 800521a:	688a      	ldr	r2, [r1, #8]
 800521c:	4314      	orrs	r4, r2

    /* Update TIMx SMCR */
    htim->Instance->SMCR = tmpsmcr;
 800521e:	609c      	str	r4, [r3, #8]
  }

  /* Change the htim state */
  htim->State = HAL_TIM_STATE_READY;
 8005220:	233d      	movs	r3, #61	@ 0x3d
 8005222:	2201      	movs	r2, #1
 8005224:	54c2      	strb	r2, [r0, r3]

  __HAL_UNLOCK(htim);
 8005226:	3b01      	subs	r3, #1
 8005228:	2200      	movs	r2, #0
 800522a:	54c2      	strb	r2, [r0, r3]

  return HAL_OK;
 800522c:	2000      	movs	r0, #0
}
 800522e:	bd30      	pop	{r4, r5, pc}
    tmpcr2 &= ~TIM_CR2_MMS2;
 8005230:	4d05      	ldr	r5, [pc, #20]	@ (8005248 <HAL_TIMEx_MasterConfigSynchronization+0x6c>)
 8005232:	402b      	ands	r3, r5
    tmpcr2 |= sMasterConfig->MasterOutputTrigger2;
 8005234:	684d      	ldr	r5, [r1, #4]
 8005236:	432b      	orrs	r3, r5
 8005238:	e7e1      	b.n	80051fe <HAL_TIMEx_MasterConfigSynchronization+0x22>
  __HAL_LOCK(htim);
 800523a:	2002      	movs	r0, #2
 800523c:	e7f7      	b.n	800522e <HAL_TIMEx_MasterConfigSynchronization+0x52>
 800523e:	46c0      	nop			@ (mov r8, r8)
 8005240:	40012c00 	.word	0x40012c00
 8005244:	40000400 	.word	0x40000400
 8005248:	ff0fffff 	.word	0xff0fffff

0800524c <HAL_TIMEx_CommutCallback>:
  UNUSED(htim);

  /* NOTE : This function should not be modified, when the callback is needed,
            the HAL_TIMEx_CommutCallback could be implemented in the user file
   */
}
 800524c:	4770      	bx	lr

0800524e <HAL_TIMEx_BreakCallback>:
  UNUSED(htim);

  /* NOTE : This function should not be modified, when the callback is needed,
            the HAL_TIMEx_BreakCallback could be implemented in the user file
   */
}
 800524e:	4770      	bx	lr

08005250 <HAL_TIMEx_Break2Callback>:
  UNUSED(htim);

  /* NOTE : This function Should not be modified, when the callback is needed,
            the HAL_TIMEx_Break2Callback could be implemented in the user file
   */
}
 8005250:	4770      	bx	lr
	...

08005254 <sniprintf>:
 8005254:	b40c      	push	{r2, r3}
 8005256:	b530      	push	{r4, r5, lr}
 8005258:	4b18      	ldr	r3, [pc, #96]	@ (80052bc <sniprintf+0x68>)
 800525a:	000c      	movs	r4, r1
 800525c:	681d      	ldr	r5, [r3, #0]
 800525e:	b09d      	sub	sp, #116	@ 0x74
 8005260:	2900      	cmp	r1, #0
 8005262:	da08      	bge.n	8005276 <sniprintf+0x22>
 8005264:	238b      	movs	r3, #139	@ 0x8b
 8005266:	2001      	movs	r0, #1
 8005268:	602b      	str	r3, [r5, #0]
 800526a:	4240      	negs	r0, r0
 800526c:	b01d      	add	sp, #116	@ 0x74
 800526e:	bc30      	pop	{r4, r5}
 8005270:	bc08      	pop	{r3}
 8005272:	b002      	add	sp, #8
 8005274:	4718      	bx	r3
 8005276:	2382      	movs	r3, #130	@ 0x82
 8005278:	466a      	mov	r2, sp
 800527a:	009b      	lsls	r3, r3, #2
 800527c:	8293      	strh	r3, [r2, #20]
 800527e:	2300      	movs	r3, #0
 8005280:	9002      	str	r0, [sp, #8]
 8005282:	931b      	str	r3, [sp, #108]	@ 0x6c
 8005284:	9006      	str	r0, [sp, #24]
 8005286:	4299      	cmp	r1, r3
 8005288:	d000      	beq.n	800528c <sniprintf+0x38>
 800528a:	1e4b      	subs	r3, r1, #1
 800528c:	9304      	str	r3, [sp, #16]
 800528e:	9307      	str	r3, [sp, #28]
 8005290:	2301      	movs	r3, #1
 8005292:	466a      	mov	r2, sp
 8005294:	425b      	negs	r3, r3
 8005296:	82d3      	strh	r3, [r2, #22]
 8005298:	0028      	movs	r0, r5
 800529a:	ab21      	add	r3, sp, #132	@ 0x84
 800529c:	9a20      	ldr	r2, [sp, #128]	@ 0x80
 800529e:	a902      	add	r1, sp, #8
 80052a0:	9301      	str	r3, [sp, #4]
 80052a2:	f000 f8c3 	bl	800542c <_svfiprintf_r>
 80052a6:	1c43      	adds	r3, r0, #1
 80052a8:	da01      	bge.n	80052ae <sniprintf+0x5a>
 80052aa:	238b      	movs	r3, #139	@ 0x8b
 80052ac:	602b      	str	r3, [r5, #0]
 80052ae:	2c00      	cmp	r4, #0
 80052b0:	d0dc      	beq.n	800526c <sniprintf+0x18>
 80052b2:	2200      	movs	r2, #0
 80052b4:	9b02      	ldr	r3, [sp, #8]
 80052b6:	701a      	strb	r2, [r3, #0]
 80052b8:	e7d8      	b.n	800526c <sniprintf+0x18>
 80052ba:	46c0      	nop			@ (mov r8, r8)
 80052bc:	20000024 	.word	0x20000024

080052c0 <siprintf>:
 80052c0:	b40e      	push	{r1, r2, r3}
 80052c2:	b510      	push	{r4, lr}
 80052c4:	2400      	movs	r4, #0
 80052c6:	490c      	ldr	r1, [pc, #48]	@ (80052f8 <siprintf+0x38>)
 80052c8:	b09d      	sub	sp, #116	@ 0x74
 80052ca:	ab1f      	add	r3, sp, #124	@ 0x7c
 80052cc:	9002      	str	r0, [sp, #8]
 80052ce:	9006      	str	r0, [sp, #24]
 80052d0:	9107      	str	r1, [sp, #28]
 80052d2:	9104      	str	r1, [sp, #16]
 80052d4:	4809      	ldr	r0, [pc, #36]	@ (80052fc <siprintf+0x3c>)
 80052d6:	490a      	ldr	r1, [pc, #40]	@ (8005300 <siprintf+0x40>)
 80052d8:	cb04      	ldmia	r3!, {r2}
 80052da:	9105      	str	r1, [sp, #20]
 80052dc:	6800      	ldr	r0, [r0, #0]
 80052de:	a902      	add	r1, sp, #8
 80052e0:	9301      	str	r3, [sp, #4]
 80052e2:	941b      	str	r4, [sp, #108]	@ 0x6c
 80052e4:	f000 f8a2 	bl	800542c <_svfiprintf_r>
 80052e8:	9b02      	ldr	r3, [sp, #8]
 80052ea:	701c      	strb	r4, [r3, #0]
 80052ec:	b01d      	add	sp, #116	@ 0x74
 80052ee:	bc10      	pop	{r4}
 80052f0:	bc08      	pop	{r3}
 80052f2:	b003      	add	sp, #12
 80052f4:	4718      	bx	r3
 80052f6:	46c0      	nop			@ (mov r8, r8)
 80052f8:	7fffffff 	.word	0x7fffffff
 80052fc:	20000024 	.word	0x20000024
 8005300:	ffff0208 	.word	0xffff0208

08005304 <memset>:
 8005304:	0003      	movs	r3, r0
 8005306:	1882      	adds	r2, r0, r2
 8005308:	4293      	cmp	r3, r2
 800530a:	d100      	bne.n	800530e <memset+0xa>
 800530c:	4770      	bx	lr
 800530e:	7019      	strb	r1, [r3, #0]
 8005310:	3301      	adds	r3, #1
 8005312:	e7f9      	b.n	8005308 <memset+0x4>

08005314 <__errno>:
 8005314:	4b01      	ldr	r3, [pc, #4]	@ (800531c <__errno+0x8>)
 8005316:	6818      	ldr	r0, [r3, #0]
 8005318:	4770      	bx	lr
 800531a:	46c0      	nop			@ (mov r8, r8)
 800531c:	20000024 	.word	0x20000024

08005320 <__libc_init_array>:
 8005320:	b570      	push	{r4, r5, r6, lr}
 8005322:	2600      	movs	r6, #0
 8005324:	4c0c      	ldr	r4, [pc, #48]	@ (8005358 <__libc_init_array+0x38>)
 8005326:	4d0d      	ldr	r5, [pc, #52]	@ (800535c <__libc_init_array+0x3c>)
 8005328:	1b64      	subs	r4, r4, r5
 800532a:	10a4      	asrs	r4, r4, #2
 800532c:	42a6      	cmp	r6, r4
 800532e:	d109      	bne.n	8005344 <__libc_init_array+0x24>
 8005330:	2600      	movs	r6, #0
 8005332:	f000 fc61 	bl	8005bf8 <_init>
 8005336:	4c0a      	ldr	r4, [pc, #40]	@ (8005360 <__libc_init_array+0x40>)
 8005338:	4d0a      	ldr	r5, [pc, #40]	@ (8005364 <__libc_init_array+0x44>)
 800533a:	1b64      	subs	r4, r4, r5
 800533c:	10a4      	asrs	r4, r4, #2
 800533e:	42a6      	cmp	r6, r4
 8005340:	d105      	bne.n	800534e <__libc_init_array+0x2e>
 8005342:	bd70      	pop	{r4, r5, r6, pc}
 8005344:	00b3      	lsls	r3, r6, #2
 8005346:	58eb      	ldr	r3, [r5, r3]
 8005348:	4798      	blx	r3
 800534a:	3601      	adds	r6, #1
 800534c:	e7ee      	b.n	800532c <__libc_init_array+0xc>
 800534e:	00b3      	lsls	r3, r6, #2
 8005350:	58eb      	ldr	r3, [r5, r3]
 8005352:	4798      	blx	r3
 8005354:	3601      	adds	r6, #1
 8005356:	e7f2      	b.n	800533e <__libc_init_array+0x1e>
 8005358:	08007260 	.word	0x08007260
 800535c:	08007260 	.word	0x08007260
 8005360:	08007264 	.word	0x08007264
 8005364:	08007260 	.word	0x08007260

08005368 <__retarget_lock_acquire_recursive>:
 8005368:	4770      	bx	lr

0800536a <__retarget_lock_release_recursive>:
 800536a:	4770      	bx	lr

0800536c <__ssputs_r>:
 800536c:	b5f0      	push	{r4, r5, r6, r7, lr}
 800536e:	688e      	ldr	r6, [r1, #8]
 8005370:	b085      	sub	sp, #20
 8005372:	001f      	movs	r7, r3
 8005374:	000c      	movs	r4, r1
 8005376:	680b      	ldr	r3, [r1, #0]
 8005378:	9002      	str	r0, [sp, #8]
 800537a:	9203      	str	r2, [sp, #12]
 800537c:	42be      	cmp	r6, r7
 800537e:	d830      	bhi.n	80053e2 <__ssputs_r+0x76>
 8005380:	210c      	movs	r1, #12
 8005382:	5e62      	ldrsh	r2, [r4, r1]
 8005384:	2190      	movs	r1, #144	@ 0x90
 8005386:	00c9      	lsls	r1, r1, #3
 8005388:	420a      	tst	r2, r1
 800538a:	d028      	beq.n	80053de <__ssputs_r+0x72>
 800538c:	2003      	movs	r0, #3
 800538e:	6921      	ldr	r1, [r4, #16]
 8005390:	1a5b      	subs	r3, r3, r1
 8005392:	9301      	str	r3, [sp, #4]
 8005394:	6963      	ldr	r3, [r4, #20]
 8005396:	4343      	muls	r3, r0
 8005398:	9801      	ldr	r0, [sp, #4]
 800539a:	0fdd      	lsrs	r5, r3, #31
 800539c:	18ed      	adds	r5, r5, r3
 800539e:	1c7b      	adds	r3, r7, #1
 80053a0:	181b      	adds	r3, r3, r0
 80053a2:	106d      	asrs	r5, r5, #1
 80053a4:	42ab      	cmp	r3, r5
 80053a6:	d900      	bls.n	80053aa <__ssputs_r+0x3e>
 80053a8:	001d      	movs	r5, r3
 80053aa:	0552      	lsls	r2, r2, #21
 80053ac:	d528      	bpl.n	8005400 <__ssputs_r+0x94>
 80053ae:	0029      	movs	r1, r5
 80053b0:	9802      	ldr	r0, [sp, #8]
 80053b2:	f000 f95b 	bl	800566c <_malloc_r>
 80053b6:	1e06      	subs	r6, r0, #0
 80053b8:	d02c      	beq.n	8005414 <__ssputs_r+0xa8>
 80053ba:	9a01      	ldr	r2, [sp, #4]
 80053bc:	6921      	ldr	r1, [r4, #16]
 80053be:	f000 fbc0 	bl	8005b42 <memcpy>
 80053c2:	89a2      	ldrh	r2, [r4, #12]
 80053c4:	4b18      	ldr	r3, [pc, #96]	@ (8005428 <__ssputs_r+0xbc>)
 80053c6:	401a      	ands	r2, r3
 80053c8:	2380      	movs	r3, #128	@ 0x80
 80053ca:	4313      	orrs	r3, r2
 80053cc:	81a3      	strh	r3, [r4, #12]
 80053ce:	9b01      	ldr	r3, [sp, #4]
 80053d0:	6126      	str	r6, [r4, #16]
 80053d2:	18f6      	adds	r6, r6, r3
 80053d4:	6026      	str	r6, [r4, #0]
 80053d6:	003e      	movs	r6, r7
 80053d8:	6165      	str	r5, [r4, #20]
 80053da:	1aed      	subs	r5, r5, r3
 80053dc:	60a5      	str	r5, [r4, #8]
 80053de:	42be      	cmp	r6, r7
 80053e0:	d900      	bls.n	80053e4 <__ssputs_r+0x78>
 80053e2:	003e      	movs	r6, r7
 80053e4:	0032      	movs	r2, r6
 80053e6:	9903      	ldr	r1, [sp, #12]
 80053e8:	6820      	ldr	r0, [r4, #0]
 80053ea:	f000 fb7b 	bl	8005ae4 <memmove>
 80053ee:	2000      	movs	r0, #0
 80053f0:	68a3      	ldr	r3, [r4, #8]
 80053f2:	1b9b      	subs	r3, r3, r6
 80053f4:	60a3      	str	r3, [r4, #8]
 80053f6:	6823      	ldr	r3, [r4, #0]
 80053f8:	199b      	adds	r3, r3, r6
 80053fa:	6023      	str	r3, [r4, #0]
 80053fc:	b005      	add	sp, #20
 80053fe:	bdf0      	pop	{r4, r5, r6, r7, pc}
 8005400:	002a      	movs	r2, r5
 8005402:	9802      	ldr	r0, [sp, #8]
 8005404:	f000 fb3e 	bl	8005a84 <_realloc_r>
 8005408:	1e06      	subs	r6, r0, #0
 800540a:	d1e0      	bne.n	80053ce <__ssputs_r+0x62>
 800540c:	6921      	ldr	r1, [r4, #16]
 800540e:	9802      	ldr	r0, [sp, #8]
 8005410:	f000 fba0 	bl	8005b54 <_free_r>
 8005414:	230c      	movs	r3, #12
 8005416:	2001      	movs	r0, #1
 8005418:	9a02      	ldr	r2, [sp, #8]
 800541a:	4240      	negs	r0, r0
 800541c:	6013      	str	r3, [r2, #0]
 800541e:	89a2      	ldrh	r2, [r4, #12]
 8005420:	3334      	adds	r3, #52	@ 0x34
 8005422:	4313      	orrs	r3, r2
 8005424:	81a3      	strh	r3, [r4, #12]
 8005426:	e7e9      	b.n	80053fc <__ssputs_r+0x90>
 8005428:	fffffb7f 	.word	0xfffffb7f

0800542c <_svfiprintf_r>:
 800542c:	b5f0      	push	{r4, r5, r6, r7, lr}
 800542e:	b0a1      	sub	sp, #132	@ 0x84
 8005430:	9003      	str	r0, [sp, #12]
 8005432:	001d      	movs	r5, r3
 8005434:	898b      	ldrh	r3, [r1, #12]
 8005436:	000f      	movs	r7, r1
 8005438:	0016      	movs	r6, r2
 800543a:	061b      	lsls	r3, r3, #24
 800543c:	d511      	bpl.n	8005462 <_svfiprintf_r+0x36>
 800543e:	690b      	ldr	r3, [r1, #16]
 8005440:	2b00      	cmp	r3, #0
 8005442:	d10e      	bne.n	8005462 <_svfiprintf_r+0x36>
 8005444:	2140      	movs	r1, #64	@ 0x40
 8005446:	f000 f911 	bl	800566c <_malloc_r>
 800544a:	6038      	str	r0, [r7, #0]
 800544c:	6138      	str	r0, [r7, #16]
 800544e:	2800      	cmp	r0, #0
 8005450:	d105      	bne.n	800545e <_svfiprintf_r+0x32>
 8005452:	230c      	movs	r3, #12
 8005454:	9a03      	ldr	r2, [sp, #12]
 8005456:	6013      	str	r3, [r2, #0]
 8005458:	2001      	movs	r0, #1
 800545a:	4240      	negs	r0, r0
 800545c:	e0cf      	b.n	80055fe <_svfiprintf_r+0x1d2>
 800545e:	2340      	movs	r3, #64	@ 0x40
 8005460:	617b      	str	r3, [r7, #20]
 8005462:	2300      	movs	r3, #0
 8005464:	ac08      	add	r4, sp, #32
 8005466:	6163      	str	r3, [r4, #20]
 8005468:	3320      	adds	r3, #32
 800546a:	7663      	strb	r3, [r4, #25]
 800546c:	3310      	adds	r3, #16
 800546e:	76a3      	strb	r3, [r4, #26]
 8005470:	9507      	str	r5, [sp, #28]
 8005472:	0035      	movs	r5, r6
 8005474:	782b      	ldrb	r3, [r5, #0]
 8005476:	2b00      	cmp	r3, #0
 8005478:	d001      	beq.n	800547e <_svfiprintf_r+0x52>
 800547a:	2b25      	cmp	r3, #37	@ 0x25
 800547c:	d148      	bne.n	8005510 <_svfiprintf_r+0xe4>
 800547e:	1bab      	subs	r3, r5, r6
 8005480:	9305      	str	r3, [sp, #20]
 8005482:	42b5      	cmp	r5, r6
 8005484:	d00b      	beq.n	800549e <_svfiprintf_r+0x72>
 8005486:	0032      	movs	r2, r6
 8005488:	0039      	movs	r1, r7
 800548a:	9803      	ldr	r0, [sp, #12]
 800548c:	f7ff ff6e 	bl	800536c <__ssputs_r>
 8005490:	3001      	adds	r0, #1
 8005492:	d100      	bne.n	8005496 <_svfiprintf_r+0x6a>
 8005494:	e0ae      	b.n	80055f4 <_svfiprintf_r+0x1c8>
 8005496:	6963      	ldr	r3, [r4, #20]
 8005498:	9a05      	ldr	r2, [sp, #20]
 800549a:	189b      	adds	r3, r3, r2
 800549c:	6163      	str	r3, [r4, #20]
 800549e:	782b      	ldrb	r3, [r5, #0]
 80054a0:	2b00      	cmp	r3, #0
 80054a2:	d100      	bne.n	80054a6 <_svfiprintf_r+0x7a>
 80054a4:	e0a6      	b.n	80055f4 <_svfiprintf_r+0x1c8>
 80054a6:	2201      	movs	r2, #1
 80054a8:	2300      	movs	r3, #0
 80054aa:	4252      	negs	r2, r2
 80054ac:	6062      	str	r2, [r4, #4]
 80054ae:	a904      	add	r1, sp, #16
 80054b0:	3254      	adds	r2, #84	@ 0x54
 80054b2:	1852      	adds	r2, r2, r1
 80054b4:	1c6e      	adds	r6, r5, #1
 80054b6:	6023      	str	r3, [r4, #0]
 80054b8:	60e3      	str	r3, [r4, #12]
 80054ba:	60a3      	str	r3, [r4, #8]
 80054bc:	7013      	strb	r3, [r2, #0]
 80054be:	65a3      	str	r3, [r4, #88]	@ 0x58
 80054c0:	4b54      	ldr	r3, [pc, #336]	@ (8005614 <_svfiprintf_r+0x1e8>)
 80054c2:	2205      	movs	r2, #5
 80054c4:	0018      	movs	r0, r3
 80054c6:	7831      	ldrb	r1, [r6, #0]
 80054c8:	9305      	str	r3, [sp, #20]
 80054ca:	f000 fb2f 	bl	8005b2c <memchr>
 80054ce:	1c75      	adds	r5, r6, #1
 80054d0:	2800      	cmp	r0, #0
 80054d2:	d11f      	bne.n	8005514 <_svfiprintf_r+0xe8>
 80054d4:	6822      	ldr	r2, [r4, #0]
 80054d6:	06d3      	lsls	r3, r2, #27
 80054d8:	d504      	bpl.n	80054e4 <_svfiprintf_r+0xb8>
 80054da:	2353      	movs	r3, #83	@ 0x53
 80054dc:	a904      	add	r1, sp, #16
 80054de:	185b      	adds	r3, r3, r1
 80054e0:	2120      	movs	r1, #32
 80054e2:	7019      	strb	r1, [r3, #0]
 80054e4:	0713      	lsls	r3, r2, #28
 80054e6:	d504      	bpl.n	80054f2 <_svfiprintf_r+0xc6>
 80054e8:	2353      	movs	r3, #83	@ 0x53
 80054ea:	a904      	add	r1, sp, #16
 80054ec:	185b      	adds	r3, r3, r1
 80054ee:	212b      	movs	r1, #43	@ 0x2b
 80054f0:	7019      	strb	r1, [r3, #0]
 80054f2:	7833      	ldrb	r3, [r6, #0]
 80054f4:	2b2a      	cmp	r3, #42	@ 0x2a
 80054f6:	d016      	beq.n	8005526 <_svfiprintf_r+0xfa>
 80054f8:	0035      	movs	r5, r6
 80054fa:	2100      	movs	r1, #0
 80054fc:	200a      	movs	r0, #10
 80054fe:	68e3      	ldr	r3, [r4, #12]
 8005500:	782a      	ldrb	r2, [r5, #0]
 8005502:	1c6e      	adds	r6, r5, #1
 8005504:	3a30      	subs	r2, #48	@ 0x30
 8005506:	2a09      	cmp	r2, #9
 8005508:	d950      	bls.n	80055ac <_svfiprintf_r+0x180>
 800550a:	2900      	cmp	r1, #0
 800550c:	d111      	bne.n	8005532 <_svfiprintf_r+0x106>
 800550e:	e017      	b.n	8005540 <_svfiprintf_r+0x114>
 8005510:	3501      	adds	r5, #1
 8005512:	e7af      	b.n	8005474 <_svfiprintf_r+0x48>
 8005514:	9b05      	ldr	r3, [sp, #20]
 8005516:	6822      	ldr	r2, [r4, #0]
 8005518:	1ac0      	subs	r0, r0, r3
 800551a:	2301      	movs	r3, #1
 800551c:	4083      	lsls	r3, r0
 800551e:	4313      	orrs	r3, r2
 8005520:	002e      	movs	r6, r5
 8005522:	6023      	str	r3, [r4, #0]
 8005524:	e7cc      	b.n	80054c0 <_svfiprintf_r+0x94>
 8005526:	9b07      	ldr	r3, [sp, #28]
 8005528:	1d19      	adds	r1, r3, #4
 800552a:	681b      	ldr	r3, [r3, #0]
 800552c:	9107      	str	r1, [sp, #28]
 800552e:	2b00      	cmp	r3, #0
 8005530:	db01      	blt.n	8005536 <_svfiprintf_r+0x10a>
 8005532:	930b      	str	r3, [sp, #44]	@ 0x2c
 8005534:	e004      	b.n	8005540 <_svfiprintf_r+0x114>
 8005536:	425b      	negs	r3, r3
 8005538:	60e3      	str	r3, [r4, #12]
 800553a:	2302      	movs	r3, #2
 800553c:	4313      	orrs	r3, r2
 800553e:	6023      	str	r3, [r4, #0]
 8005540:	782b      	ldrb	r3, [r5, #0]
 8005542:	2b2e      	cmp	r3, #46	@ 0x2e
 8005544:	d10c      	bne.n	8005560 <_svfiprintf_r+0x134>
 8005546:	786b      	ldrb	r3, [r5, #1]
 8005548:	2b2a      	cmp	r3, #42	@ 0x2a
 800554a:	d134      	bne.n	80055b6 <_svfiprintf_r+0x18a>
 800554c:	9b07      	ldr	r3, [sp, #28]
 800554e:	3502      	adds	r5, #2
 8005550:	1d1a      	adds	r2, r3, #4
 8005552:	681b      	ldr	r3, [r3, #0]
 8005554:	9207      	str	r2, [sp, #28]
 8005556:	2b00      	cmp	r3, #0
 8005558:	da01      	bge.n	800555e <_svfiprintf_r+0x132>
 800555a:	2301      	movs	r3, #1
 800555c:	425b      	negs	r3, r3
 800555e:	9309      	str	r3, [sp, #36]	@ 0x24
 8005560:	4e2d      	ldr	r6, [pc, #180]	@ (8005618 <_svfiprintf_r+0x1ec>)
 8005562:	2203      	movs	r2, #3
 8005564:	0030      	movs	r0, r6
 8005566:	7829      	ldrb	r1, [r5, #0]
 8005568:	f000 fae0 	bl	8005b2c <memchr>
 800556c:	2800      	cmp	r0, #0
 800556e:	d006      	beq.n	800557e <_svfiprintf_r+0x152>
 8005570:	2340      	movs	r3, #64	@ 0x40
 8005572:	1b80      	subs	r0, r0, r6
 8005574:	4083      	lsls	r3, r0
 8005576:	6822      	ldr	r2, [r4, #0]
 8005578:	3501      	adds	r5, #1
 800557a:	4313      	orrs	r3, r2
 800557c:	6023      	str	r3, [r4, #0]
 800557e:	7829      	ldrb	r1, [r5, #0]
 8005580:	2206      	movs	r2, #6
 8005582:	4826      	ldr	r0, [pc, #152]	@ (800561c <_svfiprintf_r+0x1f0>)
 8005584:	1c6e      	adds	r6, r5, #1
 8005586:	7621      	strb	r1, [r4, #24]
 8005588:	f000 fad0 	bl	8005b2c <memchr>
 800558c:	2800      	cmp	r0, #0
 800558e:	d038      	beq.n	8005602 <_svfiprintf_r+0x1d6>
 8005590:	4b23      	ldr	r3, [pc, #140]	@ (8005620 <_svfiprintf_r+0x1f4>)
 8005592:	2b00      	cmp	r3, #0
 8005594:	d122      	bne.n	80055dc <_svfiprintf_r+0x1b0>
 8005596:	2207      	movs	r2, #7
 8005598:	9b07      	ldr	r3, [sp, #28]
 800559a:	3307      	adds	r3, #7
 800559c:	4393      	bics	r3, r2
 800559e:	3308      	adds	r3, #8
 80055a0:	9307      	str	r3, [sp, #28]
 80055a2:	6963      	ldr	r3, [r4, #20]
 80055a4:	9a04      	ldr	r2, [sp, #16]
 80055a6:	189b      	adds	r3, r3, r2
 80055a8:	6163      	str	r3, [r4, #20]
 80055aa:	e762      	b.n	8005472 <_svfiprintf_r+0x46>
 80055ac:	4343      	muls	r3, r0
 80055ae:	0035      	movs	r5, r6
 80055b0:	2101      	movs	r1, #1
 80055b2:	189b      	adds	r3, r3, r2
 80055b4:	e7a4      	b.n	8005500 <_svfiprintf_r+0xd4>
 80055b6:	2300      	movs	r3, #0
 80055b8:	200a      	movs	r0, #10
 80055ba:	0019      	movs	r1, r3
 80055bc:	3501      	adds	r5, #1
 80055be:	6063      	str	r3, [r4, #4]
 80055c0:	782a      	ldrb	r2, [r5, #0]
 80055c2:	1c6e      	adds	r6, r5, #1
 80055c4:	3a30      	subs	r2, #48	@ 0x30
 80055c6:	2a09      	cmp	r2, #9
 80055c8:	d903      	bls.n	80055d2 <_svfiprintf_r+0x1a6>
 80055ca:	2b00      	cmp	r3, #0
 80055cc:	d0c8      	beq.n	8005560 <_svfiprintf_r+0x134>
 80055ce:	9109      	str	r1, [sp, #36]	@ 0x24
 80055d0:	e7c6      	b.n	8005560 <_svfiprintf_r+0x134>
 80055d2:	4341      	muls	r1, r0
 80055d4:	0035      	movs	r5, r6
 80055d6:	2301      	movs	r3, #1
 80055d8:	1889      	adds	r1, r1, r2
 80055da:	e7f1      	b.n	80055c0 <_svfiprintf_r+0x194>
 80055dc:	aa07      	add	r2, sp, #28
 80055de:	9200      	str	r2, [sp, #0]
 80055e0:	0021      	movs	r1, r4
 80055e2:	003a      	movs	r2, r7
 80055e4:	4b0f      	ldr	r3, [pc, #60]	@ (8005624 <_svfiprintf_r+0x1f8>)
 80055e6:	9803      	ldr	r0, [sp, #12]
 80055e8:	e000      	b.n	80055ec <_svfiprintf_r+0x1c0>
 80055ea:	bf00      	nop
 80055ec:	9004      	str	r0, [sp, #16]
 80055ee:	9b04      	ldr	r3, [sp, #16]
 80055f0:	3301      	adds	r3, #1
 80055f2:	d1d6      	bne.n	80055a2 <_svfiprintf_r+0x176>
 80055f4:	89bb      	ldrh	r3, [r7, #12]
 80055f6:	980d      	ldr	r0, [sp, #52]	@ 0x34
 80055f8:	065b      	lsls	r3, r3, #25
 80055fa:	d500      	bpl.n	80055fe <_svfiprintf_r+0x1d2>
 80055fc:	e72c      	b.n	8005458 <_svfiprintf_r+0x2c>
 80055fe:	b021      	add	sp, #132	@ 0x84
 8005600:	bdf0      	pop	{r4, r5, r6, r7, pc}
 8005602:	aa07      	add	r2, sp, #28
 8005604:	9200      	str	r2, [sp, #0]
 8005606:	0021      	movs	r1, r4
 8005608:	003a      	movs	r2, r7
 800560a:	4b06      	ldr	r3, [pc, #24]	@ (8005624 <_svfiprintf_r+0x1f8>)
 800560c:	9803      	ldr	r0, [sp, #12]
 800560e:	f000 f91d 	bl	800584c <_printf_i>
 8005612:	e7eb      	b.n	80055ec <_svfiprintf_r+0x1c0>
 8005614:	0800722c 	.word	0x0800722c
 8005618:	08007232 	.word	0x08007232
 800561c:	08007236 	.word	0x08007236
 8005620:	00000000 	.word	0x00000000
 8005624:	0800536d 	.word	0x0800536d

08005628 <sbrk_aligned>:
 8005628:	b570      	push	{r4, r5, r6, lr}
 800562a:	4e0f      	ldr	r6, [pc, #60]	@ (8005668 <sbrk_aligned+0x40>)
 800562c:	000d      	movs	r5, r1
 800562e:	6831      	ldr	r1, [r6, #0]
 8005630:	0004      	movs	r4, r0
 8005632:	2900      	cmp	r1, #0
 8005634:	d102      	bne.n	800563c <sbrk_aligned+0x14>
 8005636:	f000 fa67 	bl	8005b08 <_sbrk_r>
 800563a:	6030      	str	r0, [r6, #0]
 800563c:	0029      	movs	r1, r5
 800563e:	0020      	movs	r0, r4
 8005640:	f000 fa62 	bl	8005b08 <_sbrk_r>
 8005644:	1c43      	adds	r3, r0, #1
 8005646:	d103      	bne.n	8005650 <sbrk_aligned+0x28>
 8005648:	2501      	movs	r5, #1
 800564a:	426d      	negs	r5, r5
 800564c:	0028      	movs	r0, r5
 800564e:	bd70      	pop	{r4, r5, r6, pc}
 8005650:	2303      	movs	r3, #3
 8005652:	1cc5      	adds	r5, r0, #3
 8005654:	439d      	bics	r5, r3
 8005656:	42a8      	cmp	r0, r5
 8005658:	d0f8      	beq.n	800564c <sbrk_aligned+0x24>
 800565a:	1a29      	subs	r1, r5, r0
 800565c:	0020      	movs	r0, r4
 800565e:	f000 fa53 	bl	8005b08 <_sbrk_r>
 8005662:	3001      	adds	r0, #1
 8005664:	d1f2      	bne.n	800564c <sbrk_aligned+0x24>
 8005666:	e7ef      	b.n	8005648 <sbrk_aligned+0x20>
 8005668:	2000084c 	.word	0x2000084c

0800566c <_malloc_r>:
 800566c:	b5f7      	push	{r0, r1, r2, r4, r5, r6, r7, lr}
 800566e:	2203      	movs	r2, #3
 8005670:	1ccb      	adds	r3, r1, #3
 8005672:	4393      	bics	r3, r2
 8005674:	3308      	adds	r3, #8
 8005676:	0005      	movs	r5, r0
 8005678:	001f      	movs	r7, r3
 800567a:	2b0c      	cmp	r3, #12
 800567c:	d234      	bcs.n	80056e8 <_malloc_r+0x7c>
 800567e:	270c      	movs	r7, #12
 8005680:	42b9      	cmp	r1, r7
 8005682:	d833      	bhi.n	80056ec <_malloc_r+0x80>
 8005684:	0028      	movs	r0, r5
 8005686:	f000 f9ed 	bl	8005a64 <__malloc_lock>
 800568a:	4e37      	ldr	r6, [pc, #220]	@ (8005768 <_malloc_r+0xfc>)
 800568c:	6833      	ldr	r3, [r6, #0]
 800568e:	001c      	movs	r4, r3
 8005690:	2c00      	cmp	r4, #0
 8005692:	d12f      	bne.n	80056f4 <_malloc_r+0x88>
 8005694:	0039      	movs	r1, r7
 8005696:	0028      	movs	r0, r5
 8005698:	f7ff ffc6 	bl	8005628 <sbrk_aligned>
 800569c:	0004      	movs	r4, r0
 800569e:	1c43      	adds	r3, r0, #1
 80056a0:	d15f      	bne.n	8005762 <_malloc_r+0xf6>
 80056a2:	6834      	ldr	r4, [r6, #0]
 80056a4:	9400      	str	r4, [sp, #0]
 80056a6:	9b00      	ldr	r3, [sp, #0]
 80056a8:	2b00      	cmp	r3, #0
 80056aa:	d14a      	bne.n	8005742 <_malloc_r+0xd6>
 80056ac:	2c00      	cmp	r4, #0
 80056ae:	d052      	beq.n	8005756 <_malloc_r+0xea>
 80056b0:	6823      	ldr	r3, [r4, #0]
 80056b2:	0028      	movs	r0, r5
 80056b4:	18e3      	adds	r3, r4, r3
 80056b6:	9900      	ldr	r1, [sp, #0]
 80056b8:	9301      	str	r3, [sp, #4]
 80056ba:	f000 fa25 	bl	8005b08 <_sbrk_r>
 80056be:	9b01      	ldr	r3, [sp, #4]
 80056c0:	4283      	cmp	r3, r0
 80056c2:	d148      	bne.n	8005756 <_malloc_r+0xea>
 80056c4:	6823      	ldr	r3, [r4, #0]
 80056c6:	0028      	movs	r0, r5
 80056c8:	1aff      	subs	r7, r7, r3
 80056ca:	0039      	movs	r1, r7
 80056cc:	f7ff ffac 	bl	8005628 <sbrk_aligned>
 80056d0:	3001      	adds	r0, #1
 80056d2:	d040      	beq.n	8005756 <_malloc_r+0xea>
 80056d4:	6823      	ldr	r3, [r4, #0]
 80056d6:	19db      	adds	r3, r3, r7
 80056d8:	6023      	str	r3, [r4, #0]
 80056da:	6833      	ldr	r3, [r6, #0]
 80056dc:	685a      	ldr	r2, [r3, #4]
 80056de:	2a00      	cmp	r2, #0
 80056e0:	d133      	bne.n	800574a <_malloc_r+0xde>
 80056e2:	9b00      	ldr	r3, [sp, #0]
 80056e4:	6033      	str	r3, [r6, #0]
 80056e6:	e019      	b.n	800571c <_malloc_r+0xb0>
 80056e8:	2b00      	cmp	r3, #0
 80056ea:	dac9      	bge.n	8005680 <_malloc_r+0x14>
 80056ec:	230c      	movs	r3, #12
 80056ee:	602b      	str	r3, [r5, #0]
 80056f0:	2000      	movs	r0, #0
 80056f2:	bdfe      	pop	{r1, r2, r3, r4, r5, r6, r7, pc}
 80056f4:	6821      	ldr	r1, [r4, #0]
 80056f6:	1bc9      	subs	r1, r1, r7
 80056f8:	d420      	bmi.n	800573c <_malloc_r+0xd0>
 80056fa:	290b      	cmp	r1, #11
 80056fc:	d90a      	bls.n	8005714 <_malloc_r+0xa8>
 80056fe:	19e2      	adds	r2, r4, r7
 8005700:	6027      	str	r7, [r4, #0]
 8005702:	42a3      	cmp	r3, r4
 8005704:	d104      	bne.n	8005710 <_malloc_r+0xa4>
 8005706:	6032      	str	r2, [r6, #0]
 8005708:	6863      	ldr	r3, [r4, #4]
 800570a:	6011      	str	r1, [r2, #0]
 800570c:	6053      	str	r3, [r2, #4]
 800570e:	e005      	b.n	800571c <_malloc_r+0xb0>
 8005710:	605a      	str	r2, [r3, #4]
 8005712:	e7f9      	b.n	8005708 <_malloc_r+0x9c>
 8005714:	6862      	ldr	r2, [r4, #4]
 8005716:	42a3      	cmp	r3, r4
 8005718:	d10e      	bne.n	8005738 <_malloc_r+0xcc>
 800571a:	6032      	str	r2, [r6, #0]
 800571c:	0028      	movs	r0, r5
 800571e:	f000 f9a9 	bl	8005a74 <__malloc_unlock>
 8005722:	0020      	movs	r0, r4
 8005724:	2207      	movs	r2, #7
 8005726:	300b      	adds	r0, #11
 8005728:	1d23      	adds	r3, r4, #4
 800572a:	4390      	bics	r0, r2
 800572c:	1ac2      	subs	r2, r0, r3
 800572e:	4298      	cmp	r0, r3
 8005730:	d0df      	beq.n	80056f2 <_malloc_r+0x86>
 8005732:	1a1b      	subs	r3, r3, r0
 8005734:	50a3      	str	r3, [r4, r2]
 8005736:	e7dc      	b.n	80056f2 <_malloc_r+0x86>
 8005738:	605a      	str	r2, [r3, #4]
 800573a:	e7ef      	b.n	800571c <_malloc_r+0xb0>
 800573c:	0023      	movs	r3, r4
 800573e:	6864      	ldr	r4, [r4, #4]
 8005740:	e7a6      	b.n	8005690 <_malloc_r+0x24>
 8005742:	9c00      	ldr	r4, [sp, #0]
 8005744:	6863      	ldr	r3, [r4, #4]
 8005746:	9300      	str	r3, [sp, #0]
 8005748:	e7ad      	b.n	80056a6 <_malloc_r+0x3a>
 800574a:	001a      	movs	r2, r3
 800574c:	685b      	ldr	r3, [r3, #4]
 800574e:	42a3      	cmp	r3, r4
 8005750:	d1fb      	bne.n	800574a <_malloc_r+0xde>
 8005752:	2300      	movs	r3, #0
 8005754:	e7da      	b.n	800570c <_malloc_r+0xa0>
 8005756:	230c      	movs	r3, #12
 8005758:	0028      	movs	r0, r5
 800575a:	602b      	str	r3, [r5, #0]
 800575c:	f000 f98a 	bl	8005a74 <__malloc_unlock>
 8005760:	e7c6      	b.n	80056f0 <_malloc_r+0x84>
 8005762:	6007      	str	r7, [r0, #0]
 8005764:	e7da      	b.n	800571c <_malloc_r+0xb0>
 8005766:	46c0      	nop			@ (mov r8, r8)
 8005768:	20000850 	.word	0x20000850

0800576c <_printf_common>:
 800576c:	b5f7      	push	{r0, r1, r2, r4, r5, r6, r7, lr}
 800576e:	0016      	movs	r6, r2
 8005770:	9301      	str	r3, [sp, #4]
 8005772:	688a      	ldr	r2, [r1, #8]
 8005774:	690b      	ldr	r3, [r1, #16]
 8005776:	000c      	movs	r4, r1
 8005778:	9000      	str	r0, [sp, #0]
 800577a:	4293      	cmp	r3, r2
 800577c:	da00      	bge.n	8005780 <_printf_common+0x14>
 800577e:	0013      	movs	r3, r2
 8005780:	0022      	movs	r2, r4
 8005782:	6033      	str	r3, [r6, #0]
 8005784:	3243      	adds	r2, #67	@ 0x43
 8005786:	7812      	ldrb	r2, [r2, #0]
 8005788:	2a00      	cmp	r2, #0
 800578a:	d001      	beq.n	8005790 <_printf_common+0x24>
 800578c:	3301      	adds	r3, #1
 800578e:	6033      	str	r3, [r6, #0]
 8005790:	6823      	ldr	r3, [r4, #0]
 8005792:	069b      	lsls	r3, r3, #26
 8005794:	d502      	bpl.n	800579c <_printf_common+0x30>
 8005796:	6833      	ldr	r3, [r6, #0]
 8005798:	3302      	adds	r3, #2
 800579a:	6033      	str	r3, [r6, #0]
 800579c:	6822      	ldr	r2, [r4, #0]
 800579e:	2306      	movs	r3, #6
 80057a0:	0015      	movs	r5, r2
 80057a2:	401d      	ands	r5, r3
 80057a4:	421a      	tst	r2, r3
 80057a6:	d027      	beq.n	80057f8 <_printf_common+0x8c>
 80057a8:	0023      	movs	r3, r4
 80057aa:	3343      	adds	r3, #67	@ 0x43
 80057ac:	781b      	ldrb	r3, [r3, #0]
 80057ae:	1e5a      	subs	r2, r3, #1
 80057b0:	4193      	sbcs	r3, r2
 80057b2:	6822      	ldr	r2, [r4, #0]
 80057b4:	0692      	lsls	r2, r2, #26
 80057b6:	d430      	bmi.n	800581a <_printf_common+0xae>
 80057b8:	0022      	movs	r2, r4
 80057ba:	9901      	ldr	r1, [sp, #4]
 80057bc:	9800      	ldr	r0, [sp, #0]
 80057be:	9d08      	ldr	r5, [sp, #32]
 80057c0:	3243      	adds	r2, #67	@ 0x43
 80057c2:	47a8      	blx	r5
 80057c4:	3001      	adds	r0, #1
 80057c6:	d025      	beq.n	8005814 <_printf_common+0xa8>
 80057c8:	2206      	movs	r2, #6
 80057ca:	6823      	ldr	r3, [r4, #0]
 80057cc:	2500      	movs	r5, #0
 80057ce:	4013      	ands	r3, r2
 80057d0:	2b04      	cmp	r3, #4
 80057d2:	d105      	bne.n	80057e0 <_printf_common+0x74>
 80057d4:	6833      	ldr	r3, [r6, #0]
 80057d6:	68e5      	ldr	r5, [r4, #12]
 80057d8:	1aed      	subs	r5, r5, r3
 80057da:	43eb      	mvns	r3, r5
 80057dc:	17db      	asrs	r3, r3, #31
 80057de:	401d      	ands	r5, r3
 80057e0:	68a3      	ldr	r3, [r4, #8]
 80057e2:	6922      	ldr	r2, [r4, #16]
 80057e4:	4293      	cmp	r3, r2
 80057e6:	dd01      	ble.n	80057ec <_printf_common+0x80>
 80057e8:	1a9b      	subs	r3, r3, r2
 80057ea:	18ed      	adds	r5, r5, r3
 80057ec:	2600      	movs	r6, #0
 80057ee:	42b5      	cmp	r5, r6
 80057f0:	d120      	bne.n	8005834 <_printf_common+0xc8>
 80057f2:	2000      	movs	r0, #0
 80057f4:	e010      	b.n	8005818 <_printf_common+0xac>
 80057f6:	3501      	adds	r5, #1
 80057f8:	68e3      	ldr	r3, [r4, #12]
 80057fa:	6832      	ldr	r2, [r6, #0]
 80057fc:	1a9b      	subs	r3, r3, r2
 80057fe:	42ab      	cmp	r3, r5
 8005800:	ddd2      	ble.n	80057a8 <_printf_common+0x3c>
 8005802:	0022      	movs	r2, r4
 8005804:	2301      	movs	r3, #1
 8005806:	9901      	ldr	r1, [sp, #4]
 8005808:	9800      	ldr	r0, [sp, #0]
 800580a:	9f08      	ldr	r7, [sp, #32]
 800580c:	3219      	adds	r2, #25
 800580e:	47b8      	blx	r7
 8005810:	3001      	adds	r0, #1
 8005812:	d1f0      	bne.n	80057f6 <_printf_common+0x8a>
 8005814:	2001      	movs	r0, #1
 8005816:	4240      	negs	r0, r0
 8005818:	bdfe      	pop	{r1, r2, r3, r4, r5, r6, r7, pc}
 800581a:	2030      	movs	r0, #48	@ 0x30
 800581c:	18e1      	adds	r1, r4, r3
 800581e:	3143      	adds	r1, #67	@ 0x43
 8005820:	7008      	strb	r0, [r1, #0]
 8005822:	0021      	movs	r1, r4
 8005824:	1c5a      	adds	r2, r3, #1
 8005826:	3145      	adds	r1, #69	@ 0x45
 8005828:	7809      	ldrb	r1, [r1, #0]
 800582a:	18a2      	adds	r2, r4, r2
 800582c:	3243      	adds	r2, #67	@ 0x43
 800582e:	3302      	adds	r3, #2
 8005830:	7011      	strb	r1, [r2, #0]
 8005832:	e7c1      	b.n	80057b8 <_printf_common+0x4c>
 8005834:	0022      	movs	r2, r4
 8005836:	2301      	movs	r3, #1
 8005838:	9901      	ldr	r1, [sp, #4]
 800583a:	9800      	ldr	r0, [sp, #0]
 800583c:	9f08      	ldr	r7, [sp, #32]
 800583e:	321a      	adds	r2, #26
 8005840:	47b8      	blx	r7
 8005842:	3001      	adds	r0, #1
 8005844:	d0e6      	beq.n	8005814 <_printf_common+0xa8>
 8005846:	3601      	adds	r6, #1
 8005848:	e7d1      	b.n	80057ee <_printf_common+0x82>
	...

0800584c <_printf_i>:
 800584c:	b5f0      	push	{r4, r5, r6, r7, lr}
 800584e:	b08b      	sub	sp, #44	@ 0x2c
 8005850:	9206      	str	r2, [sp, #24]
 8005852:	000a      	movs	r2, r1
 8005854:	3243      	adds	r2, #67	@ 0x43
 8005856:	9307      	str	r3, [sp, #28]
 8005858:	9005      	str	r0, [sp, #20]
 800585a:	9203      	str	r2, [sp, #12]
 800585c:	7e0a      	ldrb	r2, [r1, #24]
 800585e:	000c      	movs	r4, r1
 8005860:	9b10      	ldr	r3, [sp, #64]	@ 0x40
 8005862:	2a78      	cmp	r2, #120	@ 0x78
 8005864:	d809      	bhi.n	800587a <_printf_i+0x2e>
 8005866:	2a62      	cmp	r2, #98	@ 0x62
 8005868:	d80b      	bhi.n	8005882 <_printf_i+0x36>
 800586a:	2a00      	cmp	r2, #0
 800586c:	d100      	bne.n	8005870 <_printf_i+0x24>
 800586e:	e0ba      	b.n	80059e6 <_printf_i+0x19a>
 8005870:	497a      	ldr	r1, [pc, #488]	@ (8005a5c <_printf_i+0x210>)
 8005872:	9104      	str	r1, [sp, #16]
 8005874:	2a58      	cmp	r2, #88	@ 0x58
 8005876:	d100      	bne.n	800587a <_printf_i+0x2e>
 8005878:	e08e      	b.n	8005998 <_printf_i+0x14c>
 800587a:	0025      	movs	r5, r4
 800587c:	3542      	adds	r5, #66	@ 0x42
 800587e:	702a      	strb	r2, [r5, #0]
 8005880:	e022      	b.n	80058c8 <_printf_i+0x7c>
 8005882:	0010      	movs	r0, r2
 8005884:	3863      	subs	r0, #99	@ 0x63
 8005886:	2815      	cmp	r0, #21
 8005888:	d8f7      	bhi.n	800587a <_printf_i+0x2e>
 800588a:	f7fa fc39 	bl	8000100 <__gnu_thumb1_case_shi>
 800588e:	0016      	.short	0x0016
 8005890:	fff6001f 	.word	0xfff6001f
 8005894:	fff6fff6 	.word	0xfff6fff6
 8005898:	001ffff6 	.word	0x001ffff6
 800589c:	fff6fff6 	.word	0xfff6fff6
 80058a0:	fff6fff6 	.word	0xfff6fff6
 80058a4:	0036009f 	.word	0x0036009f
 80058a8:	fff6007e 	.word	0xfff6007e
 80058ac:	00b0fff6 	.word	0x00b0fff6
 80058b0:	0036fff6 	.word	0x0036fff6
 80058b4:	fff6fff6 	.word	0xfff6fff6
 80058b8:	0082      	.short	0x0082
 80058ba:	0025      	movs	r5, r4
 80058bc:	681a      	ldr	r2, [r3, #0]
 80058be:	3542      	adds	r5, #66	@ 0x42
 80058c0:	1d11      	adds	r1, r2, #4
 80058c2:	6019      	str	r1, [r3, #0]
 80058c4:	6813      	ldr	r3, [r2, #0]
 80058c6:	702b      	strb	r3, [r5, #0]
 80058c8:	2301      	movs	r3, #1
 80058ca:	e09e      	b.n	8005a0a <_printf_i+0x1be>
 80058cc:	6818      	ldr	r0, [r3, #0]
 80058ce:	6809      	ldr	r1, [r1, #0]
 80058d0:	1d02      	adds	r2, r0, #4
 80058d2:	060d      	lsls	r5, r1, #24
 80058d4:	d50b      	bpl.n	80058ee <_printf_i+0xa2>
 80058d6:	6806      	ldr	r6, [r0, #0]
 80058d8:	601a      	str	r2, [r3, #0]
 80058da:	2e00      	cmp	r6, #0
 80058dc:	da03      	bge.n	80058e6 <_printf_i+0x9a>
 80058de:	232d      	movs	r3, #45	@ 0x2d
 80058e0:	9a03      	ldr	r2, [sp, #12]
 80058e2:	4276      	negs	r6, r6
 80058e4:	7013      	strb	r3, [r2, #0]
 80058e6:	4b5d      	ldr	r3, [pc, #372]	@ (8005a5c <_printf_i+0x210>)
 80058e8:	270a      	movs	r7, #10
 80058ea:	9304      	str	r3, [sp, #16]
 80058ec:	e018      	b.n	8005920 <_printf_i+0xd4>
 80058ee:	6806      	ldr	r6, [r0, #0]
 80058f0:	601a      	str	r2, [r3, #0]
 80058f2:	0649      	lsls	r1, r1, #25
 80058f4:	d5f1      	bpl.n	80058da <_printf_i+0x8e>
 80058f6:	b236      	sxth	r6, r6
 80058f8:	e7ef      	b.n	80058da <_printf_i+0x8e>
 80058fa:	6808      	ldr	r0, [r1, #0]
 80058fc:	6819      	ldr	r1, [r3, #0]
 80058fe:	c940      	ldmia	r1!, {r6}
 8005900:	0605      	lsls	r5, r0, #24
 8005902:	d402      	bmi.n	800590a <_printf_i+0xbe>
 8005904:	0640      	lsls	r0, r0, #25
 8005906:	d500      	bpl.n	800590a <_printf_i+0xbe>
 8005908:	b2b6      	uxth	r6, r6
 800590a:	6019      	str	r1, [r3, #0]
 800590c:	4b53      	ldr	r3, [pc, #332]	@ (8005a5c <_printf_i+0x210>)
 800590e:	270a      	movs	r7, #10
 8005910:	9304      	str	r3, [sp, #16]
 8005912:	2a6f      	cmp	r2, #111	@ 0x6f
 8005914:	d100      	bne.n	8005918 <_printf_i+0xcc>
 8005916:	3f02      	subs	r7, #2
 8005918:	0023      	movs	r3, r4
 800591a:	2200      	movs	r2, #0
 800591c:	3343      	adds	r3, #67	@ 0x43
 800591e:	701a      	strb	r2, [r3, #0]
 8005920:	6863      	ldr	r3, [r4, #4]
 8005922:	60a3      	str	r3, [r4, #8]
 8005924:	2b00      	cmp	r3, #0
 8005926:	db06      	blt.n	8005936 <_printf_i+0xea>
 8005928:	2104      	movs	r1, #4
 800592a:	6822      	ldr	r2, [r4, #0]
 800592c:	9d03      	ldr	r5, [sp, #12]
 800592e:	438a      	bics	r2, r1
 8005930:	6022      	str	r2, [r4, #0]
 8005932:	4333      	orrs	r3, r6
 8005934:	d00c      	beq.n	8005950 <_printf_i+0x104>
 8005936:	9d03      	ldr	r5, [sp, #12]
 8005938:	0030      	movs	r0, r6
 800593a:	0039      	movs	r1, r7
 800593c:	f7fa fc70 	bl	8000220 <__aeabi_uidivmod>
 8005940:	9b04      	ldr	r3, [sp, #16]
 8005942:	3d01      	subs	r5, #1
 8005944:	5c5b      	ldrb	r3, [r3, r1]
 8005946:	702b      	strb	r3, [r5, #0]
 8005948:	0033      	movs	r3, r6
 800594a:	0006      	movs	r6, r0
 800594c:	429f      	cmp	r7, r3
 800594e:	d9f3      	bls.n	8005938 <_printf_i+0xec>
 8005950:	2f08      	cmp	r7, #8
 8005952:	d109      	bne.n	8005968 <_printf_i+0x11c>
 8005954:	6823      	ldr	r3, [r4, #0]
 8005956:	07db      	lsls	r3, r3, #31
 8005958:	d506      	bpl.n	8005968 <_printf_i+0x11c>
 800595a:	6862      	ldr	r2, [r4, #4]
 800595c:	6923      	ldr	r3, [r4, #16]
 800595e:	429a      	cmp	r2, r3
 8005960:	dc02      	bgt.n	8005968 <_printf_i+0x11c>
 8005962:	2330      	movs	r3, #48	@ 0x30
 8005964:	3d01      	subs	r5, #1
 8005966:	702b      	strb	r3, [r5, #0]
 8005968:	9b03      	ldr	r3, [sp, #12]
 800596a:	1b5b      	subs	r3, r3, r5
 800596c:	6123      	str	r3, [r4, #16]
 800596e:	9b07      	ldr	r3, [sp, #28]
 8005970:	0021      	movs	r1, r4
 8005972:	9300      	str	r3, [sp, #0]
 8005974:	9805      	ldr	r0, [sp, #20]
 8005976:	9b06      	ldr	r3, [sp, #24]
 8005978:	aa09      	add	r2, sp, #36	@ 0x24
 800597a:	f7ff fef7 	bl	800576c <_printf_common>
 800597e:	3001      	adds	r0, #1
 8005980:	d148      	bne.n	8005a14 <_printf_i+0x1c8>
 8005982:	2001      	movs	r0, #1
 8005984:	4240      	negs	r0, r0
 8005986:	b00b      	add	sp, #44	@ 0x2c
 8005988:	bdf0      	pop	{r4, r5, r6, r7, pc}
 800598a:	2220      	movs	r2, #32
 800598c:	6809      	ldr	r1, [r1, #0]
 800598e:	430a      	orrs	r2, r1
 8005990:	6022      	str	r2, [r4, #0]
 8005992:	2278      	movs	r2, #120	@ 0x78
 8005994:	4932      	ldr	r1, [pc, #200]	@ (8005a60 <_printf_i+0x214>)
 8005996:	9104      	str	r1, [sp, #16]
 8005998:	0021      	movs	r1, r4
 800599a:	3145      	adds	r1, #69	@ 0x45
 800599c:	700a      	strb	r2, [r1, #0]
 800599e:	6819      	ldr	r1, [r3, #0]
 80059a0:	6822      	ldr	r2, [r4, #0]
 80059a2:	c940      	ldmia	r1!, {r6}
 80059a4:	0610      	lsls	r0, r2, #24
 80059a6:	d402      	bmi.n	80059ae <_printf_i+0x162>
 80059a8:	0650      	lsls	r0, r2, #25
 80059aa:	d500      	bpl.n	80059ae <_printf_i+0x162>
 80059ac:	b2b6      	uxth	r6, r6
 80059ae:	6019      	str	r1, [r3, #0]
 80059b0:	07d3      	lsls	r3, r2, #31
 80059b2:	d502      	bpl.n	80059ba <_printf_i+0x16e>
 80059b4:	2320      	movs	r3, #32
 80059b6:	4313      	orrs	r3, r2
 80059b8:	6023      	str	r3, [r4, #0]
 80059ba:	2e00      	cmp	r6, #0
 80059bc:	d001      	beq.n	80059c2 <_printf_i+0x176>
 80059be:	2710      	movs	r7, #16
 80059c0:	e7aa      	b.n	8005918 <_printf_i+0xcc>
 80059c2:	2220      	movs	r2, #32
 80059c4:	6823      	ldr	r3, [r4, #0]
 80059c6:	4393      	bics	r3, r2
 80059c8:	6023      	str	r3, [r4, #0]
 80059ca:	e7f8      	b.n	80059be <_printf_i+0x172>
 80059cc:	681a      	ldr	r2, [r3, #0]
 80059ce:	680d      	ldr	r5, [r1, #0]
 80059d0:	1d10      	adds	r0, r2, #4
 80059d2:	6949      	ldr	r1, [r1, #20]
 80059d4:	6018      	str	r0, [r3, #0]
 80059d6:	6813      	ldr	r3, [r2, #0]
 80059d8:	062e      	lsls	r6, r5, #24
 80059da:	d501      	bpl.n	80059e0 <_printf_i+0x194>
 80059dc:	6019      	str	r1, [r3, #0]
 80059de:	e002      	b.n	80059e6 <_printf_i+0x19a>
 80059e0:	066d      	lsls	r5, r5, #25
 80059e2:	d5fb      	bpl.n	80059dc <_printf_i+0x190>
 80059e4:	8019      	strh	r1, [r3, #0]
 80059e6:	2300      	movs	r3, #0
 80059e8:	9d03      	ldr	r5, [sp, #12]
 80059ea:	6123      	str	r3, [r4, #16]
 80059ec:	e7bf      	b.n	800596e <_printf_i+0x122>
 80059ee:	681a      	ldr	r2, [r3, #0]
 80059f0:	1d11      	adds	r1, r2, #4
 80059f2:	6019      	str	r1, [r3, #0]
 80059f4:	6815      	ldr	r5, [r2, #0]
 80059f6:	2100      	movs	r1, #0
 80059f8:	0028      	movs	r0, r5
 80059fa:	6862      	ldr	r2, [r4, #4]
 80059fc:	f000 f896 	bl	8005b2c <memchr>
 8005a00:	2800      	cmp	r0, #0
 8005a02:	d001      	beq.n	8005a08 <_printf_i+0x1bc>
 8005a04:	1b40      	subs	r0, r0, r5
 8005a06:	6060      	str	r0, [r4, #4]
 8005a08:	6863      	ldr	r3, [r4, #4]
 8005a0a:	6123      	str	r3, [r4, #16]
 8005a0c:	2300      	movs	r3, #0
 8005a0e:	9a03      	ldr	r2, [sp, #12]
 8005a10:	7013      	strb	r3, [r2, #0]
 8005a12:	e7ac      	b.n	800596e <_printf_i+0x122>
 8005a14:	002a      	movs	r2, r5
 8005a16:	6923      	ldr	r3, [r4, #16]
 8005a18:	9906      	ldr	r1, [sp, #24]
 8005a1a:	9805      	ldr	r0, [sp, #20]
 8005a1c:	9d07      	ldr	r5, [sp, #28]
 8005a1e:	47a8      	blx	r5
 8005a20:	3001      	adds	r0, #1
 8005a22:	d0ae      	beq.n	8005982 <_printf_i+0x136>
 8005a24:	6823      	ldr	r3, [r4, #0]
 8005a26:	079b      	lsls	r3, r3, #30
 8005a28:	d415      	bmi.n	8005a56 <_printf_i+0x20a>
 8005a2a:	9b09      	ldr	r3, [sp, #36]	@ 0x24
 8005a2c:	68e0      	ldr	r0, [r4, #12]
 8005a2e:	4298      	cmp	r0, r3
 8005a30:	daa9      	bge.n	8005986 <_printf_i+0x13a>
 8005a32:	0018      	movs	r0, r3
 8005a34:	e7a7      	b.n	8005986 <_printf_i+0x13a>
 8005a36:	0022      	movs	r2, r4
 8005a38:	2301      	movs	r3, #1
 8005a3a:	9906      	ldr	r1, [sp, #24]
 8005a3c:	9805      	ldr	r0, [sp, #20]
 8005a3e:	9e07      	ldr	r6, [sp, #28]
 8005a40:	3219      	adds	r2, #25
 8005a42:	47b0      	blx	r6
 8005a44:	3001      	adds	r0, #1
 8005a46:	d09c      	beq.n	8005982 <_printf_i+0x136>
 8005a48:	3501      	adds	r5, #1
 8005a4a:	68e3      	ldr	r3, [r4, #12]
 8005a4c:	9a09      	ldr	r2, [sp, #36]	@ 0x24
 8005a4e:	1a9b      	subs	r3, r3, r2
 8005a50:	42ab      	cmp	r3, r5
 8005a52:	dcf0      	bgt.n	8005a36 <_printf_i+0x1ea>
 8005a54:	e7e9      	b.n	8005a2a <_printf_i+0x1de>
 8005a56:	2500      	movs	r5, #0
 8005a58:	e7f7      	b.n	8005a4a <_printf_i+0x1fe>
 8005a5a:	46c0      	nop			@ (mov r8, r8)
 8005a5c:	0800723d 	.word	0x0800723d
 8005a60:	0800724e 	.word	0x0800724e

08005a64 <__malloc_lock>:
 8005a64:	b510      	push	{r4, lr}
 8005a66:	4802      	ldr	r0, [pc, #8]	@ (8005a70 <__malloc_lock+0xc>)
 8005a68:	f7ff fc7e 	bl	8005368 <__retarget_lock_acquire_recursive>
 8005a6c:	bd10      	pop	{r4, pc}
 8005a6e:	46c0      	nop			@ (mov r8, r8)
 8005a70:	20000848 	.word	0x20000848

08005a74 <__malloc_unlock>:
 8005a74:	b510      	push	{r4, lr}
 8005a76:	4802      	ldr	r0, [pc, #8]	@ (8005a80 <__malloc_unlock+0xc>)
 8005a78:	f7ff fc77 	bl	800536a <__retarget_lock_release_recursive>
 8005a7c:	bd10      	pop	{r4, pc}
 8005a7e:	46c0      	nop			@ (mov r8, r8)
 8005a80:	20000848 	.word	0x20000848

08005a84 <_realloc_r>:
 8005a84:	b5f7      	push	{r0, r1, r2, r4, r5, r6, r7, lr}
 8005a86:	0006      	movs	r6, r0
 8005a88:	000c      	movs	r4, r1
 8005a8a:	0015      	movs	r5, r2
 8005a8c:	2900      	cmp	r1, #0
 8005a8e:	d105      	bne.n	8005a9c <_realloc_r+0x18>
 8005a90:	0011      	movs	r1, r2
 8005a92:	f7ff fdeb 	bl	800566c <_malloc_r>
 8005a96:	0004      	movs	r4, r0
 8005a98:	0020      	movs	r0, r4
 8005a9a:	bdfe      	pop	{r1, r2, r3, r4, r5, r6, r7, pc}
 8005a9c:	2a00      	cmp	r2, #0
 8005a9e:	d103      	bne.n	8005aa8 <_realloc_r+0x24>
 8005aa0:	f000 f858 	bl	8005b54 <_free_r>
 8005aa4:	002c      	movs	r4, r5
 8005aa6:	e7f7      	b.n	8005a98 <_realloc_r+0x14>
 8005aa8:	f000 f89e 	bl	8005be8 <_malloc_usable_size_r>
 8005aac:	0007      	movs	r7, r0
 8005aae:	4285      	cmp	r5, r0
 8005ab0:	d802      	bhi.n	8005ab8 <_realloc_r+0x34>
 8005ab2:	0843      	lsrs	r3, r0, #1
 8005ab4:	42ab      	cmp	r3, r5
 8005ab6:	d3ef      	bcc.n	8005a98 <_realloc_r+0x14>
 8005ab8:	0029      	movs	r1, r5
 8005aba:	0030      	movs	r0, r6
 8005abc:	f7ff fdd6 	bl	800566c <_malloc_r>
 8005ac0:	9001      	str	r0, [sp, #4]
 8005ac2:	2800      	cmp	r0, #0
 8005ac4:	d101      	bne.n	8005aca <_realloc_r+0x46>
 8005ac6:	9c01      	ldr	r4, [sp, #4]
 8005ac8:	e7e6      	b.n	8005a98 <_realloc_r+0x14>
 8005aca:	002a      	movs	r2, r5
 8005acc:	42bd      	cmp	r5, r7
 8005ace:	d900      	bls.n	8005ad2 <_realloc_r+0x4e>
 8005ad0:	003a      	movs	r2, r7
 8005ad2:	0021      	movs	r1, r4
 8005ad4:	9801      	ldr	r0, [sp, #4]
 8005ad6:	f000 f834 	bl	8005b42 <memcpy>
 8005ada:	0021      	movs	r1, r4
 8005adc:	0030      	movs	r0, r6
 8005ade:	f000 f839 	bl	8005b54 <_free_r>
 8005ae2:	e7f0      	b.n	8005ac6 <_realloc_r+0x42>

08005ae4 <memmove>:
 8005ae4:	b510      	push	{r4, lr}
 8005ae6:	4288      	cmp	r0, r1
 8005ae8:	d902      	bls.n	8005af0 <memmove+0xc>
 8005aea:	188b      	adds	r3, r1, r2
 8005aec:	4298      	cmp	r0, r3
 8005aee:	d308      	bcc.n	8005b02 <memmove+0x1e>
 8005af0:	2300      	movs	r3, #0
 8005af2:	429a      	cmp	r2, r3
 8005af4:	d007      	beq.n	8005b06 <memmove+0x22>
 8005af6:	5ccc      	ldrb	r4, [r1, r3]
 8005af8:	54c4      	strb	r4, [r0, r3]
 8005afa:	3301      	adds	r3, #1
 8005afc:	e7f9      	b.n	8005af2 <memmove+0xe>
 8005afe:	5c8b      	ldrb	r3, [r1, r2]
 8005b00:	5483      	strb	r3, [r0, r2]
 8005b02:	3a01      	subs	r2, #1
 8005b04:	d2fb      	bcs.n	8005afe <memmove+0x1a>
 8005b06:	bd10      	pop	{r4, pc}

08005b08 <_sbrk_r>:
 8005b08:	2300      	movs	r3, #0
 8005b0a:	b570      	push	{r4, r5, r6, lr}
 8005b0c:	4d06      	ldr	r5, [pc, #24]	@ (8005b28 <_sbrk_r+0x20>)
 8005b0e:	0004      	movs	r4, r0
 8005b10:	0008      	movs	r0, r1
 8005b12:	602b      	str	r3, [r5, #0]
 8005b14:	f7fc fcf6 	bl	8002504 <_sbrk>
 8005b18:	1c43      	adds	r3, r0, #1
 8005b1a:	d103      	bne.n	8005b24 <_sbrk_r+0x1c>
 8005b1c:	682b      	ldr	r3, [r5, #0]
 8005b1e:	2b00      	cmp	r3, #0
 8005b20:	d000      	beq.n	8005b24 <_sbrk_r+0x1c>
 8005b22:	6023      	str	r3, [r4, #0]
 8005b24:	bd70      	pop	{r4, r5, r6, pc}
 8005b26:	46c0      	nop			@ (mov r8, r8)
 8005b28:	20000854 	.word	0x20000854

08005b2c <memchr>:
 8005b2c:	b2c9      	uxtb	r1, r1
 8005b2e:	1882      	adds	r2, r0, r2
 8005b30:	4290      	cmp	r0, r2
 8005b32:	d101      	bne.n	8005b38 <memchr+0xc>
 8005b34:	2000      	movs	r0, #0
 8005b36:	4770      	bx	lr
 8005b38:	7803      	ldrb	r3, [r0, #0]
 8005b3a:	428b      	cmp	r3, r1
 8005b3c:	d0fb      	beq.n	8005b36 <memchr+0xa>
 8005b3e:	3001      	adds	r0, #1
 8005b40:	e7f6      	b.n	8005b30 <memchr+0x4>

08005b42 <memcpy>:
 8005b42:	2300      	movs	r3, #0
 8005b44:	b510      	push	{r4, lr}
 8005b46:	429a      	cmp	r2, r3
 8005b48:	d100      	bne.n	8005b4c <memcpy+0xa>
 8005b4a:	bd10      	pop	{r4, pc}
 8005b4c:	5ccc      	ldrb	r4, [r1, r3]
 8005b4e:	54c4      	strb	r4, [r0, r3]
 8005b50:	3301      	adds	r3, #1
 8005b52:	e7f8      	b.n	8005b46 <memcpy+0x4>

08005b54 <_free_r>:
 8005b54:	b570      	push	{r4, r5, r6, lr}
 8005b56:	0005      	movs	r5, r0
 8005b58:	1e0c      	subs	r4, r1, #0
 8005b5a:	d010      	beq.n	8005b7e <_free_r+0x2a>
 8005b5c:	3c04      	subs	r4, #4
 8005b5e:	6823      	ldr	r3, [r4, #0]
 8005b60:	2b00      	cmp	r3, #0
 8005b62:	da00      	bge.n	8005b66 <_free_r+0x12>
 8005b64:	18e4      	adds	r4, r4, r3
 8005b66:	0028      	movs	r0, r5
 8005b68:	f7ff ff7c 	bl	8005a64 <__malloc_lock>
 8005b6c:	4a1d      	ldr	r2, [pc, #116]	@ (8005be4 <_free_r+0x90>)
 8005b6e:	6813      	ldr	r3, [r2, #0]
 8005b70:	2b00      	cmp	r3, #0
 8005b72:	d105      	bne.n	8005b80 <_free_r+0x2c>
 8005b74:	6063      	str	r3, [r4, #4]
 8005b76:	6014      	str	r4, [r2, #0]
 8005b78:	0028      	movs	r0, r5
 8005b7a:	f7ff ff7b 	bl	8005a74 <__malloc_unlock>
 8005b7e:	bd70      	pop	{r4, r5, r6, pc}
 8005b80:	42a3      	cmp	r3, r4
 8005b82:	d908      	bls.n	8005b96 <_free_r+0x42>
 8005b84:	6820      	ldr	r0, [r4, #0]
 8005b86:	1821      	adds	r1, r4, r0
 8005b88:	428b      	cmp	r3, r1
 8005b8a:	d1f3      	bne.n	8005b74 <_free_r+0x20>
 8005b8c:	6819      	ldr	r1, [r3, #0]
 8005b8e:	685b      	ldr	r3, [r3, #4]
 8005b90:	1809      	adds	r1, r1, r0
 8005b92:	6021      	str	r1, [r4, #0]
 8005b94:	e7ee      	b.n	8005b74 <_free_r+0x20>
 8005b96:	001a      	movs	r2, r3
 8005b98:	685b      	ldr	r3, [r3, #4]
 8005b9a:	2b00      	cmp	r3, #0
 8005b9c:	d001      	beq.n	8005ba2 <_free_r+0x4e>
 8005b9e:	42a3      	cmp	r3, r4
 8005ba0:	d9f9      	bls.n	8005b96 <_free_r+0x42>
 8005ba2:	6811      	ldr	r1, [r2, #0]
 8005ba4:	1850      	adds	r0, r2, r1
 8005ba6:	42a0      	cmp	r0, r4
 8005ba8:	d10b      	bne.n	8005bc2 <_free_r+0x6e>
 8005baa:	6820      	ldr	r0, [r4, #0]
 8005bac:	1809      	adds	r1, r1, r0
 8005bae:	1850      	adds	r0, r2, r1
 8005bb0:	6011      	str	r1, [r2, #0]
 8005bb2:	4283      	cmp	r3, r0
 8005bb4:	d1e0      	bne.n	8005b78 <_free_r+0x24>
 8005bb6:	6818      	ldr	r0, [r3, #0]
 8005bb8:	685b      	ldr	r3, [r3, #4]
 8005bba:	1841      	adds	r1, r0, r1
 8005bbc:	6011      	str	r1, [r2, #0]
 8005bbe:	6053      	str	r3, [r2, #4]
 8005bc0:	e7da      	b.n	8005b78 <_free_r+0x24>
 8005bc2:	42a0      	cmp	r0, r4
 8005bc4:	d902      	bls.n	8005bcc <_free_r+0x78>
 8005bc6:	230c      	movs	r3, #12
 8005bc8:	602b      	str	r3, [r5, #0]
 8005bca:	e7d5      	b.n	8005b78 <_free_r+0x24>
 8005bcc:	6820      	ldr	r0, [r4, #0]
 8005bce:	1821      	adds	r1, r4, r0
 8005bd0:	428b      	cmp	r3, r1
 8005bd2:	d103      	bne.n	8005bdc <_free_r+0x88>
 8005bd4:	6819      	ldr	r1, [r3, #0]
 8005bd6:	685b      	ldr	r3, [r3, #4]
 8005bd8:	1809      	adds	r1, r1, r0
 8005bda:	6021      	str	r1, [r4, #0]
 8005bdc:	6063      	str	r3, [r4, #4]
 8005bde:	6054      	str	r4, [r2, #4]
 8005be0:	e7ca      	b.n	8005b78 <_free_r+0x24>
 8005be2:	46c0      	nop			@ (mov r8, r8)
 8005be4:	20000850 	.word	0x20000850

08005be8 <_malloc_usable_size_r>:
 8005be8:	1f0b      	subs	r3, r1, #4
 8005bea:	681b      	ldr	r3, [r3, #0]
 8005bec:	1f18      	subs	r0, r3, #4
 8005bee:	2b00      	cmp	r3, #0
 8005bf0:	da01      	bge.n	8005bf6 <_malloc_usable_size_r+0xe>
 8005bf2:	580b      	ldr	r3, [r1, r0]
 8005bf4:	18c0      	adds	r0, r0, r3
 8005bf6:	4770      	bx	lr

08005bf8 <_init>:
 8005bf8:	b5f8      	push	{r3, r4, r5, r6, r7, lr}
 8005bfa:	46c0      	nop			@ (mov r8, r8)
 8005bfc:	bcf8      	pop	{r3, r4, r5, r6, r7}
 8005bfe:	bc08      	pop	{r3}
 8005c00:	469e      	mov	lr, r3
 8005c02:	4770      	bx	lr

08005c04 <_fini>:
 8005c04:	b5f8      	push	{r3, r4, r5, r6, r7, lr}
 8005c06:	46c0      	nop			@ (mov r8, r8)
 8005c08:	bcf8      	pop	{r3, r4, r5, r6, r7}
 8005c0a:	bc08      	pop	{r3}
 8005c0c:	469e      	mov	lr, r3
 8005c0e:	4770      	bx	lr
